; ModuleID = 'fp_tree.bc'
source_filename = "fp_tree.cpp"
target datalayout = "e-m:e-i64:64-f80:128-n8:16:32:64-S128"
target triple = "x86_64-unknown-linux-gnu"

%class.Fnode = type { %class.Fnode*, %class.Fnode*, i32, i32 }
%class.MapFile = type { %class.MapFileNode*, %class.MapFileNode**, i32*, i32*, i32*, i32*, i8*, i32 }
%class.MapFileNode = type { i32*, i32, i32, i32, i32, i8*, %class.MapFileNode* }
%class.memory = type { i32, i64, i64, i32, i8**, i32, i8**, i32*, i32*, i8*, i32, i32 }
%class.stack = type { i32, i32*, i32* }
%class.FP_tree = type <{ i32, [4 x i8], i32*, i32*, %class.Fnode*, i32*, i32**, i32*, i32*, i32, i32, i8*, i32*, i32*, i8**, i32, [4 x i8] }>
%class.Data = type { i64, %struct._IO_FILE* }
%struct._IO_FILE = type { i32, i8*, i8*, i8*, i8*, i8*, i8*, i8*, i8*, i8*, i8*, i8*, %struct._IO_marker*, %struct._IO_FILE*, i32, i32, i64, i16, i8, [1 x i8], i8*, i64, i8*, i8*, i8*, i8*, i64, i32, [20 x i8] }
%struct._IO_marker = type { %struct._IO_marker*, %struct._IO_FILE*, i32 }
%struct.cpu_set_t = type { [16 x i64] }
%class.FSout = type { %struct._IO_FILE* }

$_Z4swapIiEvPT_S1_ = comdat any

$_Z35first_transform_FPTree_into_FPArrayIhEvP7FP_treeT_ = comdat any

$_Z35first_transform_FPTree_into_FPArrayItEvP7FP_treeT_ = comdat any

$_Z35first_transform_FPTree_into_FPArrayIjEvP7FP_treeT_ = comdat any

$_Z17transform_FPArrayIitEvPT_T0_i = comdat any

$_Z17transform_FPArrayIthEvPT_T0_i = comdat any

$_Z32FPArray_conditional_pattern_baseIhEiP7FP_treeiiT_ = comdat any

$_Z32FPArray_conditional_pattern_baseItEiP7FP_treeiiT_ = comdat any

$_Z32FPArray_conditional_pattern_baseIjEiP7FP_treeiiT_ = comdat any

$_Z16FPArray_scan2_DBIhEvP7FP_treeS1_iiT_ = comdat any

$_Z16FPArray_scan2_DBItEvP7FP_treeS1_iiT_ = comdat any

$_Z16FPArray_scan2_DBIjEvP7FP_treeS1_iiT_ = comdat any

$_Z29transform_FPTree_into_FPArrayIhEvP7FP_treeiT_ = comdat any

$_Z29transform_FPTree_into_FPArrayItEvP7FP_treeiT_ = comdat any

$_Z29transform_FPTree_into_FPArrayIjEvP7FP_treeiT_ = comdat any

@currentnodeiter = global i32*** null, align 8
@nodestack = global %class.Fnode*** null, align 8
@itemstack = global i32** null, align 8
@origin = global i32** null, align 8
@hashtable = global %class.Fnode*** null, align 8
@hot_node_count = global i32** null, align 8
@hot_node_depth = global i32* null, align 8
@hot_node_index = global i32* null, align 8
@fast_rightsib_table = global %class.Fnode**** null, align 8
@rightsib_backpatch_stack = global %class.Fnode**** null, align 8
@global_count_array = global i32** null, align 8
@global_table_array = global i32** null, align 8
@global_temp_order_array = global i32** null, align 8
@global_order_array = global i32** null, align 8
@rightsib_backpatch_count = global i32** null, align 8
@sum_item_num = global i32** null, align 8
@global_nodenum = global i32** null, align 8
@lowerbound_array = global [3 x i32] [i32 65536, i32 256, i32 0], align 4
@ntypearray = global i32** null, align 8
@thread_finish_status = global i32* null, align 8
@thread_begin_status = global i32* null, align 8
@released_pos = global i32 0, align 4
@first_MC_tree = global i32* null, align 8
@first_MR_tree = global i32* null, align 8
@first_MB_tree = global i8** null, align 8
@mapfile = global %class.MapFile* null, align 8
@thread_mapfile = global %class.MapFile** null, align 8
@sumntype = global [65536 x i32] zeroinitializer, align 16
@ntypehashtable = global [65536 x i32] zeroinitializer, align 16
@ntypeidarray = global [65536 x i32] zeroinitializer, align 16
@mergedworkbase = global [65536 x i32] zeroinitializer, align 16
@mergedworkend = global [65536 x i32] zeroinitializer, align 16
@mergedworknum = global i32 0, align 4
@threadtranscontent = global i16* null, align 8
@threadntypeoffsetiter = global i32** null, align 8
@ntypeoffsetbase = global i32* null, align 8
@ntypeoffsetend = global i32* null, align 8
@numusefulntype = global i32 0, align 4
@threadworkload = global i32** null, align 8
@threadworkloadnum = global i32* null, align 8
@fp_buf = external global %class.memory**, align 8
@new_data_num = external global i32**, align 8
@fp_tree_buf = external global %class.memory**, align 8
@item_order = external global i32*, align 8
@database_buf = external global %class.memory*, align 8
@ITEM_NO = external global i32, align 4
@THRESHOLD = external global i32, align 4
@order_item = external global i32*, align 8
@supp = external global i32**, align 8
@ITlen = external global i32**, align 8
@bran = external global i32**, align 8
@compact = external global i32**, align 8
@prefix = external global i32**, align 8
@list = external global %class.stack**, align 8
@fp_node_sub_buf = external global %class.memory*, align 8

@_ZN5stackC1Ei = alias void (%class.stack*, i32), void (%class.stack*, i32)* @_ZN5stackC2Ei
@_ZN5stackD1Ev = alias void (%class.stack*), void (%class.stack*)* @_ZN5stackD2Ev

; Function Attrs: noinline nounwind uwtable
define i32 @_Z9findpivotRKiS0_(i32* dereferenceable(4) %i, i32* dereferenceable(4) %j) #0 {
entry:
  %i.addr = alloca i32*, align 8
  %j.addr = alloca i32*, align 8
  store i32* %i, i32** %i.addr, align 8
  store i32* %j, i32** %j.addr, align 8
  %0 = load i32*, i32** %i.addr, align 8
  %1 = load i32, i32* %0, align 4
  %2 = load i32*, i32** %j.addr, align 8
  %3 = load i32, i32* %2, align 4
  %add = add nsw i32 %1, %3
  %div = sdiv i32 %add, 2
  ret i32 %div
}

; Function Attrs: noinline uwtable
define i32 @_Z9partitionPiS_iii(i32* %array, i32* %temp, i32 %l, i32 %r, i32 %pivot) #1 {
entry:
  %array.addr = alloca i32*, align 8
  %temp.addr = alloca i32*, align 8
  %l.addr = alloca i32, align 4
  %r.addr = alloca i32, align 4
  %pivot.addr = alloca i32, align 4
  store i32* %array, i32** %array.addr, align 8
  store i32* %temp, i32** %temp.addr, align 8
  store i32 %l, i32* %l.addr, align 4
  store i32 %r, i32* %r.addr, align 4
  store i32 %pivot, i32* %pivot.addr, align 4
  br label %do.body

do.body:                                          ; preds = %do.cond, %entry
  br label %while.cond

while.cond:                                       ; preds = %while.body, %do.body
  %0 = load i32*, i32** %array.addr, align 8
  %1 = load i32, i32* %l.addr, align 4
  %inc = add nsw i32 %1, 1
  store i32 %inc, i32* %l.addr, align 4
  %idxprom = sext i32 %inc to i64
  %arrayidx = getelementptr inbounds i32, i32* %0, i64 %idxprom
  %2 = load i32, i32* %arrayidx, align 4
  %3 = load i32, i32* %pivot.addr, align 4
  %cmp = icmp sgt i32 %2, %3
  br i1 %cmp, label %while.body, label %while.end

while.body:                                       ; preds = %while.cond
  br label %while.cond

while.end:                                        ; preds = %while.cond
  br label %while.cond1

while.cond1:                                      ; preds = %while.body5, %while.end
  %4 = load i32, i32* %r.addr, align 4
  %tobool = icmp ne i32 %4, 0
  br i1 %tobool, label %land.rhs, label %land.end

land.rhs:                                         ; preds = %while.cond1
  %5 = load i32*, i32** %array.addr, align 8
  %6 = load i32, i32* %r.addr, align 4
  %dec = add nsw i32 %6, -1
  store i32 %dec, i32* %r.addr, align 4
  %idxprom2 = sext i32 %dec to i64
  %arrayidx3 = getelementptr inbounds i32, i32* %5, i64 %idxprom2
  %7 = load i32, i32* %arrayidx3, align 4
  %8 = load i32, i32* %pivot.addr, align 4
  %cmp4 = icmp slt i32 %7, %8
  br label %land.end

land.end:                                         ; preds = %land.rhs, %while.cond1
  %9 = phi i1 [ false, %while.cond1 ], [ %cmp4, %land.rhs ]
  br i1 %9, label %while.body5, label %while.end6

while.body5:                                      ; preds = %land.end
  br label %while.cond1

while.end6:                                       ; preds = %land.end
  %10 = load i32*, i32** %array.addr, align 8
  %11 = load i32, i32* %l.addr, align 4
  %idx.ext = sext i32 %11 to i64
  %add.ptr = getelementptr inbounds i32, i32* %10, i64 %idx.ext
  %12 = load i32*, i32** %array.addr, align 8
  %13 = load i32, i32* %r.addr, align 4
  %idx.ext7 = sext i32 %13 to i64
  %add.ptr8 = getelementptr inbounds i32, i32* %12, i64 %idx.ext7
  call void @_Z4swapIiEvPT_S1_(i32* %add.ptr, i32* %add.ptr8)
  %14 = load i32*, i32** %temp.addr, align 8
  %15 = load i32, i32* %l.addr, align 4
  %idx.ext9 = sext i32 %15 to i64
  %add.ptr10 = getelementptr inbounds i32, i32* %14, i64 %idx.ext9
  %16 = load i32*, i32** %temp.addr, align 8
  %17 = load i32, i32* %r.addr, align 4
  %idx.ext11 = sext i32 %17 to i64
  %add.ptr12 = getelementptr inbounds i32, i32* %16, i64 %idx.ext11
  call void @_Z4swapIiEvPT_S1_(i32* %add.ptr10, i32* %add.ptr12)
  br label %do.cond

do.cond:                                          ; preds = %while.end6
  %18 = load i32, i32* %l.addr, align 4
  %19 = load i32, i32* %r.addr, align 4
  %cmp13 = icmp slt i32 %18, %19
  br i1 %cmp13, label %do.body, label %do.end

do.end:                                           ; preds = %do.cond
  %20 = load i32*, i32** %array.addr, align 8
  %21 = load i32, i32* %l.addr, align 4
  %idx.ext14 = sext i32 %21 to i64
  %add.ptr15 = getelementptr inbounds i32, i32* %20, i64 %idx.ext14
  %22 = load i32*, i32** %array.addr, align 8
  %23 = load i32, i32* %r.addr, align 4
  %idx.ext16 = sext i32 %23 to i64
  %add.ptr17 = getelementptr inbounds i32, i32* %22, i64 %idx.ext16
  call void @_Z4swapIiEvPT_S1_(i32* %add.ptr15, i32* %add.ptr17)
  %24 = load i32*, i32** %temp.addr, align 8
  %25 = load i32, i32* %l.addr, align 4
  %idx.ext18 = sext i32 %25 to i64
  %add.ptr19 = getelementptr inbounds i32, i32* %24, i64 %idx.ext18
  %26 = load i32*, i32** %temp.addr, align 8
  %27 = load i32, i32* %r.addr, align 4
  %idx.ext20 = sext i32 %27 to i64
  %add.ptr21 = getelementptr inbounds i32, i32* %26, i64 %idx.ext20
  call void @_Z4swapIiEvPT_S1_(i32* %add.ptr19, i32* %add.ptr21)
  %28 = load i32, i32* %l.addr, align 4
  ret i32 %28
}

; Function Attrs: noinline nounwind uwtable
define linkonce_odr void @_Z4swapIiEvPT_S1_(i32* %k, i32* %j) #0 comdat {
entry:
  %k.addr = alloca i32*, align 8
  %j.addr = alloca i32*, align 8
  %temp = alloca i32, align 4
  store i32* %k, i32** %k.addr, align 8
  store i32* %j, i32** %j.addr, align 8
  %0 = load i32*, i32** %j.addr, align 8
  %1 = load i32, i32* %0, align 4
  store i32 %1, i32* %temp, align 4
  %2 = load i32*, i32** %k.addr, align 8
  %3 = load i32, i32* %2, align 4
  %4 = load i32*, i32** %j.addr, align 8
  store i32 %3, i32* %4, align 4
  %5 = load i32, i32* %temp, align 4
  %6 = load i32*, i32** %k.addr, align 8
  store i32 %5, i32* %6, align 4
  ret void
}

; Function Attrs: noinline uwtable
define void @_Z7inssortPiS_ii(i32* %array, i32* %temp, i32 %i, i32 %j) #1 {
entry:
  %array.addr = alloca i32*, align 8
  %temp.addr = alloca i32*, align 8
  %i.addr = alloca i32, align 4
  %j.addr = alloca i32, align 4
  %k = alloca i32, align 4
  %m = alloca i32, align 4
  store i32* %array, i32** %array.addr, align 8
  store i32* %temp, i32** %temp.addr, align 8
  store i32 %i, i32* %i.addr, align 4
  store i32 %j, i32* %j.addr, align 4
  %0 = load i32, i32* %i.addr, align 4
  %add = add nsw i32 %0, 1
  store i32 %add, i32* %k, align 4
  br label %for.cond

for.cond:                                         ; preds = %for.inc15, %entry
  %1 = load i32, i32* %k, align 4
  %2 = load i32, i32* %j.addr, align 4
  %cmp = icmp sle i32 %1, %2
  br i1 %cmp, label %for.body, label %for.end16

for.body:                                         ; preds = %for.cond
  %3 = load i32, i32* %k, align 4
  store i32 %3, i32* %m, align 4
  br label %for.cond1

for.cond1:                                        ; preds = %for.inc, %for.body
  %4 = load i32, i32* %m, align 4
  %5 = load i32, i32* %i.addr, align 4
  %cmp2 = icmp sgt i32 %4, %5
  br i1 %cmp2, label %land.rhs, label %land.end

land.rhs:                                         ; preds = %for.cond1
  %6 = load i32*, i32** %array.addr, align 8
  %7 = load i32, i32* %m, align 4
  %idxprom = sext i32 %7 to i64
  %arrayidx = getelementptr inbounds i32, i32* %6, i64 %idxprom
  %8 = load i32, i32* %arrayidx, align 4
  %9 = load i32*, i32** %array.addr, align 8
  %10 = load i32, i32* %m, align 4
  %sub = sub nsw i32 %10, 1
  %idxprom3 = sext i32 %sub to i64
  %arrayidx4 = getelementptr inbounds i32, i32* %9, i64 %idxprom3
  %11 = load i32, i32* %arrayidx4, align 4
  %cmp5 = icmp sgt i32 %8, %11
  br label %land.end

land.end:                                         ; preds = %land.rhs, %for.cond1
  %12 = phi i1 [ false, %for.cond1 ], [ %cmp5, %land.rhs ]
  br i1 %12, label %for.body6, label %for.end

for.body6:                                        ; preds = %land.end
  %13 = load i32*, i32** %array.addr, align 8
  %14 = load i32, i32* %m, align 4
  %idx.ext = sext i32 %14 to i64
  %add.ptr = getelementptr inbounds i32, i32* %13, i64 %idx.ext
  %15 = load i32*, i32** %array.addr, align 8
  %16 = load i32, i32* %m, align 4
  %idx.ext7 = sext i32 %16 to i64
  %add.ptr8 = getelementptr inbounds i32, i32* %15, i64 %idx.ext7
  %add.ptr9 = getelementptr inbounds i32, i32* %add.ptr8, i64 -1
  call void @_Z4swapIiEvPT_S1_(i32* %add.ptr, i32* %add.ptr9)
  %17 = load i32*, i32** %temp.addr, align 8
  %18 = load i32, i32* %m, align 4
  %idx.ext10 = sext i32 %18 to i64
  %add.ptr11 = getelementptr inbounds i32, i32* %17, i64 %idx.ext10
  %19 = load i32*, i32** %temp.addr, align 8
  %20 = load i32, i32* %m, align 4
  %idx.ext12 = sext i32 %20 to i64
  %add.ptr13 = getelementptr inbounds i32, i32* %19, i64 %idx.ext12
  %add.ptr14 = getelementptr inbounds i32, i32* %add.ptr13, i64 -1
  call void @_Z4swapIiEvPT_S1_(i32* %add.ptr11, i32* %add.ptr14)
  br label %for.inc

for.inc:                                          ; preds = %for.body6
  %21 = load i32, i32* %m, align 4
  %dec = add nsw i32 %21, -1
  store i32 %dec, i32* %m, align 4
  br label %for.cond1

for.end:                                          ; preds = %land.end
  br label %for.inc15

for.inc15:                                        ; preds = %for.end
  %22 = load i32, i32* %k, align 4
  %inc = add nsw i32 %22, 1
  store i32 %inc, i32* %k, align 4
  br label %for.cond

for.end16:                                        ; preds = %for.cond
  ret void
}

; Function Attrs: noinline uwtable
define void @_Z4sortPiS_ii(i32* %array, i32* %temp, i32 %i, i32 %j) #1 {
entry:
  %array.addr = alloca i32*, align 8
  %temp.addr = alloca i32*, align 8
  %i.addr = alloca i32, align 4
  %j.addr = alloca i32, align 4
  %pivotindex = alloca i32, align 4
  %k = alloca i32, align 4
  store i32* %array, i32** %array.addr, align 8
  store i32* %temp, i32** %temp.addr, align 8
  store i32 %i, i32* %i.addr, align 4
  store i32 %j, i32* %j.addr, align 4
  %0 = load i32, i32* %j.addr, align 4
  %1 = load i32, i32* %i.addr, align 4
  %sub = sub nsw i32 %0, %1
  %cmp = icmp slt i32 %sub, 9
  br i1 %cmp, label %if.then, label %if.else

if.then:                                          ; preds = %entry
  %2 = load i32*, i32** %array.addr, align 8
  %3 = load i32*, i32** %temp.addr, align 8
  %4 = load i32, i32* %i.addr, align 4
  %5 = load i32, i32* %j.addr, align 4
  call void @_Z7inssortPiS_ii(i32* %2, i32* %3, i32 %4, i32 %5)
  br label %if.end25

if.else:                                          ; preds = %entry
  %call = call i32 @_Z9findpivotRKiS0_(i32* dereferenceable(4) %i.addr, i32* dereferenceable(4) %j.addr)
  store i32 %call, i32* %pivotindex, align 4
  %6 = load i32*, i32** %array.addr, align 8
  %7 = load i32, i32* %pivotindex, align 4
  %idx.ext = sext i32 %7 to i64
  %add.ptr = getelementptr inbounds i32, i32* %6, i64 %idx.ext
  %8 = load i32*, i32** %array.addr, align 8
  %9 = load i32, i32* %j.addr, align 4
  %idx.ext1 = sext i32 %9 to i64
  %add.ptr2 = getelementptr inbounds i32, i32* %8, i64 %idx.ext1
  call void @_Z4swapIiEvPT_S1_(i32* %add.ptr, i32* %add.ptr2)
  %10 = load i32*, i32** %temp.addr, align 8
  %11 = load i32, i32* %pivotindex, align 4
  %idx.ext3 = sext i32 %11 to i64
  %add.ptr4 = getelementptr inbounds i32, i32* %10, i64 %idx.ext3
  %12 = load i32*, i32** %temp.addr, align 8
  %13 = load i32, i32* %j.addr, align 4
  %idx.ext5 = sext i32 %13 to i64
  %add.ptr6 = getelementptr inbounds i32, i32* %12, i64 %idx.ext5
  call void @_Z4swapIiEvPT_S1_(i32* %add.ptr4, i32* %add.ptr6)
  %14 = load i32*, i32** %array.addr, align 8
  %15 = load i32*, i32** %temp.addr, align 8
  %16 = load i32, i32* %i.addr, align 4
  %sub7 = sub nsw i32 %16, 1
  %17 = load i32, i32* %j.addr, align 4
  %18 = load i32*, i32** %array.addr, align 8
  %19 = load i32, i32* %j.addr, align 4
  %idxprom = sext i32 %19 to i64
  %arrayidx = getelementptr inbounds i32, i32* %18, i64 %idxprom
  %20 = load i32, i32* %arrayidx, align 4
  %call8 = call i32 @_Z9partitionPiS_iii(i32* %14, i32* %15, i32 %sub7, i32 %17, i32 %20)
  store i32 %call8, i32* %k, align 4
  %21 = load i32*, i32** %array.addr, align 8
  %22 = load i32, i32* %k, align 4
  %idx.ext9 = sext i32 %22 to i64
  %add.ptr10 = getelementptr inbounds i32, i32* %21, i64 %idx.ext9
  %23 = load i32*, i32** %array.addr, align 8
  %24 = load i32, i32* %j.addr, align 4
  %idx.ext11 = sext i32 %24 to i64
  %add.ptr12 = getelementptr inbounds i32, i32* %23, i64 %idx.ext11
  call void @_Z4swapIiEvPT_S1_(i32* %add.ptr10, i32* %add.ptr12)
  %25 = load i32*, i32** %temp.addr, align 8
  %26 = load i32, i32* %k, align 4
  %idx.ext13 = sext i32 %26 to i64
  %add.ptr14 = getelementptr inbounds i32, i32* %25, i64 %idx.ext13
  %27 = load i32*, i32** %temp.addr, align 8
  %28 = load i32, i32* %j.addr, align 4
  %idx.ext15 = sext i32 %28 to i64
  %add.ptr16 = getelementptr inbounds i32, i32* %27, i64 %idx.ext15
  call void @_Z4swapIiEvPT_S1_(i32* %add.ptr14, i32* %add.ptr16)
  %29 = load i32, i32* %k, align 4
  %30 = load i32, i32* %i.addr, align 4
  %sub17 = sub nsw i32 %29, %30
  %cmp18 = icmp sgt i32 %sub17, 1
  br i1 %cmp18, label %if.then19, label %if.end

if.then19:                                        ; preds = %if.else
  %31 = load i32*, i32** %array.addr, align 8
  %32 = load i32*, i32** %temp.addr, align 8
  %33 = load i32, i32* %i.addr, align 4
  %34 = load i32, i32* %k, align 4
  %sub20 = sub nsw i32 %34, 1
  call void @_Z4sortPiS_ii(i32* %31, i32* %32, i32 %33, i32 %sub20)
  br label %if.end

if.end:                                           ; preds = %if.then19, %if.else
  %35 = load i32, i32* %j.addr, align 4
  %36 = load i32, i32* %k, align 4
  %sub21 = sub nsw i32 %35, %36
  %cmp22 = icmp sgt i32 %sub21, 1
  br i1 %cmp22, label %if.then23, label %if.end24

if.then23:                                        ; preds = %if.end
  %37 = load i32*, i32** %array.addr, align 8
  %38 = load i32*, i32** %temp.addr, align 8
  %39 = load i32, i32* %k, align 4
  %add = add nsw i32 %39, 1
  %40 = load i32, i32* %j.addr, align 4
  call void @_Z4sortPiS_ii(i32* %37, i32* %38, i32 %add, i32 %40)
  br label %if.end24

if.end24:                                         ; preds = %if.then23, %if.end
  br label %if.end25

if.end25:                                         ; preds = %if.end24, %if.then
  ret void
}

; Function Attrs: noinline uwtable
define void @_ZN5stackC2Ei(%class.stack* %this, i32 %length) unnamed_addr #1 align 2 {
entry:
  %this.addr = alloca %class.stack*, align 8
  %length.addr = alloca i32, align 4
  store %class.stack* %this, %class.stack** %this.addr, align 8
  store i32 %length, i32* %length.addr, align 4
  %this1 = load %class.stack*, %class.stack** %this.addr, align 8
  %top = getelementptr inbounds %class.stack, %class.stack* %this1, i32 0, i32 0
  store i32 0, i32* %top, align 8
  %0 = load i32, i32* %length.addr, align 4
  %1 = sext i32 %0 to i64
  %2 = call { i64, i1 } @llvm.umul.with.overflow.i64(i64 %1, i64 4)
  %3 = extractvalue { i64, i1 } %2, 1
  %4 = extractvalue { i64, i1 } %2, 0
  %5 = select i1 %3, i64 -1, i64 %4
  %call = call i8* @_Znam(i64 %5) #8
  %6 = bitcast i8* %call to i32*
  %FS = getelementptr inbounds %class.stack, %class.stack* %this1, i32 0, i32 1
  store i32* %6, i32** %FS, align 8
  %counts = getelementptr inbounds %class.stack, %class.stack* %this1, i32 0, i32 2
  store i32* null, i32** %counts, align 8
  ret void
}

; Function Attrs: nounwind readnone
declare { i64, i1 } @llvm.umul.with.overflow.i64(i64, i64) #2

; Function Attrs: nobuiltin
declare noalias i8* @_Znam(i64) #3

; Function Attrs: noinline nounwind uwtable
define void @_ZN5stackD2Ev(%class.stack* %this) unnamed_addr #0 align 2 {
entry:
  %this.addr = alloca %class.stack*, align 8
  store %class.stack* %this, %class.stack** %this.addr, align 8
  %this1 = load %class.stack*, %class.stack** %this.addr, align 8
  %FS = getelementptr inbounds %class.stack, %class.stack* %this1, i32 0, i32 1
  %0 = load i32*, i32** %FS, align 8
  %isnull = icmp eq i32* %0, null
  br i1 %isnull, label %delete.end, label %delete.notnull

delete.notnull:                                   ; preds = %entry
  %1 = bitcast i32* %0 to i8*
  call void @_ZdaPv(i8* %1) #9
  br label %delete.end

delete.end:                                       ; preds = %delete.notnull, %entry
  ret void
}

; Function Attrs: nobuiltin nounwind
declare void @_ZdaPv(i8*) #4

; Function Attrs: noinline nounwind uwtable
define void @_ZN5stack6insertEP7FP_tree(%class.stack* %this, %class.FP_tree* %fptree) #0 align 2 {
entry:
  %this.addr = alloca %class.stack*, align 8
  %fptree.addr = alloca %class.FP_tree*, align 8
  %node = alloca %class.Fnode*, align 8
  store %class.stack* %this, %class.stack** %this.addr, align 8
  store %class.FP_tree* %fptree, %class.FP_tree** %fptree.addr, align 8
  %this1 = load %class.stack*, %class.stack** %this.addr, align 8
  %0 = load %class.FP_tree*, %class.FP_tree** %fptree.addr, align 8
  %Root = getelementptr inbounds %class.FP_tree, %class.FP_tree* %0, i32 0, i32 4
  %1 = load %class.Fnode*, %class.Fnode** %Root, align 8
  %leftchild = getelementptr inbounds %class.Fnode, %class.Fnode* %1, i32 0, i32 0
  %2 = load %class.Fnode*, %class.Fnode** %leftchild, align 8
  store %class.Fnode* %2, %class.Fnode** %node, align 8
  br label %for.cond

for.cond:                                         ; preds = %for.inc, %entry
  %3 = load %class.Fnode*, %class.Fnode** %node, align 8
  %cmp = icmp ne %class.Fnode* %3, null
  br i1 %cmp, label %for.body, label %for.end

for.body:                                         ; preds = %for.cond
  %4 = load %class.Fnode*, %class.Fnode** %node, align 8
  %itemname = getelementptr inbounds %class.Fnode, %class.Fnode* %4, i32 0, i32 3
  %5 = load i32, i32* %itemname, align 4
  %FS = getelementptr inbounds %class.stack, %class.stack* %this1, i32 0, i32 1
  %6 = load i32*, i32** %FS, align 8
  %top = getelementptr inbounds %class.stack, %class.stack* %this1, i32 0, i32 0
  %7 = load i32, i32* %top, align 8
  %idxprom = sext i32 %7 to i64
  %arrayidx = getelementptr inbounds i32, i32* %6, i64 %idxprom
  store i32 %5, i32* %arrayidx, align 4
  %top2 = getelementptr inbounds %class.stack, %class.stack* %this1, i32 0, i32 0
  %8 = load i32, i32* %top2, align 8
  %inc = add nsw i32 %8, 1
  store i32 %inc, i32* %top2, align 8
  br label %for.inc

for.inc:                                          ; preds = %for.body
  %9 = load %class.Fnode*, %class.Fnode** %node, align 8
  %leftchild3 = getelementptr inbounds %class.Fnode, %class.Fnode* %9, i32 0, i32 0
  %10 = load %class.Fnode*, %class.Fnode** %leftchild3, align 8
  store %class.Fnode* %10, %class.Fnode** %node, align 8
  br label %for.cond

for.end:                                          ; preds = %for.cond
  ret void
}

; Function Attrs: noinline uwtable
define void @_ZN7FP_tree4initEiii(%class.FP_tree* %this, i32 %old_itemno, i32 %new_itemno, i32 %thread) #1 align 2 {
entry:
  %this.addr = alloca %class.FP_tree*, align 8
  %old_itemno.addr = alloca i32, align 4
  %new_itemno.addr = alloca i32, align 4
  %thread.addr = alloca i32, align 4
  %i = alloca i32, align 4
  store %class.FP_tree* %this, %class.FP_tree** %this.addr, align 8
  store i32 %old_itemno, i32* %old_itemno.addr, align 4
  store i32 %new_itemno, i32* %new_itemno.addr, align 4
  store i32 %thread, i32* %thread.addr, align 4
  %this1 = load %class.FP_tree*, %class.FP_tree** %this.addr, align 8
  %0 = load %class.memory**, %class.memory*** @fp_buf, align 8
  %1 = load i32, i32* %thread.addr, align 4
  %idxprom = sext i32 %1 to i64
  %arrayidx = getelementptr inbounds %class.memory*, %class.memory** %0, i64 %idxprom
  %2 = load %class.memory*, %class.memory** %arrayidx, align 8
  %call = call i8* @_ZN6memory6newbufEjj(%class.memory* %2, i32 1, i32 24)
  %3 = bitcast i8* %call to %class.Fnode*
  %Root = getelementptr inbounds %class.FP_tree, %class.FP_tree* %this1, i32 0, i32 4
  store %class.Fnode* %3, %class.Fnode** %Root, align 8
  %Root2 = getelementptr inbounds %class.FP_tree, %class.FP_tree* %this1, i32 0, i32 4
  %4 = load %class.Fnode*, %class.Fnode** %Root2, align 8
  call void @_ZN5Fnode4initEii(%class.Fnode* %4, i32 -1, i32 0)
  %5 = load i32, i32* %old_itemno.addr, align 4
  %cmp = icmp ne i32 %5, -1
  br i1 %cmp, label %if.then, label %if.end

if.then:                                          ; preds = %entry
  %6 = load %class.memory**, %class.memory*** @fp_buf, align 8
  %7 = load i32, i32* %thread.addr, align 4
  %idxprom3 = sext i32 %7 to i64
  %arrayidx4 = getelementptr inbounds %class.memory*, %class.memory** %6, i64 %idxprom3
  %8 = load %class.memory*, %class.memory** %arrayidx4, align 8
  %9 = load i32, i32* %new_itemno.addr, align 4
  %mul = mul nsw i32 %9, 2
  %conv = sext i32 %mul to i64
  %mul5 = mul i64 %conv, 4
  %conv6 = trunc i64 %mul5 to i32
  %call7 = call i8* @_ZN6memory6newbufEjj(%class.memory* %8, i32 1, i32 %conv6)
  %10 = bitcast i8* %call7 to i32*
  %count = getelementptr inbounds %class.FP_tree, %class.FP_tree* %this1, i32 0, i32 5
  store i32* %10, i32** %count, align 8
  %count8 = getelementptr inbounds %class.FP_tree, %class.FP_tree* %this1, i32 0, i32 5
  %11 = load i32*, i32** %count8, align 8
  %12 = load i32, i32* %new_itemno.addr, align 4
  %idx.ext = sext i32 %12 to i64
  %add.ptr = getelementptr inbounds i32, i32* %11, i64 %idx.ext
  %table = getelementptr inbounds %class.FP_tree, %class.FP_tree* %this1, i32 0, i32 3
  store i32* %add.ptr, i32** %table, align 8
  store i32 0, i32* %i, align 4
  br label %for.cond

for.cond:                                         ; preds = %for.inc, %if.then
  %13 = load i32, i32* %i, align 4
  %14 = load i32, i32* %new_itemno.addr, align 4
  %cmp9 = icmp slt i32 %13, %14
  br i1 %cmp9, label %for.body, label %for.end

for.body:                                         ; preds = %for.cond
  %count10 = getelementptr inbounds %class.FP_tree, %class.FP_tree* %this1, i32 0, i32 5
  %15 = load i32*, i32** %count10, align 8
  %16 = load i32, i32* %i, align 4
  %idxprom11 = sext i32 %16 to i64
  %arrayidx12 = getelementptr inbounds i32, i32* %15, i64 %idxprom11
  store i32 0, i32* %arrayidx12, align 4
  %17 = load i32, i32* %i, align 4
  %table13 = getelementptr inbounds %class.FP_tree, %class.FP_tree* %this1, i32 0, i32 3
  %18 = load i32*, i32** %table13, align 8
  %19 = load i32, i32* %i, align 4
  %idxprom14 = sext i32 %19 to i64
  %arrayidx15 = getelementptr inbounds i32, i32* %18, i64 %idxprom14
  store i32 %17, i32* %arrayidx15, align 4
  br label %for.inc

for.inc:                                          ; preds = %for.body
  %20 = load i32, i32* %i, align 4
  %inc = add nsw i32 %20, 1
  store i32 %inc, i32* %i, align 4
  br label %for.cond

for.end:                                          ; preds = %for.cond
  %21 = load i32**, i32*** @new_data_num, align 8
  %22 = load i32, i32* %thread.addr, align 4
  %idxprom16 = sext i32 %22 to i64
  %arrayidx17 = getelementptr inbounds i32*, i32** %21, i64 %idxprom16
  %23 = load i32*, i32** %arrayidx17, align 8
  %arrayidx18 = getelementptr inbounds i32, i32* %23, i64 0
  store i32 0, i32* %arrayidx18, align 4
  br label %if.end

if.end:                                           ; preds = %for.end, %entry
  %24 = load i32, i32* %new_itemno.addr, align 4
  %itemno = getelementptr inbounds %class.FP_tree, %class.FP_tree* %this1, i32 0, i32 0
  store i32 %24, i32* %itemno, align 8
  ret void
}

declare i8* @_ZN6memory6newbufEjj(%class.memory*, i32, i32) #5

declare void @_ZN5Fnode4initEii(%class.Fnode*, i32, i32) #5

; Function Attrs: noinline uwtable
define void @_ZN7FP_tree15database_tilingEi(%class.FP_tree* %this, i32 %workingthread) #1 align 2 {
entry:
  %this.addr = alloca %class.FP_tree*, align 8
  %workingthread.addr = alloca i32, align 4
  %i = alloca i32, align 4
  %thread_pos = alloca i32*, align 8
  %local_num_hot_item = alloca i32, align 4
  %local_itemno = alloca i32, align 4
  %j = alloca i32, align 4
  %k = alloca i32, align 4
  %l = alloca i32, align 4
  %content = alloca i32*, align 8
  %currentnode = alloca %class.MapFileNode*, align 8
  %newnode = alloca %class.MapFileNode*, align 8
  %size = alloca i32, align 4
  %newcontent = alloca i16*, align 8
  %currentpos = alloca i32, align 4
  %thread = alloca i32, align 4
  %local_origin = alloca i32*, align 8
  %local_ntype = alloca i32*, align 8
  %ntype = alloca i32, align 4
  %item = alloca i32, align 4
  %has = alloca i32, align 4
  %local_hot_node_count = alloca i32*, align 8
  %max_item = alloca i32, align 4
  %min_item = alloca i32, align 4
  %j180 = alloca i32, align 4
  %sumworkload = alloca i32, align 4
  %averworkload = alloca i32, align 4
  %tempntypeoffsetbase = alloca i32*, align 8
  %tempworkload = alloca i32, align 4
  %j202 = alloca i32, align 4
  %num_hot_node = alloca i32, align 4
  %j235 = alloca i32, align 4
  %step = alloca i32, align 4
  %parent = alloca i32, align 4
  %local_hashtable = alloca %class.Fnode**, align 8
  %local_hot_node_count237 = alloca i32*, align 8
  %current_node = alloca %class.Fnode*, align 8
  %current_mapfilenode = alloca %class.MapFileNode*, align 8
  %content381 = alloca i16*, align 8
  %k382 = alloca i32, align 4
  %size383 = alloca i32, align 4
  %current_pos = alloca i32, align 4
  %ntype384 = alloca i32, align 4
  %has385 = alloca i32, align 4
  %new_content = alloca i16*, align 8
  %local_threadntypeoffsetiter = alloca i32*, align 8
  store %class.FP_tree* %this, %class.FP_tree** %this.addr, align 8
  store i32 %workingthread, i32* %workingthread.addr, align 4
  %this1 = load %class.FP_tree*, %class.FP_tree** %this.addr, align 8
  %0 = load i32, i32* %workingthread.addr, align 4
  %1 = sext i32 %0 to i64
  %2 = call { i64, i1 } @llvm.umul.with.overflow.i64(i64 %1, i64 4)
  %3 = extractvalue { i64, i1 } %2, 1
  %4 = extractvalue { i64, i1 } %2, 0
  %5 = select i1 %3, i64 -1, i64 %4
  %call = call i8* @_Znam(i64 %5) #8
  %6 = bitcast i8* %call to i32*
  store i32* %6, i32** %thread_pos, align 8
  %num_hot_item = getelementptr inbounds %class.FP_tree, %class.FP_tree* %this1, i32 0, i32 15
  %7 = load i32, i32* %num_hot_item, align 8
  store i32 %7, i32* %local_num_hot_item, align 4
  %itemno = getelementptr inbounds %class.FP_tree, %class.FP_tree* %this1, i32 0, i32 0
  %8 = load i32, i32* %itemno, align 8
  store i32 %8, i32* %local_itemno, align 4
  store i32 0, i32* %i, align 4
  br label %for.cond

for.cond:                                         ; preds = %for.inc19, %entry
  %9 = load i32, i32* %i, align 4
  %10 = load i32, i32* %workingthread.addr, align 4
  %cmp = icmp slt i32 %9, %10
  br i1 %cmp, label %for.body, label %for.end21

for.body:                                         ; preds = %for.cond
  %11 = load i32*, i32** %thread_pos, align 8
  %12 = load i32, i32* %i, align 4
  %idxprom = sext i32 %12 to i64
  %arrayidx = getelementptr inbounds i32, i32* %11, i64 %idxprom
  store i32 0, i32* %arrayidx, align 4
  store i32 0, i32* %j, align 4
  br label %for.cond2

for.cond2:                                        ; preds = %for.inc, %for.body
  %13 = load i32, i32* %j, align 4
  %cmp3 = icmp slt i32 %13, 65536
  br i1 %cmp3, label %for.body4, label %for.end

for.body4:                                        ; preds = %for.cond2
  %14 = load i32**, i32*** @ntypearray, align 8
  %15 = load i32, i32* %i, align 4
  %idxprom5 = sext i32 %15 to i64
  %arrayidx6 = getelementptr inbounds i32*, i32** %14, i64 %idxprom5
  %16 = load i32*, i32** %arrayidx6, align 8
  %17 = load i32, i32* %j, align 4
  %idxprom7 = sext i32 %17 to i64
  %arrayidx8 = getelementptr inbounds i32, i32* %16, i64 %idxprom7
  store i32 0, i32* %arrayidx8, align 4
  br label %for.inc

for.inc:                                          ; preds = %for.body4
  %18 = load i32, i32* %j, align 4
  %inc = add nsw i32 %18, 1
  store i32 %inc, i32* %j, align 4
  br label %for.cond2

for.end:                                          ; preds = %for.cond2
  %19 = load i32, i32* %local_num_hot_item, align 4
  store i32 %19, i32* %j, align 4
  br label %for.cond9

for.cond9:                                        ; preds = %for.inc16, %for.end
  %20 = load i32, i32* %j, align 4
  %21 = load i32, i32* %local_itemno, align 4
  %cmp10 = icmp slt i32 %20, %21
  br i1 %cmp10, label %for.body11, label %for.end18

for.body11:                                       ; preds = %for.cond9
  %22 = load i32**, i32*** @origin, align 8
  %23 = load i32, i32* %i, align 4
  %idxprom12 = sext i32 %23 to i64
  %arrayidx13 = getelementptr inbounds i32*, i32** %22, i64 %idxprom12
  %24 = load i32*, i32** %arrayidx13, align 8
  %25 = load i32, i32* %j, align 4
  %idxprom14 = sext i32 %25 to i64
  %arrayidx15 = getelementptr inbounds i32, i32* %24, i64 %idxprom14
  store i32 1, i32* %arrayidx15, align 4
  br label %for.inc16

for.inc16:                                        ; preds = %for.body11
  %26 = load i32, i32* %j, align 4
  %inc17 = add nsw i32 %26, 1
  store i32 %inc17, i32* %j, align 4
  br label %for.cond9

for.end18:                                        ; preds = %for.cond9
  br label %for.inc19

for.inc19:                                        ; preds = %for.end18
  %27 = load i32, i32* %i, align 4
  %inc20 = add nsw i32 %27, 1
  store i32 %inc20, i32* %i, align 4
  br label %for.cond

for.end21:                                        ; preds = %for.cond
  store i32 0, i32* %i, align 4
  br label %for.cond22

for.cond22:                                       ; preds = %for.inc172, %for.end21
  %28 = load i32, i32* %i, align 4
  %29 = load %class.MapFile*, %class.MapFile** @mapfile, align 8
  %tablesize = getelementptr inbounds %class.MapFile, %class.MapFile* %29, i32 0, i32 7
  %30 = load i32, i32* %tablesize, align 8
  %cmp23 = icmp slt i32 %28, %30
  br i1 %cmp23, label %for.body24, label %for.end174

for.body24:                                       ; preds = %for.cond22
  %call25 = call i32 @_ZL18omp_get_thread_numv()
  store i32 %call25, i32* %thread, align 4
  %31 = load i32**, i32*** @origin, align 8
  %32 = load i32, i32* %thread, align 4
  %idxprom26 = sext i32 %32 to i64
  %arrayidx27 = getelementptr inbounds i32*, i32** %31, i64 %idxprom26
  %33 = load i32*, i32** %arrayidx27, align 8
  store i32* %33, i32** %local_origin, align 8
  %34 = load i32**, i32*** @ntypearray, align 8
  %35 = load i32, i32* %thread, align 4
  %idxprom28 = sext i32 %35 to i64
  %arrayidx29 = getelementptr inbounds i32*, i32** %34, i64 %idxprom28
  %36 = load i32*, i32** %arrayidx29, align 8
  store i32* %36, i32** %local_ntype, align 8
  %37 = load i32**, i32*** @hot_node_count, align 8
  %38 = load i32, i32* %thread, align 4
  %idxprom30 = sext i32 %38 to i64
  %arrayidx31 = getelementptr inbounds i32*, i32** %37, i64 %idxprom30
  %39 = load i32*, i32** %arrayidx31, align 8
  store i32* %39, i32** %local_hot_node_count, align 8
  %40 = load %class.MapFile**, %class.MapFile*** @thread_mapfile, align 8
  %41 = load i32, i32* %thread, align 4
  %idxprom32 = sext i32 %41 to i64
  %arrayidx33 = getelementptr inbounds %class.MapFile*, %class.MapFile** %40, i64 %idxprom32
  %42 = load %class.MapFile*, %class.MapFile** %arrayidx33, align 8
  %first = getelementptr inbounds %class.MapFile, %class.MapFile* %42, i32 0, i32 0
  %43 = load %class.MapFileNode*, %class.MapFileNode** %first, align 8
  store %class.MapFileNode* %43, %class.MapFileNode** %newnode, align 8
  %44 = load %class.MapFileNode*, %class.MapFileNode** %newnode, align 8
  %size34 = getelementptr inbounds %class.MapFileNode, %class.MapFileNode* %44, i32 0, i32 1
  %45 = load i32, i32* %size34, align 8
  store i32 %45, i32* %size, align 4
  %46 = load %class.MapFileNode*, %class.MapFileNode** %newnode, align 8
  %TransactionContent = getelementptr inbounds %class.MapFileNode, %class.MapFileNode* %46, i32 0, i32 0
  %47 = load i32*, i32** %TransactionContent, align 8
  %48 = bitcast i32* %47 to i16*
  store i16* %48, i16** %newcontent, align 8
  %49 = load i32*, i32** %thread_pos, align 8
  %50 = load i32, i32* %thread, align 4
  %idxprom35 = sext i32 %50 to i64
  %arrayidx36 = getelementptr inbounds i32, i32* %49, i64 %idxprom35
  %51 = load i32, i32* %arrayidx36, align 4
  store i32 %51, i32* %currentpos, align 4
  store i32 0, i32* %max_item, align 4
  %52 = load i32, i32* %local_itemno, align 4
  store i32 %52, i32* %min_item, align 4
  %53 = load %class.MapFile*, %class.MapFile** @mapfile, align 8
  %table = getelementptr inbounds %class.MapFile, %class.MapFile* %53, i32 0, i32 1
  %54 = load %class.MapFileNode**, %class.MapFileNode*** %table, align 8
  %55 = load i32, i32* %i, align 4
  %idxprom37 = sext i32 %55 to i64
  %arrayidx38 = getelementptr inbounds %class.MapFileNode*, %class.MapFileNode** %54, i64 %idxprom37
  %56 = load %class.MapFileNode*, %class.MapFileNode** %arrayidx38, align 8
  store %class.MapFileNode* %56, %class.MapFileNode** %currentnode, align 8
  store i32 0, i32* %ntype, align 4
  %57 = load %class.MapFileNode*, %class.MapFileNode** %currentnode, align 8
  %TransactionContent39 = getelementptr inbounds %class.MapFileNode, %class.MapFileNode* %57, i32 0, i32 0
  %58 = load i32*, i32** %TransactionContent39, align 8
  store i32* %58, i32** %content, align 8
  store i32 0, i32* %has, align 4
  %59 = load %class.MapFileNode*, %class.MapFileNode** %currentnode, align 8
  %top = getelementptr inbounds %class.MapFileNode, %class.MapFileNode* %59, i32 0, i32 2
  %60 = load i32, i32* %top, align 4
  %sub = sub nsw i32 %60, 1
  store i32 %sub, i32* %k, align 4
  br label %for.cond40

for.cond40:                                       ; preds = %for.inc114, %for.body24
  %61 = load i32, i32* %k, align 4
  %cmp41 = icmp sge i32 %61, 0
  br i1 %cmp41, label %for.body42, label %for.end115

for.body42:                                       ; preds = %for.cond40
  %62 = load i32*, i32** %content, align 8
  %63 = load i32, i32* %k, align 4
  %idxprom43 = sext i32 %63 to i64
  %arrayidx44 = getelementptr inbounds i32, i32* %62, i64 %idxprom43
  %64 = load i32, i32* %arrayidx44, align 4
  %cmp45 = icmp eq i32 %64, -1
  br i1 %cmp45, label %if.then, label %if.else

if.then:                                          ; preds = %for.body42
  %65 = load i32, i32* %ntype, align 4
  %and = and i32 %65, 65535
  store i32 %and, i32* %ntype, align 4
  %66 = load i32, i32* %has, align 4
  %cmp46 = icmp sgt i32 %66, 0
  br i1 %cmp46, label %if.then47, label %if.end90

if.then47:                                        ; preds = %if.then
  %67 = load i32, i32* %size, align 4
  %68 = load i32, i32* %currentpos, align 4
  %sub48 = sub nsw i32 %67, %68
  %69 = load i32, i32* %has, align 4
  %add = add nsw i32 %69, 1
  %cmp49 = icmp slt i32 %sub48, %add
  br i1 %cmp49, label %if.then50, label %if.end

if.then50:                                        ; preds = %if.then47
  %70 = load i32, i32* %currentpos, align 4
  %71 = load %class.MapFileNode*, %class.MapFileNode** %newnode, align 8
  %top51 = getelementptr inbounds %class.MapFileNode, %class.MapFileNode* %71, i32 0, i32 2
  store i32 %70, i32* %top51, align 4
  %72 = load %class.memory**, %class.memory*** @fp_tree_buf, align 8
  %73 = load i32, i32* %thread, align 4
  %idxprom52 = sext i32 %73 to i64
  %arrayidx53 = getelementptr inbounds %class.memory*, %class.memory** %72, i64 %idxprom52
  %74 = load %class.memory*, %class.memory** %arrayidx53, align 8
  %call54 = call i8* @_ZN6memory6newbufEjj(%class.memory* %74, i32 1, i32 40)
  %75 = bitcast i8* %call54 to %class.MapFileNode*
  store %class.MapFileNode* %75, %class.MapFileNode** %newnode, align 8
  %76 = load %class.MapFileNode*, %class.MapFileNode** %newnode, align 8
  call void @_ZN11MapFileNode4initEii(%class.MapFileNode* %76, i32 5000000, i32 2)
  %77 = load %class.MapFile**, %class.MapFile*** @thread_mapfile, align 8
  %78 = load i32, i32* %thread, align 4
  %idxprom55 = sext i32 %78 to i64
  %arrayidx56 = getelementptr inbounds %class.MapFile*, %class.MapFile** %77, i64 %idxprom55
  %79 = load %class.MapFile*, %class.MapFile** %arrayidx56, align 8
  %first57 = getelementptr inbounds %class.MapFile, %class.MapFile* %79, i32 0, i32 0
  %80 = load %class.MapFileNode*, %class.MapFileNode** %first57, align 8
  %81 = load %class.MapFileNode*, %class.MapFileNode** %newnode, align 8
  %next = getelementptr inbounds %class.MapFileNode, %class.MapFileNode* %81, i32 0, i32 6
  store %class.MapFileNode* %80, %class.MapFileNode** %next, align 8
  %82 = load %class.MapFileNode*, %class.MapFileNode** %newnode, align 8
  %83 = load %class.MapFile**, %class.MapFile*** @thread_mapfile, align 8
  %84 = load i32, i32* %thread, align 4
  %idxprom58 = sext i32 %84 to i64
  %arrayidx59 = getelementptr inbounds %class.MapFile*, %class.MapFile** %83, i64 %idxprom58
  %85 = load %class.MapFile*, %class.MapFile** %arrayidx59, align 8
  %first60 = getelementptr inbounds %class.MapFile, %class.MapFile* %85, i32 0, i32 0
  store %class.MapFileNode* %82, %class.MapFileNode** %first60, align 8
  %86 = load %class.MapFileNode*, %class.MapFileNode** %newnode, align 8
  %TransactionContent61 = getelementptr inbounds %class.MapFileNode, %class.MapFileNode* %86, i32 0, i32 0
  %87 = load i32*, i32** %TransactionContent61, align 8
  %88 = bitcast i32* %87 to i16*
  store i16* %88, i16** %newcontent, align 8
  store i32 0, i32* %currentpos, align 4
  br label %if.end

if.end:                                           ; preds = %if.then50, %if.then47
  %89 = load i32, i32* %ntype, align 4
  %conv = trunc i32 %89 to i16
  %90 = load i16*, i16** %newcontent, align 8
  %91 = load i32, i32* %currentpos, align 4
  %inc62 = add nsw i32 %91, 1
  store i32 %inc62, i32* %currentpos, align 4
  %idxprom63 = sext i32 %91 to i64
  %arrayidx64 = getelementptr inbounds i16, i16* %90, i64 %idxprom63
  store i16 %conv, i16* %arrayidx64, align 2
  %92 = load i32, i32* %has, align 4
  %conv65 = trunc i32 %92 to i16
  %93 = load i16*, i16** %newcontent, align 8
  %94 = load i32, i32* %currentpos, align 4
  %inc66 = add nsw i32 %94, 1
  store i32 %inc66, i32* %currentpos, align 4
  %idxprom67 = sext i32 %94 to i64
  %arrayidx68 = getelementptr inbounds i16, i16* %93, i64 %idxprom67
  store i16 %conv65, i16* %arrayidx68, align 2
  %95 = load i32, i32* %has, align 4
  %add69 = add nsw i32 %95, 1
  %96 = load i32*, i32** %local_ntype, align 8
  %97 = load i32, i32* %ntype, align 4
  %idxprom70 = sext i32 %97 to i64
  %arrayidx71 = getelementptr inbounds i32, i32* %96, i64 %idxprom70
  %98 = load i32, i32* %arrayidx71, align 4
  %add72 = add nsw i32 %98, %add69
  store i32 %add72, i32* %arrayidx71, align 4
  %99 = load i32, i32* %min_item, align 4
  store i32 %99, i32* %l, align 4
  br label %for.cond73

for.cond73:                                       ; preds = %for.inc87, %if.end
  %100 = load i32, i32* %l, align 4
  %101 = load i32, i32* %max_item, align 4
  %cmp74 = icmp sle i32 %100, %101
  br i1 %cmp74, label %for.body75, label %for.end89

for.body75:                                       ; preds = %for.cond73
  %102 = load i32*, i32** %local_origin, align 8
  %103 = load i32, i32* %l, align 4
  %idxprom76 = sext i32 %103 to i64
  %arrayidx77 = getelementptr inbounds i32, i32* %102, i64 %idxprom76
  %104 = load i32, i32* %arrayidx77, align 4
  %cmp78 = icmp ne i32 %104, 1
  br i1 %cmp78, label %if.then79, label %if.end86

if.then79:                                        ; preds = %for.body75
  %105 = load i32, i32* %l, align 4
  %conv80 = trunc i32 %105 to i16
  %106 = load i16*, i16** %newcontent, align 8
  %107 = load i32, i32* %currentpos, align 4
  %inc81 = add nsw i32 %107, 1
  store i32 %inc81, i32* %currentpos, align 4
  %idxprom82 = sext i32 %107 to i64
  %arrayidx83 = getelementptr inbounds i16, i16* %106, i64 %idxprom82
  store i16 %conv80, i16* %arrayidx83, align 2
  %108 = load i32*, i32** %local_origin, align 8
  %109 = load i32, i32* %l, align 4
  %idxprom84 = sext i32 %109 to i64
  %arrayidx85 = getelementptr inbounds i32, i32* %108, i64 %idxprom84
  store i32 1, i32* %arrayidx85, align 4
  br label %if.end86

if.end86:                                         ; preds = %if.then79, %for.body75
  br label %for.inc87

for.inc87:                                        ; preds = %if.end86
  %110 = load i32, i32* %l, align 4
  %inc88 = add nsw i32 %110, 1
  store i32 %inc88, i32* %l, align 4
  br label %for.cond73

for.end89:                                        ; preds = %for.cond73
  store i32 0, i32* %has, align 4
  store i32 0, i32* %max_item, align 4
  %111 = load i32, i32* %local_itemno, align 4
  store i32 %111, i32* %min_item, align 4
  br label %if.end90

if.end90:                                         ; preds = %for.end89, %if.then
  %112 = load i32*, i32** %local_hot_node_count, align 8
  %113 = load i32, i32* %ntype, align 4
  %idxprom91 = sext i32 %113 to i64
  %arrayidx92 = getelementptr inbounds i32, i32* %112, i64 %idxprom91
  %114 = load i32, i32* %arrayidx92, align 4
  %inc93 = add nsw i32 %114, 1
  store i32 %inc93, i32* %arrayidx92, align 4
  store i32 0, i32* %ntype, align 4
  br label %if.end113

if.else:                                          ; preds = %for.body42
  %115 = load i32*, i32** @item_order, align 8
  %116 = load i32*, i32** %content, align 8
  %117 = load i32, i32* %k, align 4
  %idxprom94 = sext i32 %117 to i64
  %arrayidx95 = getelementptr inbounds i32, i32* %116, i64 %idxprom94
  %118 = load i32, i32* %arrayidx95, align 4
  %idxprom96 = sext i32 %118 to i64
  %arrayidx97 = getelementptr inbounds i32, i32* %115, i64 %idxprom96
  %119 = load i32, i32* %arrayidx97, align 4
  store i32 %119, i32* %item, align 4
  %120 = load i32, i32* %item, align 4
  %121 = load i32, i32* %local_num_hot_item, align 4
  %cmp98 = icmp slt i32 %120, %121
  br i1 %cmp98, label %if.then99, label %if.else100

if.then99:                                        ; preds = %if.else
  %122 = load i32, i32* %item, align 4
  %shl = shl i32 1, %122
  %123 = load i32, i32* %ntype, align 4
  %or = or i32 %123, %shl
  store i32 %or, i32* %ntype, align 4
  br label %if.end112

if.else100:                                       ; preds = %if.else
  %124 = load i32*, i32** %local_origin, align 8
  %125 = load i32, i32* %item, align 4
  %idxprom101 = sext i32 %125 to i64
  %arrayidx102 = getelementptr inbounds i32, i32* %124, i64 %idxprom101
  %126 = load i32, i32* %arrayidx102, align 4
  %127 = load i32, i32* %has, align 4
  %add103 = add nsw i32 %127, %126
  store i32 %add103, i32* %has, align 4
  %128 = load i32*, i32** %local_origin, align 8
  %129 = load i32, i32* %item, align 4
  %idxprom104 = sext i32 %129 to i64
  %arrayidx105 = getelementptr inbounds i32, i32* %128, i64 %idxprom104
  store i32 0, i32* %arrayidx105, align 4
  %130 = load i32, i32* %item, align 4
  %131 = load i32, i32* %max_item, align 4
  %cmp106 = icmp sgt i32 %130, %131
  br i1 %cmp106, label %if.then107, label %if.end108

if.then107:                                       ; preds = %if.else100
  %132 = load i32, i32* %item, align 4
  store i32 %132, i32* %max_item, align 4
  br label %if.end108

if.end108:                                        ; preds = %if.then107, %if.else100
  %133 = load i32, i32* %item, align 4
  %134 = load i32, i32* %min_item, align 4
  %cmp109 = icmp slt i32 %133, %134
  br i1 %cmp109, label %if.then110, label %if.end111

if.then110:                                       ; preds = %if.end108
  %135 = load i32, i32* %item, align 4
  store i32 %135, i32* %min_item, align 4
  br label %if.end111

if.end111:                                        ; preds = %if.then110, %if.end108
  br label %if.end112

if.end112:                                        ; preds = %if.end111, %if.then99
  br label %if.end113

if.end113:                                        ; preds = %if.end112, %if.end90
  br label %for.inc114

for.inc114:                                       ; preds = %if.end113
  %136 = load i32, i32* %k, align 4
  %dec = add nsw i32 %136, -1
  store i32 %dec, i32* %k, align 4
  br label %for.cond40

for.end115:                                       ; preds = %for.cond40
  %137 = load i32, i32* %ntype, align 4
  %and116 = and i32 %137, 65535
  store i32 %and116, i32* %ntype, align 4
  %138 = load i32, i32* %has, align 4
  %cmp117 = icmp sgt i32 %138, 0
  br i1 %cmp117, label %if.then118, label %if.end165

if.then118:                                       ; preds = %for.end115
  %139 = load i32, i32* %size, align 4
  %140 = load i32, i32* %currentpos, align 4
  %sub119 = sub nsw i32 %139, %140
  %141 = load i32, i32* %has, align 4
  %add120 = add nsw i32 %141, 1
  %cmp121 = icmp slt i32 %sub119, %add120
  br i1 %cmp121, label %if.then122, label %if.end135

if.then122:                                       ; preds = %if.then118
  %142 = load i32, i32* %currentpos, align 4
  %143 = load %class.MapFileNode*, %class.MapFileNode** %newnode, align 8
  %top123 = getelementptr inbounds %class.MapFileNode, %class.MapFileNode* %143, i32 0, i32 2
  store i32 %142, i32* %top123, align 4
  %144 = load %class.memory**, %class.memory*** @fp_tree_buf, align 8
  %145 = load i32, i32* %i, align 4
  %idxprom124 = sext i32 %145 to i64
  %arrayidx125 = getelementptr inbounds %class.memory*, %class.memory** %144, i64 %idxprom124
  %146 = load %class.memory*, %class.memory** %arrayidx125, align 8
  %call126 = call i8* @_ZN6memory6newbufEjj(%class.memory* %146, i32 1, i32 40)
  %147 = bitcast i8* %call126 to %class.MapFileNode*
  store %class.MapFileNode* %147, %class.MapFileNode** %newnode, align 8
  %148 = load %class.MapFileNode*, %class.MapFileNode** %newnode, align 8
  call void @_ZN11MapFileNode4initEii(%class.MapFileNode* %148, i32 5000000, i32 2)
  %149 = load %class.MapFile**, %class.MapFile*** @thread_mapfile, align 8
  %150 = load i32, i32* %i, align 4
  %idxprom127 = sext i32 %150 to i64
  %arrayidx128 = getelementptr inbounds %class.MapFile*, %class.MapFile** %149, i64 %idxprom127
  %151 = load %class.MapFile*, %class.MapFile** %arrayidx128, align 8
  %first129 = getelementptr inbounds %class.MapFile, %class.MapFile* %151, i32 0, i32 0
  %152 = load %class.MapFileNode*, %class.MapFileNode** %first129, align 8
  %153 = load %class.MapFileNode*, %class.MapFileNode** %newnode, align 8
  %next130 = getelementptr inbounds %class.MapFileNode, %class.MapFileNode* %153, i32 0, i32 6
  store %class.MapFileNode* %152, %class.MapFileNode** %next130, align 8
  %154 = load %class.MapFileNode*, %class.MapFileNode** %newnode, align 8
  %155 = load %class.MapFile**, %class.MapFile*** @thread_mapfile, align 8
  %156 = load i32, i32* %i, align 4
  %idxprom131 = sext i32 %156 to i64
  %arrayidx132 = getelementptr inbounds %class.MapFile*, %class.MapFile** %155, i64 %idxprom131
  %157 = load %class.MapFile*, %class.MapFile** %arrayidx132, align 8
  %first133 = getelementptr inbounds %class.MapFile, %class.MapFile* %157, i32 0, i32 0
  store %class.MapFileNode* %154, %class.MapFileNode** %first133, align 8
  %158 = load %class.MapFileNode*, %class.MapFileNode** %newnode, align 8
  %TransactionContent134 = getelementptr inbounds %class.MapFileNode, %class.MapFileNode* %158, i32 0, i32 0
  %159 = load i32*, i32** %TransactionContent134, align 8
  %160 = bitcast i32* %159 to i16*
  store i16* %160, i16** %newcontent, align 8
  store i32 0, i32* %currentpos, align 4
  br label %if.end135

if.end135:                                        ; preds = %if.then122, %if.then118
  %161 = load i32, i32* %ntype, align 4
  %conv136 = trunc i32 %161 to i16
  %162 = load i16*, i16** %newcontent, align 8
  %163 = load i32, i32* %currentpos, align 4
  %inc137 = add nsw i32 %163, 1
  store i32 %inc137, i32* %currentpos, align 4
  %idxprom138 = sext i32 %163 to i64
  %arrayidx139 = getelementptr inbounds i16, i16* %162, i64 %idxprom138
  store i16 %conv136, i16* %arrayidx139, align 2
  %164 = load i32, i32* %has, align 4
  %conv140 = trunc i32 %164 to i16
  %165 = load i16*, i16** %newcontent, align 8
  %166 = load i32, i32* %currentpos, align 4
  %inc141 = add nsw i32 %166, 1
  store i32 %inc141, i32* %currentpos, align 4
  %idxprom142 = sext i32 %166 to i64
  %arrayidx143 = getelementptr inbounds i16, i16* %165, i64 %idxprom142
  store i16 %conv140, i16* %arrayidx143, align 2
  %167 = load i32, i32* %has, align 4
  %add144 = add nsw i32 %167, 1
  %168 = load i32*, i32** %local_ntype, align 8
  %169 = load i32, i32* %ntype, align 4
  %idxprom145 = sext i32 %169 to i64
  %arrayidx146 = getelementptr inbounds i32, i32* %168, i64 %idxprom145
  %170 = load i32, i32* %arrayidx146, align 4
  %add147 = add nsw i32 %170, %add144
  store i32 %add147, i32* %arrayidx146, align 4
  %171 = load i32, i32* %min_item, align 4
  store i32 %171, i32* %l, align 4
  br label %for.cond148

for.cond148:                                      ; preds = %for.inc162, %if.end135
  %172 = load i32, i32* %l, align 4
  %173 = load i32, i32* %max_item, align 4
  %cmp149 = icmp sle i32 %172, %173
  br i1 %cmp149, label %for.body150, label %for.end164

for.body150:                                      ; preds = %for.cond148
  %174 = load i32*, i32** %local_origin, align 8
  %175 = load i32, i32* %l, align 4
  %idxprom151 = sext i32 %175 to i64
  %arrayidx152 = getelementptr inbounds i32, i32* %174, i64 %idxprom151
  %176 = load i32, i32* %arrayidx152, align 4
  %cmp153 = icmp ne i32 %176, 1
  br i1 %cmp153, label %if.then154, label %if.end161

if.then154:                                       ; preds = %for.body150
  %177 = load i32, i32* %l, align 4
  %conv155 = trunc i32 %177 to i16
  %178 = load i16*, i16** %newcontent, align 8
  %179 = load i32, i32* %currentpos, align 4
  %inc156 = add nsw i32 %179, 1
  store i32 %inc156, i32* %currentpos, align 4
  %idxprom157 = sext i32 %179 to i64
  %arrayidx158 = getelementptr inbounds i16, i16* %178, i64 %idxprom157
  store i16 %conv155, i16* %arrayidx158, align 2
  %180 = load i32*, i32** %local_origin, align 8
  %181 = load i32, i32* %l, align 4
  %idxprom159 = sext i32 %181 to i64
  %arrayidx160 = getelementptr inbounds i32, i32* %180, i64 %idxprom159
  store i32 1, i32* %arrayidx160, align 4
  br label %if.end161

if.end161:                                        ; preds = %if.then154, %for.body150
  br label %for.inc162

for.inc162:                                       ; preds = %if.end161
  %182 = load i32, i32* %l, align 4
  %inc163 = add nsw i32 %182, 1
  store i32 %inc163, i32* %l, align 4
  br label %for.cond148

for.end164:                                       ; preds = %for.cond148
  br label %if.end165

if.end165:                                        ; preds = %for.end164, %for.end115
  %183 = load i32*, i32** %local_hot_node_count, align 8
  %184 = load i32, i32* %ntype, align 4
  %idxprom166 = sext i32 %184 to i64
  %arrayidx167 = getelementptr inbounds i32, i32* %183, i64 %idxprom166
  %185 = load i32, i32* %arrayidx167, align 4
  %inc168 = add nsw i32 %185, 1
  store i32 %inc168, i32* %arrayidx167, align 4
  %186 = load i32, i32* %currentpos, align 4
  %187 = load %class.MapFileNode*, %class.MapFileNode** %newnode, align 8
  %top169 = getelementptr inbounds %class.MapFileNode, %class.MapFileNode* %187, i32 0, i32 2
  store i32 %186, i32* %top169, align 4
  %188 = load %class.MapFileNode*, %class.MapFileNode** %currentnode, align 8
  call void @_ZN11MapFileNode8finalizeEv(%class.MapFileNode* %188)
  %189 = load i32, i32* %currentpos, align 4
  %190 = load i32*, i32** %thread_pos, align 8
  %191 = load i32, i32* %thread, align 4
  %idxprom170 = sext i32 %191 to i64
  %arrayidx171 = getelementptr inbounds i32, i32* %190, i64 %idxprom170
  store i32 %189, i32* %arrayidx171, align 4
  br label %for.inc172

for.inc172:                                       ; preds = %if.end165
  %192 = load i32, i32* %i, align 4
  %inc173 = add nsw i32 %192, 1
  store i32 %inc173, i32* %i, align 4
  br label %for.cond22

for.end174:                                       ; preds = %for.cond22
  store i32 0, i32* %i, align 4
  br label %for.cond175

for.cond175:                                      ; preds = %for.inc191, %for.end174
  %193 = load i32, i32* %i, align 4
  %194 = load i32, i32* %workingthread.addr, align 4
  %cmp176 = icmp slt i32 %193, %194
  br i1 %cmp176, label %for.body177, label %for.end193

for.body177:                                      ; preds = %for.cond175
  %195 = load i32*, i32** %thread_pos, align 8
  %196 = load i32, i32* %i, align 4
  %idxprom178 = sext i32 %196 to i64
  %arrayidx179 = getelementptr inbounds i32, i32* %195, i64 %idxprom178
  store i32 0, i32* %arrayidx179, align 4
  %197 = load i32, i32* %local_num_hot_item, align 4
  store i32 %197, i32* %j180, align 4
  br label %for.cond181

for.cond181:                                      ; preds = %for.inc188, %for.body177
  %198 = load i32, i32* %j180, align 4
  %199 = load i32, i32* %local_itemno, align 4
  %cmp182 = icmp slt i32 %198, %199
  br i1 %cmp182, label %for.body183, label %for.end190

for.body183:                                      ; preds = %for.cond181
  %200 = load i32**, i32*** @origin, align 8
  %201 = load i32, i32* %i, align 4
  %idxprom184 = sext i32 %201 to i64
  %arrayidx185 = getelementptr inbounds i32*, i32** %200, i64 %idxprom184
  %202 = load i32*, i32** %arrayidx185, align 8
  %203 = load i32, i32* %j180, align 4
  %idxprom186 = sext i32 %203 to i64
  %arrayidx187 = getelementptr inbounds i32, i32* %202, i64 %idxprom186
  store i32 0, i32* %arrayidx187, align 4
  br label %for.inc188

for.inc188:                                       ; preds = %for.body183
  %204 = load i32, i32* %j180, align 4
  %inc189 = add nsw i32 %204, 1
  store i32 %inc189, i32* %j180, align 4
  br label %for.cond181

for.end190:                                       ; preds = %for.cond181
  br label %for.inc191

for.inc191:                                       ; preds = %for.end190
  %205 = load i32, i32* %i, align 4
  %inc192 = add nsw i32 %205, 1
  store i32 %inc192, i32* %i, align 4
  br label %for.cond175

for.end193:                                       ; preds = %for.cond175
  store i32 0, i32* %sumworkload, align 4
  store i32 0, i32* @numusefulntype, align 4
  store i32 0, i32* %averworkload, align 4
  %call194 = call i8* @_Znam(i64 262144) #8
  %206 = bitcast i8* %call194 to i32*
  store i32* %206, i32** @ntypeoffsetbase, align 8
  %call195 = call i8* @_Znam(i64 262144) #8
  %207 = bitcast i8* %call195 to i32*
  store i32* %207, i32** @ntypeoffsetend, align 8
  %call196 = call i8* @_Znam(i64 262144) #8
  %208 = bitcast i8* %call196 to i32*
  store i32* %208, i32** %tempntypeoffsetbase, align 8
  store i32 0, i32* %i, align 4
  br label %for.cond197

for.cond197:                                      ; preds = %for.inc231, %for.end193
  %209 = load i32, i32* %i, align 4
  %cmp198 = icmp slt i32 %209, 65536
  br i1 %cmp198, label %for.body199, label %for.end233

for.body199:                                      ; preds = %for.cond197
  %210 = load i32, i32* %i, align 4
  %idxprom200 = sext i32 %210 to i64
  %arrayidx201 = getelementptr inbounds [65536 x i32], [65536 x i32]* @sumntype, i64 0, i64 %idxprom200
  store i32 0, i32* %arrayidx201, align 4
  store i32 0, i32* %j202, align 4
  br label %for.cond203

for.cond203:                                      ; preds = %for.inc213, %for.body199
  %211 = load i32, i32* %j202, align 4
  %212 = load i32, i32* %workingthread.addr, align 4
  %cmp204 = icmp slt i32 %211, %212
  br i1 %cmp204, label %for.body205, label %for.end215

for.body205:                                      ; preds = %for.cond203
  %213 = load i32**, i32*** @ntypearray, align 8
  %214 = load i32, i32* %j202, align 4
  %idxprom206 = sext i32 %214 to i64
  %arrayidx207 = getelementptr inbounds i32*, i32** %213, i64 %idxprom206
  %215 = load i32*, i32** %arrayidx207, align 8
  %216 = load i32, i32* %i, align 4
  %idxprom208 = sext i32 %216 to i64
  %arrayidx209 = getelementptr inbounds i32, i32* %215, i64 %idxprom208
  %217 = load i32, i32* %arrayidx209, align 4
  %218 = load i32, i32* %i, align 4
  %idxprom210 = sext i32 %218 to i64
  %arrayidx211 = getelementptr inbounds [65536 x i32], [65536 x i32]* @sumntype, i64 0, i64 %idxprom210
  %219 = load i32, i32* %arrayidx211, align 4
  %add212 = add nsw i32 %219, %217
  store i32 %add212, i32* %arrayidx211, align 4
  br label %for.inc213

for.inc213:                                       ; preds = %for.body205
  %220 = load i32, i32* %j202, align 4
  %inc214 = add nsw i32 %220, 1
  store i32 %inc214, i32* %j202, align 4
  br label %for.cond203

for.end215:                                       ; preds = %for.cond203
  %221 = load i32, i32* %i, align 4
  %idxprom216 = sext i32 %221 to i64
  %arrayidx217 = getelementptr inbounds [65536 x i32], [65536 x i32]* @sumntype, i64 0, i64 %idxprom216
  %222 = load i32, i32* %arrayidx217, align 4
  %cmp218 = icmp sgt i32 %222, 0
  br i1 %cmp218, label %if.then219, label %if.end221

if.then219:                                       ; preds = %for.end215
  %223 = load i32, i32* @numusefulntype, align 4
  %inc220 = add nsw i32 %223, 1
  store i32 %inc220, i32* @numusefulntype, align 4
  br label %if.end221

if.end221:                                        ; preds = %if.then219, %for.end215
  %224 = load i32, i32* %sumworkload, align 4
  %225 = load i32*, i32** @ntypeoffsetbase, align 8
  %226 = load i32, i32* %i, align 4
  %idxprom222 = sext i32 %226 to i64
  %arrayidx223 = getelementptr inbounds i32, i32* %225, i64 %idxprom222
  store i32 %224, i32* %arrayidx223, align 4
  %227 = load i32*, i32** %tempntypeoffsetbase, align 8
  %228 = load i32, i32* %i, align 4
  %idxprom224 = sext i32 %228 to i64
  %arrayidx225 = getelementptr inbounds i32, i32* %227, i64 %idxprom224
  store i32 %224, i32* %arrayidx225, align 4
  %229 = load i32, i32* %i, align 4
  %idxprom226 = sext i32 %229 to i64
  %arrayidx227 = getelementptr inbounds [65536 x i32], [65536 x i32]* @sumntype, i64 0, i64 %idxprom226
  %230 = load i32, i32* %arrayidx227, align 4
  %231 = load i32, i32* %sumworkload, align 4
  %add228 = add nsw i32 %231, %230
  store i32 %add228, i32* %sumworkload, align 4
  %232 = load i32, i32* %sumworkload, align 4
  %233 = load i32*, i32** @ntypeoffsetend, align 8
  %234 = load i32, i32* %i, align 4
  %idxprom229 = sext i32 %234 to i64
  %arrayidx230 = getelementptr inbounds i32, i32* %233, i64 %idxprom229
  store i32 %232, i32* %arrayidx230, align 4
  br label %for.inc231

for.inc231:                                       ; preds = %if.end221
  %235 = load i32, i32* %i, align 4
  %inc232 = add nsw i32 %235, 1
  store i32 %inc232, i32* %i, align 4
  br label %for.cond197

for.end233:                                       ; preds = %for.cond197
  %236 = load i32, i32* %local_num_hot_item, align 4
  %shl234 = shl i32 1, %236
  store i32 %shl234, i32* %num_hot_node, align 4
  %237 = load %class.Fnode***, %class.Fnode**** @hashtable, align 8
  %arrayidx236 = getelementptr inbounds %class.Fnode**, %class.Fnode*** %237, i64 0
  %238 = load %class.Fnode**, %class.Fnode*** %arrayidx236, align 8
  store %class.Fnode** %238, %class.Fnode*** %local_hashtable, align 8
  %239 = load i32**, i32*** @hot_node_count, align 8
  %arrayidx238 = getelementptr inbounds i32*, i32** %239, i64 0
  %240 = load i32*, i32** %arrayidx238, align 8
  store i32* %240, i32** %local_hot_node_count237, align 8
  %241 = load i32, i32* %workingthread.addr, align 4
  %242 = sext i32 %241 to i64
  %243 = call { i64, i1 } @llvm.umul.with.overflow.i64(i64 %242, i64 8)
  %244 = extractvalue { i64, i1 } %243, 1
  %245 = extractvalue { i64, i1 } %243, 0
  %246 = select i1 %244, i64 -1, i64 %245
  %call239 = call i8* @_Znam(i64 %246) #8
  %247 = bitcast i8* %call239 to i32**
  store i32** %247, i32*** @threadworkload, align 8
  %248 = load i32, i32* %workingthread.addr, align 4
  %249 = sext i32 %248 to i64
  %250 = call { i64, i1 } @llvm.umul.with.overflow.i64(i64 %249, i64 4)
  %251 = extractvalue { i64, i1 } %250, 1
  %252 = extractvalue { i64, i1 } %250, 0
  %253 = select i1 %251, i64 -1, i64 %252
  %call240 = call i8* @_Znam(i64 %253) #8
  %254 = bitcast i8* %call240 to i32*
  store i32* %254, i32** @threadworkloadnum, align 8
  store i32 0, i32* %j235, align 4
  br label %for.cond241

for.cond241:                                      ; preds = %for.inc249, %for.end233
  %255 = load i32, i32* %j235, align 4
  %256 = load i32, i32* %workingthread.addr, align 4
  %cmp242 = icmp slt i32 %255, %256
  br i1 %cmp242, label %for.body243, label %for.end251

for.body243:                                      ; preds = %for.cond241
  %257 = load i32*, i32** @threadworkloadnum, align 8
  %258 = load i32, i32* %j235, align 4
  %idxprom244 = sext i32 %258 to i64
  %arrayidx245 = getelementptr inbounds i32, i32* %257, i64 %idxprom244
  store i32 0, i32* %arrayidx245, align 4
  %call246 = call i8* @_Znam(i64 262144) #8
  %259 = bitcast i8* %call246 to i32*
  %260 = load i32**, i32*** @threadworkload, align 8
  %261 = load i32, i32* %j235, align 4
  %idxprom247 = sext i32 %261 to i64
  %arrayidx248 = getelementptr inbounds i32*, i32** %260, i64 %idxprom247
  store i32* %259, i32** %arrayidx248, align 8
  br label %for.inc249

for.inc249:                                       ; preds = %for.body243
  %262 = load i32, i32* %j235, align 4
  %inc250 = add nsw i32 %262, 1
  store i32 %inc250, i32* %j235, align 4
  br label %for.cond241

for.end251:                                       ; preds = %for.cond241
  %263 = load i32, i32* %num_hot_node, align 4
  %sub252 = sub nsw i32 %263, 1
  store i32 %sub252, i32* %i, align 4
  br label %for.cond253

for.cond253:                                      ; preds = %for.inc317, %for.end251
  %264 = load i32, i32* %i, align 4
  %cmp254 = icmp sgt i32 %264, 0
  br i1 %cmp254, label %for.body255, label %for.end319

for.body255:                                      ; preds = %for.cond253
  store i32 1, i32* %j235, align 4
  br label %for.cond256

for.cond256:                                      ; preds = %for.inc270, %for.body255
  %265 = load i32, i32* %j235, align 4
  %266 = load i32, i32* %workingthread.addr, align 4
  %cmp257 = icmp slt i32 %265, %266
  br i1 %cmp257, label %for.body258, label %for.end272

for.body258:                                      ; preds = %for.cond256
  %267 = load i32**, i32*** @hot_node_count, align 8
  %268 = load i32, i32* %j235, align 4
  %idxprom259 = sext i32 %268 to i64
  %arrayidx260 = getelementptr inbounds i32*, i32** %267, i64 %idxprom259
  %269 = load i32*, i32** %arrayidx260, align 8
  %270 = load i32, i32* %i, align 4
  %idxprom261 = sext i32 %270 to i64
  %arrayidx262 = getelementptr inbounds i32, i32* %269, i64 %idxprom261
  %271 = load i32, i32* %arrayidx262, align 4
  %272 = load i32*, i32** %local_hot_node_count237, align 8
  %273 = load i32, i32* %i, align 4
  %idxprom263 = sext i32 %273 to i64
  %arrayidx264 = getelementptr inbounds i32, i32* %272, i64 %idxprom263
  %274 = load i32, i32* %arrayidx264, align 4
  %add265 = add nsw i32 %274, %271
  store i32 %add265, i32* %arrayidx264, align 4
  %275 = load i32**, i32*** @hot_node_count, align 8
  %276 = load i32, i32* %j235, align 4
  %idxprom266 = sext i32 %276 to i64
  %arrayidx267 = getelementptr inbounds i32*, i32** %275, i64 %idxprom266
  %277 = load i32*, i32** %arrayidx267, align 8
  %278 = load i32, i32* %i, align 4
  %idxprom268 = sext i32 %278 to i64
  %arrayidx269 = getelementptr inbounds i32, i32* %277, i64 %idxprom268
  store i32 0, i32* %arrayidx269, align 4
  br label %for.inc270

for.inc270:                                       ; preds = %for.body258
  %279 = load i32, i32* %j235, align 4
  %inc271 = add nsw i32 %279, 1
  store i32 %inc271, i32* %j235, align 4
  br label %for.cond256

for.end272:                                       ; preds = %for.cond256
  %280 = load i32*, i32** %local_hot_node_count237, align 8
  %281 = load i32, i32* %i, align 4
  %idxprom273 = sext i32 %281 to i64
  %arrayidx274 = getelementptr inbounds i32, i32* %280, i64 %idxprom273
  %282 = load i32, i32* %arrayidx274, align 4
  %cmp275 = icmp eq i32 %282, 0
  br i1 %cmp275, label %if.then276, label %if.end277

if.then276:                                       ; preds = %for.end272
  br label %for.inc317

if.end277:                                        ; preds = %for.end272
  %283 = load %class.memory**, %class.memory*** @fp_tree_buf, align 8
  %arrayidx278 = getelementptr inbounds %class.memory*, %class.memory** %283, i64 0
  %284 = load %class.memory*, %class.memory** %arrayidx278, align 8
  %call279 = call i8* @_ZN6memory6newbufEjj(%class.memory* %284, i32 1, i32 24)
  %285 = bitcast i8* %call279 to %class.Fnode*
  store %class.Fnode* %285, %class.Fnode** %current_node, align 8
  %286 = load i32*, i32** @hot_node_index, align 8
  %287 = load i32, i32* %i, align 4
  %idxprom280 = sext i32 %287 to i64
  %arrayidx281 = getelementptr inbounds i32, i32* %286, i64 %idxprom280
  %288 = load i32, i32* %arrayidx281, align 4
  %289 = load %class.Fnode*, %class.Fnode** %current_node, align 8
  %itemname = getelementptr inbounds %class.Fnode, %class.Fnode* %289, i32 0, i32 3
  store i32 %288, i32* %itemname, align 4
  %290 = load %class.Fnode*, %class.Fnode** %current_node, align 8
  %rightsibling = getelementptr inbounds %class.Fnode, %class.Fnode* %290, i32 0, i32 1
  store %class.Fnode* null, %class.Fnode** %rightsibling, align 8
  %291 = load %class.Fnode*, %class.Fnode** %current_node, align 8
  %leftchild = getelementptr inbounds %class.Fnode, %class.Fnode* %291, i32 0, i32 0
  store %class.Fnode* null, %class.Fnode** %leftchild, align 8
  %292 = load i32*, i32** %local_hot_node_count237, align 8
  %293 = load i32, i32* %i, align 4
  %idxprom282 = sext i32 %293 to i64
  %arrayidx283 = getelementptr inbounds i32, i32* %292, i64 %idxprom282
  %294 = load i32, i32* %arrayidx283, align 4
  %295 = load %class.Fnode*, %class.Fnode** %current_node, align 8
  %count = getelementptr inbounds %class.Fnode, %class.Fnode* %295, i32 0, i32 2
  store i32 %294, i32* %count, align 8
  %296 = load %class.Fnode*, %class.Fnode** %current_node, align 8
  %297 = load %class.Fnode**, %class.Fnode*** %local_hashtable, align 8
  %298 = load i32, i32* %i, align 4
  %idxprom284 = sext i32 %298 to i64
  %arrayidx285 = getelementptr inbounds %class.Fnode*, %class.Fnode** %297, i64 %idxprom284
  store %class.Fnode* %296, %class.Fnode** %arrayidx285, align 8
  %299 = load i32*, i32** @hot_node_index, align 8
  %300 = load i32, i32* %i, align 4
  %idxprom286 = sext i32 %300 to i64
  %arrayidx287 = getelementptr inbounds i32, i32* %299, i64 %idxprom286
  %301 = load i32, i32* %arrayidx287, align 4
  store i32 %301, i32* %step, align 4
  %302 = load i32, i32* %i, align 4
  %303 = load i32, i32* %step, align 4
  %shl288 = shl i32 1, %303
  %xor = xor i32 %302, %shl288
  store i32 %xor, i32* %parent, align 4
  %304 = load i32*, i32** %local_hot_node_count237, align 8
  %305 = load i32, i32* %i, align 4
  %idxprom289 = sext i32 %305 to i64
  %arrayidx290 = getelementptr inbounds i32, i32* %304, i64 %idxprom289
  %306 = load i32, i32* %arrayidx290, align 4
  %307 = load i32*, i32** %local_hot_node_count237, align 8
  %308 = load i32, i32* %parent, align 4
  %idxprom291 = sext i32 %308 to i64
  %arrayidx292 = getelementptr inbounds i32, i32* %307, i64 %idxprom291
  %309 = load i32, i32* %arrayidx292, align 4
  %add293 = add nsw i32 %309, %306
  store i32 %add293, i32* %arrayidx292, align 4
  %310 = load i32*, i32** %local_hot_node_count237, align 8
  %311 = load i32, i32* %i, align 4
  %idxprom294 = sext i32 %311 to i64
  %arrayidx295 = getelementptr inbounds i32, i32* %310, i64 %idxprom294
  store i32 0, i32* %arrayidx295, align 4
  %312 = load i32, i32* %i, align 4
  %idxprom296 = sext i32 %312 to i64
  %arrayidx297 = getelementptr inbounds [65536 x i32], [65536 x i32]* @sumntype, i64 0, i64 %idxprom296
  %313 = load i32, i32* %arrayidx297, align 4
  %cmp298 = icmp eq i32 %313, 0
  br i1 %cmp298, label %if.then299, label %if.end316

if.then299:                                       ; preds = %if.end277
  %314 = load i32, i32* %i, align 4
  %315 = load i32**, i32*** @threadworkload, align 8
  %arrayidx300 = getelementptr inbounds i32*, i32** %315, i64 0
  %316 = load i32*, i32** %arrayidx300, align 8
  %317 = load i32*, i32** @threadworkloadnum, align 8
  %arrayidx301 = getelementptr inbounds i32, i32* %317, i64 0
  %318 = load i32, i32* %arrayidx301, align 4
  %idxprom302 = sext i32 %318 to i64
  %arrayidx303 = getelementptr inbounds i32, i32* %316, i64 %idxprom302
  store i32 %314, i32* %arrayidx303, align 4
  %319 = load i32*, i32** @threadworkloadnum, align 8
  %arrayidx304 = getelementptr inbounds i32, i32* %319, i64 0
  %320 = load i32, i32* %arrayidx304, align 4
  %inc305 = add nsw i32 %320, 1
  store i32 %inc305, i32* %arrayidx304, align 4
  %321 = load i32**, i32*** @global_nodenum, align 8
  %arrayidx306 = getelementptr inbounds i32*, i32** %321, i64 0
  %322 = load i32*, i32** %arrayidx306, align 8
  %323 = load i32, i32* %step, align 4
  %idxprom307 = sext i32 %323 to i64
  %arrayidx308 = getelementptr inbounds i32, i32* %322, i64 %idxprom307
  %324 = load i32, i32* %arrayidx308, align 4
  %inc309 = add nsw i32 %324, 1
  store i32 %inc309, i32* %arrayidx308, align 4
  %325 = load i32*, i32** @hot_node_depth, align 8
  %326 = load i32, i32* %i, align 4
  %idxprom310 = sext i32 %326 to i64
  %arrayidx311 = getelementptr inbounds i32, i32* %325, i64 %idxprom310
  %327 = load i32, i32* %arrayidx311, align 4
  %add312 = add nsw i32 %327, 1
  %328 = load i32**, i32*** @new_data_num, align 8
  %arrayidx313 = getelementptr inbounds i32*, i32** %328, i64 0
  %329 = load i32*, i32** %arrayidx313, align 8
  %arrayidx314 = getelementptr inbounds i32, i32* %329, i64 0
  %330 = load i32, i32* %arrayidx314, align 4
  %add315 = add nsw i32 %330, %add312
  store i32 %add315, i32* %arrayidx314, align 4
  br label %if.end316

if.end316:                                        ; preds = %if.then299, %if.end277
  br label %for.inc317

for.inc317:                                       ; preds = %if.end316, %if.then276
  %331 = load i32, i32* %i, align 4
  %dec318 = add nsw i32 %331, -1
  store i32 %dec318, i32* %i, align 4
  br label %for.cond253

for.end319:                                       ; preds = %for.cond253
  %332 = load %class.memory*, %class.memory** @database_buf, align 8
  %333 = load i32, i32* %sumworkload, align 4
  %conv320 = sext i32 %333 to i64
  %mul = mul i64 %conv320, 2
  %conv321 = trunc i64 %mul to i32
  %call322 = call i8* @_ZN6memory6newbufEjj(%class.memory* %332, i32 1, i32 %conv321)
  %334 = bitcast i8* %call322 to i16*
  store i16* %334, i16** @threadtranscontent, align 8
  call void @_Z4sortPiS_ii(i32* getelementptr inbounds ([65536 x i32], [65536 x i32]* @sumntype, i32 0, i32 0), i32* getelementptr inbounds ([65536 x i32], [65536 x i32]* @ntypeidarray, i32 0, i32 0), i32 0, i32 65535)
  %335 = load i32, i32* %sumworkload, align 4
  %div = sdiv i32 %335, 512
  store i32 %div, i32* %averworkload, align 4
  store i32 0, i32* %tempworkload, align 4
  store i32 0, i32* getelementptr inbounds ([65536 x i32], [65536 x i32]* @mergedworkbase, i64 0, i64 0), align 16
  store i32 0, i32* @mergedworknum, align 4
  store i32 0, i32* %i, align 4
  br label %for.cond323

for.cond323:                                      ; preds = %for.inc339, %for.end319
  %336 = load i32, i32* %i, align 4
  %337 = load i32, i32* @numusefulntype, align 4
  %cmp324 = icmp slt i32 %336, %337
  br i1 %cmp324, label %for.body325, label %for.end341

for.body325:                                      ; preds = %for.cond323
  %338 = load i32, i32* %i, align 4
  %idxprom326 = sext i32 %338 to i64
  %arrayidx327 = getelementptr inbounds [65536 x i32], [65536 x i32]* @sumntype, i64 0, i64 %idxprom326
  %339 = load i32, i32* %arrayidx327, align 4
  %340 = load i32, i32* %tempworkload, align 4
  %add328 = add nsw i32 %340, %339
  store i32 %add328, i32* %tempworkload, align 4
  %341 = load i32, i32* %tempworkload, align 4
  %342 = load i32, i32* %averworkload, align 4
  %cmp329 = icmp sge i32 %341, %342
  br i1 %cmp329, label %if.then330, label %if.end338

if.then330:                                       ; preds = %for.body325
  %343 = load i32, i32* %i, align 4
  %add331 = add nsw i32 %343, 1
  %344 = load i32, i32* @mergedworknum, align 4
  %idxprom332 = sext i32 %344 to i64
  %arrayidx333 = getelementptr inbounds [65536 x i32], [65536 x i32]* @mergedworkend, i64 0, i64 %idxprom332
  store i32 %add331, i32* %arrayidx333, align 4
  %345 = load i32, i32* @mergedworknum, align 4
  %inc334 = add nsw i32 %345, 1
  store i32 %inc334, i32* @mergedworknum, align 4
  %346 = load i32, i32* %i, align 4
  %add335 = add nsw i32 %346, 1
  %347 = load i32, i32* @mergedworknum, align 4
  %idxprom336 = sext i32 %347 to i64
  %arrayidx337 = getelementptr inbounds [65536 x i32], [65536 x i32]* @mergedworkbase, i64 0, i64 %idxprom336
  store i32 %add335, i32* %arrayidx337, align 4
  store i32 0, i32* %tempworkload, align 4
  br label %if.end338

if.end338:                                        ; preds = %if.then330, %for.body325
  br label %for.inc339

for.inc339:                                       ; preds = %if.end338
  %348 = load i32, i32* %i, align 4
  %inc340 = add nsw i32 %348, 1
  store i32 %inc340, i32* %i, align 4
  br label %for.cond323

for.end341:                                       ; preds = %for.cond323
  %349 = load i32, i32* %i, align 4
  %350 = load i32, i32* @mergedworknum, align 4
  %idxprom342 = sext i32 %350 to i64
  %arrayidx343 = getelementptr inbounds [65536 x i32], [65536 x i32]* @mergedworkend, i64 0, i64 %idxprom342
  store i32 %349, i32* %arrayidx343, align 4
  %351 = load i32, i32* @mergedworknum, align 4
  %inc344 = add nsw i32 %351, 1
  store i32 %inc344, i32* @mergedworknum, align 4
  store i32 0, i32* %averworkload, align 4
  %352 = load i32, i32* %sumworkload, align 4
  %353 = load i32, i32* %workingthread.addr, align 4
  %div345 = sdiv i32 %352, %353
  store i32 %div345, i32* %averworkload, align 4
  store i32 0, i32* %j235, align 4
  store i32 0, i32* %i, align 4
  br label %for.cond346

for.cond346:                                      ; preds = %for.inc375, %for.end341
  %354 = load i32, i32* %i, align 4
  %cmp347 = icmp slt i32 %354, 65536
  br i1 %cmp347, label %for.body348, label %for.end377

for.body348:                                      ; preds = %for.cond346
  store i32 0, i32* %j235, align 4
  br label %for.cond349

for.cond349:                                      ; preds = %for.inc372, %for.body348
  %355 = load i32, i32* %j235, align 4
  %356 = load i32, i32* %workingthread.addr, align 4
  %cmp350 = icmp slt i32 %355, %356
  br i1 %cmp350, label %for.body351, label %for.end374

for.body351:                                      ; preds = %for.cond349
  %357 = load i32**, i32*** @ntypearray, align 8
  %358 = load i32, i32* %j235, align 4
  %idxprom352 = sext i32 %358 to i64
  %arrayidx353 = getelementptr inbounds i32*, i32** %357, i64 %idxprom352
  %359 = load i32*, i32** %arrayidx353, align 8
  %360 = load i32, i32* %i, align 4
  %idxprom354 = sext i32 %360 to i64
  %arrayidx355 = getelementptr inbounds i32, i32* %359, i64 %idxprom354
  %361 = load i32, i32* %arrayidx355, align 4
  %cmp356 = icmp sgt i32 %361, 0
  br i1 %cmp356, label %if.then357, label %if.end371

if.then357:                                       ; preds = %for.body351
  %362 = load i32*, i32** %tempntypeoffsetbase, align 8
  %363 = load i32, i32* %i, align 4
  %idxprom358 = sext i32 %363 to i64
  %arrayidx359 = getelementptr inbounds i32, i32* %362, i64 %idxprom358
  %364 = load i32, i32* %arrayidx359, align 4
  %365 = load i32**, i32*** @threadntypeoffsetiter, align 8
  %366 = load i32, i32* %j235, align 4
  %idxprom360 = sext i32 %366 to i64
  %arrayidx361 = getelementptr inbounds i32*, i32** %365, i64 %idxprom360
  %367 = load i32*, i32** %arrayidx361, align 8
  %368 = load i32, i32* %i, align 4
  %idxprom362 = sext i32 %368 to i64
  %arrayidx363 = getelementptr inbounds i32, i32* %367, i64 %idxprom362
  store i32 %364, i32* %arrayidx363, align 4
  %369 = load i32**, i32*** @ntypearray, align 8
  %370 = load i32, i32* %j235, align 4
  %idxprom364 = sext i32 %370 to i64
  %arrayidx365 = getelementptr inbounds i32*, i32** %369, i64 %idxprom364
  %371 = load i32*, i32** %arrayidx365, align 8
  %372 = load i32, i32* %i, align 4
  %idxprom366 = sext i32 %372 to i64
  %arrayidx367 = getelementptr inbounds i32, i32* %371, i64 %idxprom366
  %373 = load i32, i32* %arrayidx367, align 4
  %374 = load i32*, i32** %tempntypeoffsetbase, align 8
  %375 = load i32, i32* %i, align 4
  %idxprom368 = sext i32 %375 to i64
  %arrayidx369 = getelementptr inbounds i32, i32* %374, i64 %idxprom368
  %376 = load i32, i32* %arrayidx369, align 4
  %add370 = add nsw i32 %376, %373
  store i32 %add370, i32* %arrayidx369, align 4
  br label %if.end371

if.end371:                                        ; preds = %if.then357, %for.body351
  br label %for.inc372

for.inc372:                                       ; preds = %if.end371
  %377 = load i32, i32* %j235, align 4
  %inc373 = add nsw i32 %377, 1
  store i32 %inc373, i32* %j235, align 4
  br label %for.cond349

for.end374:                                       ; preds = %for.cond349
  br label %for.inc375

for.inc375:                                       ; preds = %for.end374
  %378 = load i32, i32* %i, align 4
  %inc376 = add nsw i32 %378, 1
  store i32 %inc376, i32* %i, align 4
  br label %for.cond346

for.end377:                                       ; preds = %for.cond346
  store i32 0, i32* %i, align 4
  br label %for.cond378

for.cond378:                                      ; preds = %for.inc423, %for.end377
  %379 = load i32, i32* %i, align 4
  %380 = load i32, i32* %workingthread.addr, align 4
  %cmp379 = icmp slt i32 %379, %380
  br i1 %cmp379, label %for.body380, label %for.end425

for.body380:                                      ; preds = %for.cond378
  %381 = load i32**, i32*** @threadntypeoffsetiter, align 8
  %382 = load i32, i32* %i, align 4
  %idxprom386 = sext i32 %382 to i64
  %arrayidx387 = getelementptr inbounds i32*, i32** %381, i64 %idxprom386
  %383 = load i32*, i32** %arrayidx387, align 8
  store i32* %383, i32** %local_threadntypeoffsetiter, align 8
  %384 = load %class.MapFile**, %class.MapFile*** @thread_mapfile, align 8
  %385 = load i32, i32* %i, align 4
  %idxprom388 = sext i32 %385 to i64
  %arrayidx389 = getelementptr inbounds %class.MapFile*, %class.MapFile** %384, i64 %idxprom388
  %386 = load %class.MapFile*, %class.MapFile** %arrayidx389, align 8
  %first390 = getelementptr inbounds %class.MapFile, %class.MapFile* %386, i32 0, i32 0
  %387 = load %class.MapFileNode*, %class.MapFileNode** %first390, align 8
  store %class.MapFileNode* %387, %class.MapFileNode** %current_mapfilenode, align 8
  br label %while.cond

while.cond:                                       ; preds = %while.end, %for.body380
  %388 = load %class.MapFileNode*, %class.MapFileNode** %current_mapfilenode, align 8
  %tobool = icmp ne %class.MapFileNode* %388, null
  br i1 %tobool, label %while.body, label %while.end422

while.body:                                       ; preds = %while.cond
  %389 = load %class.MapFileNode*, %class.MapFileNode** %current_mapfilenode, align 8
  %top391 = getelementptr inbounds %class.MapFileNode, %class.MapFileNode* %389, i32 0, i32 2
  %390 = load i32, i32* %top391, align 4
  store i32 %390, i32* %size383, align 4
  store i32 0, i32* %current_pos, align 4
  %391 = load %class.MapFileNode*, %class.MapFileNode** %current_mapfilenode, align 8
  %TransactionContent392 = getelementptr inbounds %class.MapFileNode, %class.MapFileNode* %391, i32 0, i32 0
  %392 = load i32*, i32** %TransactionContent392, align 8
  %393 = bitcast i32* %392 to i16*
  store i16* %393, i16** %content381, align 8
  br label %while.cond393

while.cond393:                                    ; preds = %for.end420, %while.body
  %394 = load i32, i32* %current_pos, align 4
  %395 = load i32, i32* %size383, align 4
  %cmp394 = icmp slt i32 %394, %395
  br i1 %cmp394, label %while.body395, label %while.end

while.body395:                                    ; preds = %while.cond393
  %396 = load i16*, i16** %content381, align 8
  %397 = load i32, i32* %current_pos, align 4
  %idxprom396 = sext i32 %397 to i64
  %arrayidx397 = getelementptr inbounds i16, i16* %396, i64 %idxprom396
  %398 = load i16, i16* %arrayidx397, align 2
  %conv398 = zext i16 %398 to i32
  store i32 %conv398, i32* %ntype384, align 4
  %399 = load i32, i32* %current_pos, align 4
  %inc399 = add nsw i32 %399, 1
  store i32 %inc399, i32* %current_pos, align 4
  %400 = load i16*, i16** %content381, align 8
  %401 = load i32, i32* %current_pos, align 4
  %idxprom400 = sext i32 %401 to i64
  %arrayidx401 = getelementptr inbounds i16, i16* %400, i64 %idxprom400
  %402 = load i16, i16* %arrayidx401, align 2
  %conv402 = zext i16 %402 to i32
  store i32 %conv402, i32* %has385, align 4
  %403 = load i16*, i16** @threadtranscontent, align 8
  %404 = load i32*, i32** %local_threadntypeoffsetiter, align 8
  %405 = load i32, i32* %ntype384, align 4
  %idxprom403 = sext i32 %405 to i64
  %arrayidx404 = getelementptr inbounds i32, i32* %404, i64 %idxprom403
  %406 = load i32, i32* %arrayidx404, align 4
  %idx.ext = sext i32 %406 to i64
  %add.ptr = getelementptr inbounds i16, i16* %403, i64 %idx.ext
  store i16* %add.ptr, i16** %new_content, align 8
  %407 = load i32, i32* %has385, align 4
  %add405 = add nsw i32 %407, 1
  %408 = load i32*, i32** %local_threadntypeoffsetiter, align 8
  %409 = load i32, i32* %ntype384, align 4
  %idxprom406 = sext i32 %409 to i64
  %arrayidx407 = getelementptr inbounds i32, i32* %408, i64 %idxprom406
  %410 = load i32, i32* %arrayidx407, align 4
  %add408 = add nsw i32 %410, %add405
  store i32 %add408, i32* %arrayidx407, align 4
  store i32 0, i32* %k382, align 4
  br label %for.cond409

for.cond409:                                      ; preds = %for.inc418, %while.body395
  %411 = load i32, i32* %k382, align 4
  %412 = load i32, i32* %has385, align 4
  %add410 = add nsw i32 %412, 1
  %cmp411 = icmp slt i32 %411, %add410
  br i1 %cmp411, label %for.body412, label %for.end420

for.body412:                                      ; preds = %for.cond409
  %413 = load i16*, i16** %content381, align 8
  %414 = load i32, i32* %current_pos, align 4
  %inc413 = add nsw i32 %414, 1
  store i32 %inc413, i32* %current_pos, align 4
  %idxprom414 = sext i32 %414 to i64
  %arrayidx415 = getelementptr inbounds i16, i16* %413, i64 %idxprom414
  %415 = load i16, i16* %arrayidx415, align 2
  %416 = load i16*, i16** %new_content, align 8
  %417 = load i32, i32* %k382, align 4
  %idxprom416 = sext i32 %417 to i64
  %arrayidx417 = getelementptr inbounds i16, i16* %416, i64 %idxprom416
  store i16 %415, i16* %arrayidx417, align 2
  br label %for.inc418

for.inc418:                                       ; preds = %for.body412
  %418 = load i32, i32* %k382, align 4
  %inc419 = add nsw i32 %418, 1
  store i32 %inc419, i32* %k382, align 4
  br label %for.cond409

for.end420:                                       ; preds = %for.cond409
  br label %while.cond393

while.end:                                        ; preds = %while.cond393
  %419 = load %class.MapFileNode*, %class.MapFileNode** %current_mapfilenode, align 8
  call void @_ZN11MapFileNode8finalizeEv(%class.MapFileNode* %419)
  %420 = load %class.MapFileNode*, %class.MapFileNode** %current_mapfilenode, align 8
  %next421 = getelementptr inbounds %class.MapFileNode, %class.MapFileNode* %420, i32 0, i32 6
  %421 = load %class.MapFileNode*, %class.MapFileNode** %next421, align 8
  store %class.MapFileNode* %421, %class.MapFileNode** %current_mapfilenode, align 8
  br label %while.cond

while.end422:                                     ; preds = %while.cond
  br label %for.inc423

for.inc423:                                       ; preds = %while.end422
  %422 = load i32, i32* %i, align 4
  %inc424 = add nsw i32 %422, 1
  store i32 %inc424, i32* %i, align 4
  br label %for.cond378

for.end425:                                       ; preds = %for.cond378
  %423 = load i32*, i32** %tempntypeoffsetbase, align 8
  %isnull = icmp eq i32* %423, null
  br i1 %isnull, label %delete.end, label %delete.notnull

delete.notnull:                                   ; preds = %for.end425
  %424 = bitcast i32* %423 to i8*
  call void @_ZdaPv(i8* %424) #9
  br label %delete.end

delete.end:                                       ; preds = %delete.notnull, %for.end425
  %425 = load i32*, i32** %thread_pos, align 8
  %isnull426 = icmp eq i32* %425, null
  br i1 %isnull426, label %delete.end428, label %delete.notnull427

delete.notnull427:                                ; preds = %delete.end
  %426 = bitcast i32* %425 to i8*
  call void @_ZdaPv(i8* %426) #9
  br label %delete.end428

delete.end428:                                    ; preds = %delete.notnull427, %delete.end
  ret void
}

; Function Attrs: noinline nounwind uwtable
define internal i32 @_ZL18omp_get_thread_numv() #0 {
entry:
  ret i32 0
}

declare void @_ZN11MapFileNode4initEii(%class.MapFileNode*, i32, i32) #5

declare void @_ZN11MapFileNode8finalizeEv(%class.MapFileNode*) #5

; Function Attrs: noinline uwtable
define void @_ZN7FP_tree8scan1_DBEP4Data(%class.FP_tree* %this, %class.Data* %fdat) #1 align 2 personality i8* bitcast (i32 (...)* @__gxx_personality_v0 to i8*) {
entry:
  %this.addr = alloca %class.FP_tree*, align 8
  %fdat.addr = alloca %class.Data*, align 8
  %i = alloca i32, align 4
  %j = alloca i32, align 4
  %counts = alloca i32*, align 8
  %thread = alloca i32, align 4
  %num_hot_node = alloca i32, align 4
  %workingthread = alloca i32, align 4
  %exn.slot = alloca i8*
  %ehselector.slot = alloca i32
  %k = alloca i32, align 4
  %i302 = alloca i32, align 4
  %cpu_mask = alloca %struct.cpu_set_t, align 8
  %__cpu = alloca i64, align 8
  %tmp = alloca i64, align 8
  store %class.FP_tree* %this, %class.FP_tree** %this.addr, align 8
  store %class.Data* %fdat, %class.Data** %fdat.addr, align 8
  %this1 = load %class.FP_tree*, %class.FP_tree** %this.addr, align 8
  %call = call i32 @_ZL18omp_get_thread_numv()
  store i32 %call, i32* %thread, align 4
  %0 = load %class.memory*, %class.memory** @database_buf, align 8
  %call2 = call i8* @_ZN6memory6newbufEjj(%class.memory* %0, i32 1, i32 64)
  %1 = bitcast i8* %call2 to %class.MapFile*
  store %class.MapFile* %1, %class.MapFile** @mapfile, align 8
  %2 = load %class.MapFile*, %class.MapFile** @mapfile, align 8
  %first = getelementptr inbounds %class.MapFile, %class.MapFile* %2, i32 0, i32 0
  store %class.MapFileNode* null, %class.MapFileNode** %first, align 8
  %3 = load %class.Data*, %class.Data** %fdat.addr, align 8
  %4 = load %class.MapFile*, %class.MapFile** @mapfile, align 8
  %call3 = call i32* @_ZN4Data13parseDataFileEP7MapFile(%class.Data* %3, %class.MapFile* %4)
  store i32* %call3, i32** %counts, align 8
  %5 = load %class.memory**, %class.memory*** @fp_buf, align 8
  %6 = load i32, i32* %thread, align 4
  %idxprom = sext i32 %6 to i64
  %arrayidx = getelementptr inbounds %class.memory*, %class.memory** %5, i64 %idxprom
  %7 = load %class.memory*, %class.memory** %arrayidx, align 8
  %8 = load i32, i32* @ITEM_NO, align 4
  %mul = mul nsw i32 %8, 3
  %conv = sext i32 %mul to i64
  %mul4 = mul i64 %conv, 4
  %conv5 = trunc i64 %mul4 to i32
  %call6 = call i8* @_ZN6memory6newbufEjj(%class.memory* %7, i32 1, i32 %conv5)
  %9 = bitcast i8* %call6 to i32*
  %order = getelementptr inbounds %class.FP_tree, %class.FP_tree* %this1, i32 0, i32 2
  store i32* %9, i32** %order, align 8
  %order7 = getelementptr inbounds %class.FP_tree, %class.FP_tree* %this1, i32 0, i32 2
  %10 = load i32*, i32** %order7, align 8
  %11 = load i32, i32* @ITEM_NO, align 4
  %idx.ext = sext i32 %11 to i64
  %add.ptr = getelementptr inbounds i32, i32* %10, i64 %idx.ext
  %table = getelementptr inbounds %class.FP_tree, %class.FP_tree* %this1, i32 0, i32 3
  store i32* %add.ptr, i32** %table, align 8
  %table8 = getelementptr inbounds %class.FP_tree, %class.FP_tree* %this1, i32 0, i32 3
  %12 = load i32*, i32** %table8, align 8
  %13 = load i32, i32* @ITEM_NO, align 4
  %idx.ext9 = sext i32 %13 to i64
  %add.ptr10 = getelementptr inbounds i32, i32* %12, i64 %idx.ext9
  %count = getelementptr inbounds %class.FP_tree, %class.FP_tree* %this1, i32 0, i32 5
  store i32* %add.ptr10, i32** %count, align 8
  store i32 0, i32* %i, align 4
  br label %for.cond

for.cond:                                         ; preds = %for.inc, %entry
  %14 = load i32, i32* %i, align 4
  %15 = load i32, i32* @ITEM_NO, align 4
  %cmp = icmp slt i32 %14, %15
  br i1 %cmp, label %for.body, label %for.end

for.body:                                         ; preds = %for.cond
  %order11 = getelementptr inbounds %class.FP_tree, %class.FP_tree* %this1, i32 0, i32 2
  %16 = load i32*, i32** %order11, align 8
  %17 = load i32, i32* %i, align 4
  %idxprom12 = sext i32 %17 to i64
  %arrayidx13 = getelementptr inbounds i32, i32* %16, i64 %idxprom12
  store i32 -1, i32* %arrayidx13, align 4
  %18 = load i32*, i32** %counts, align 8
  %19 = load i32, i32* %i, align 4
  %idxprom14 = sext i32 %19 to i64
  %arrayidx15 = getelementptr inbounds i32, i32* %18, i64 %idxprom14
  %20 = load i32, i32* %arrayidx15, align 4
  %count16 = getelementptr inbounds %class.FP_tree, %class.FP_tree* %this1, i32 0, i32 5
  %21 = load i32*, i32** %count16, align 8
  %22 = load i32, i32* %i, align 4
  %idxprom17 = sext i32 %22 to i64
  %arrayidx18 = getelementptr inbounds i32, i32* %21, i64 %idxprom17
  store i32 %20, i32* %arrayidx18, align 4
  %23 = load i32, i32* %i, align 4
  %table19 = getelementptr inbounds %class.FP_tree, %class.FP_tree* %this1, i32 0, i32 3
  %24 = load i32*, i32** %table19, align 8
  %25 = load i32, i32* %i, align 4
  %idxprom20 = sext i32 %25 to i64
  %arrayidx21 = getelementptr inbounds i32, i32* %24, i64 %idxprom20
  store i32 %23, i32* %arrayidx21, align 4
  br label %for.inc

for.inc:                                          ; preds = %for.body
  %26 = load i32, i32* %i, align 4
  %inc = add nsw i32 %26, 1
  store i32 %inc, i32* %i, align 4
  br label %for.cond

for.end:                                          ; preds = %for.cond
  %count22 = getelementptr inbounds %class.FP_tree, %class.FP_tree* %this1, i32 0, i32 5
  %27 = load i32*, i32** %count22, align 8
  %table23 = getelementptr inbounds %class.FP_tree, %class.FP_tree* %this1, i32 0, i32 3
  %28 = load i32*, i32** %table23, align 8
  %29 = load i32, i32* @ITEM_NO, align 4
  %sub = sub nsw i32 %29, 1
  call void @_Z4sortPiS_ii(i32* %27, i32* %28, i32 0, i32 %sub)
  store i32 0, i32* %i, align 4
  br label %for.cond24

for.cond24:                                       ; preds = %for.inc31, %for.end
  %30 = load i32, i32* %i, align 4
  %31 = load i32, i32* @ITEM_NO, align 4
  %cmp25 = icmp slt i32 %30, %31
  br i1 %cmp25, label %land.rhs, label %land.end

land.rhs:                                         ; preds = %for.cond24
  %count26 = getelementptr inbounds %class.FP_tree, %class.FP_tree* %this1, i32 0, i32 5
  %32 = load i32*, i32** %count26, align 8
  %33 = load i32, i32* %i, align 4
  %idxprom27 = sext i32 %33 to i64
  %arrayidx28 = getelementptr inbounds i32, i32* %32, i64 %idxprom27
  %34 = load i32, i32* %arrayidx28, align 4
  %35 = load i32, i32* @THRESHOLD, align 4
  %cmp29 = icmp sge i32 %34, %35
  br label %land.end

land.end:                                         ; preds = %land.rhs, %for.cond24
  %36 = phi i1 [ false, %for.cond24 ], [ %cmp29, %land.rhs ]
  br i1 %36, label %for.body30, label %for.end33

for.body30:                                       ; preds = %land.end
  br label %for.inc31

for.inc31:                                        ; preds = %for.body30
  %37 = load i32, i32* %i, align 4
  %inc32 = add nsw i32 %37, 1
  store i32 %inc32, i32* %i, align 4
  br label %for.cond24

for.end33:                                        ; preds = %land.end
  %38 = load i32, i32* %i, align 4
  %itemno = getelementptr inbounds %class.FP_tree, %class.FP_tree* %this1, i32 0, i32 0
  store i32 %38, i32* %itemno, align 8
  store i32 0, i32* %j, align 4
  br label %for.cond34

for.cond34:                                       ; preds = %for.inc52, %for.end33
  %39 = load i32, i32* %j, align 4
  %itemno35 = getelementptr inbounds %class.FP_tree, %class.FP_tree* %this1, i32 0, i32 0
  %40 = load i32, i32* %itemno35, align 8
  %cmp36 = icmp slt i32 %39, %40
  br i1 %cmp36, label %for.body37, label %for.end54

for.body37:                                       ; preds = %for.cond34
  %41 = load i32*, i32** %counts, align 8
  %table38 = getelementptr inbounds %class.FP_tree, %class.FP_tree* %this1, i32 0, i32 3
  %42 = load i32*, i32** %table38, align 8
  %43 = load i32, i32* %j, align 4
  %idxprom39 = sext i32 %43 to i64
  %arrayidx40 = getelementptr inbounds i32, i32* %42, i64 %idxprom39
  %44 = load i32, i32* %arrayidx40, align 4
  %idxprom41 = sext i32 %44 to i64
  %arrayidx42 = getelementptr inbounds i32, i32* %41, i64 %idxprom41
  %45 = load i32, i32* %arrayidx42, align 4
  %count43 = getelementptr inbounds %class.FP_tree, %class.FP_tree* %this1, i32 0, i32 5
  %46 = load i32*, i32** %count43, align 8
  %47 = load i32, i32* %j, align 4
  %idxprom44 = sext i32 %47 to i64
  %arrayidx45 = getelementptr inbounds i32, i32* %46, i64 %idxprom44
  store i32 %45, i32* %arrayidx45, align 4
  %48 = load i32, i32* %j, align 4
  %order46 = getelementptr inbounds %class.FP_tree, %class.FP_tree* %this1, i32 0, i32 2
  %49 = load i32*, i32** %order46, align 8
  %table47 = getelementptr inbounds %class.FP_tree, %class.FP_tree* %this1, i32 0, i32 3
  %50 = load i32*, i32** %table47, align 8
  %51 = load i32, i32* %j, align 4
  %idxprom48 = sext i32 %51 to i64
  %arrayidx49 = getelementptr inbounds i32, i32* %50, i64 %idxprom48
  %52 = load i32, i32* %arrayidx49, align 4
  %idxprom50 = sext i32 %52 to i64
  %arrayidx51 = getelementptr inbounds i32, i32* %49, i64 %idxprom50
  store i32 %48, i32* %arrayidx51, align 4
  br label %for.inc52

for.inc52:                                        ; preds = %for.body37
  %53 = load i32, i32* %j, align 4
  %inc53 = add nsw i32 %53, 1
  store i32 %inc53, i32* %j, align 4
  br label %for.cond34

for.end54:                                        ; preds = %for.cond34
  %itemno55 = getelementptr inbounds %class.FP_tree, %class.FP_tree* %this1, i32 0, i32 0
  %54 = load i32, i32* %itemno55, align 8
  %55 = sext i32 %54 to i64
  %56 = call { i64, i1 } @llvm.umul.with.overflow.i64(i64 %55, i64 4)
  %57 = extractvalue { i64, i1 } %56, 1
  %58 = extractvalue { i64, i1 } %56, 0
  %59 = select i1 %57, i64 -1, i64 %58
  %call56 = call i8* @_Znam(i64 %59) #8
  %60 = bitcast i8* %call56 to i32*
  store i32* %60, i32** @order_item, align 8
  %61 = load i32, i32* @ITEM_NO, align 4
  %62 = sext i32 %61 to i64
  %63 = call { i64, i1 } @llvm.umul.with.overflow.i64(i64 %62, i64 4)
  %64 = extractvalue { i64, i1 } %63, 1
  %65 = extractvalue { i64, i1 } %63, 0
  %66 = select i1 %64, i64 -1, i64 %65
  %call57 = call i8* @_Znam(i64 %66) #8
  %67 = bitcast i8* %call57 to i32*
  store i32* %67, i32** @item_order, align 8
  store i32 0, i32* %i, align 4
  br label %for.cond58

for.cond58:                                       ; preds = %for.inc78, %for.end54
  %68 = load i32, i32* %i, align 4
  %itemno59 = getelementptr inbounds %class.FP_tree, %class.FP_tree* %this1, i32 0, i32 0
  %69 = load i32, i32* %itemno59, align 8
  %cmp60 = icmp slt i32 %68, %69
  br i1 %cmp60, label %for.body61, label %for.end80

for.body61:                                       ; preds = %for.cond58
  %table62 = getelementptr inbounds %class.FP_tree, %class.FP_tree* %this1, i32 0, i32 3
  %70 = load i32*, i32** %table62, align 8
  %71 = load i32, i32* %i, align 4
  %idxprom63 = sext i32 %71 to i64
  %arrayidx64 = getelementptr inbounds i32, i32* %70, i64 %idxprom63
  %72 = load i32, i32* %arrayidx64, align 4
  %73 = load i32*, i32** @order_item, align 8
  %74 = load i32, i32* %i, align 4
  %idxprom65 = sext i32 %74 to i64
  %arrayidx66 = getelementptr inbounds i32, i32* %73, i64 %idxprom65
  store i32 %72, i32* %arrayidx66, align 4
  %75 = load i32, i32* %i, align 4
  %table67 = getelementptr inbounds %class.FP_tree, %class.FP_tree* %this1, i32 0, i32 3
  %76 = load i32*, i32** %table67, align 8
  %77 = load i32, i32* %i, align 4
  %idxprom68 = sext i32 %77 to i64
  %arrayidx69 = getelementptr inbounds i32, i32* %76, i64 %idxprom68
  store i32 %75, i32* %arrayidx69, align 4
  %order70 = getelementptr inbounds %class.FP_tree, %class.FP_tree* %this1, i32 0, i32 2
  %78 = load i32*, i32** %order70, align 8
  %79 = load i32, i32* %i, align 4
  %idxprom71 = sext i32 %79 to i64
  %arrayidx72 = getelementptr inbounds i32, i32* %78, i64 %idxprom71
  %80 = load i32, i32* %arrayidx72, align 4
  %81 = load i32*, i32** @item_order, align 8
  %82 = load i32, i32* %i, align 4
  %idxprom73 = sext i32 %82 to i64
  %arrayidx74 = getelementptr inbounds i32, i32* %81, i64 %idxprom73
  store i32 %80, i32* %arrayidx74, align 4
  %83 = load i32, i32* %i, align 4
  %order75 = getelementptr inbounds %class.FP_tree, %class.FP_tree* %this1, i32 0, i32 2
  %84 = load i32*, i32** %order75, align 8
  %85 = load i32, i32* %i, align 4
  %idxprom76 = sext i32 %85 to i64
  %arrayidx77 = getelementptr inbounds i32, i32* %84, i64 %idxprom76
  store i32 %83, i32* %arrayidx77, align 4
  br label %for.inc78

for.inc78:                                        ; preds = %for.body61
  %86 = load i32, i32* %i, align 4
  %inc79 = add nsw i32 %86, 1
  store i32 %inc79, i32* %i, align 4
  br label %for.cond58

for.end80:                                        ; preds = %for.cond58
  br label %for.cond81

for.cond81:                                       ; preds = %for.inc92, %for.end80
  %87 = load i32, i32* %i, align 4
  %88 = load i32, i32* @ITEM_NO, align 4
  %cmp82 = icmp slt i32 %87, %88
  br i1 %cmp82, label %for.body83, label %for.end94

for.body83:                                       ; preds = %for.cond81
  %order84 = getelementptr inbounds %class.FP_tree, %class.FP_tree* %this1, i32 0, i32 2
  %89 = load i32*, i32** %order84, align 8
  %90 = load i32, i32* %i, align 4
  %idxprom85 = sext i32 %90 to i64
  %arrayidx86 = getelementptr inbounds i32, i32* %89, i64 %idxprom85
  %91 = load i32, i32* %arrayidx86, align 4
  %92 = load i32*, i32** @item_order, align 8
  %93 = load i32, i32* %i, align 4
  %idxprom87 = sext i32 %93 to i64
  %arrayidx88 = getelementptr inbounds i32, i32* %92, i64 %idxprom87
  store i32 %91, i32* %arrayidx88, align 4
  %order89 = getelementptr inbounds %class.FP_tree, %class.FP_tree* %this1, i32 0, i32 2
  %94 = load i32*, i32** %order89, align 8
  %95 = load i32, i32* %i, align 4
  %idxprom90 = sext i32 %95 to i64
  %arrayidx91 = getelementptr inbounds i32, i32* %94, i64 %idxprom90
  store i32 -1, i32* %arrayidx91, align 4
  br label %for.inc92

for.inc92:                                        ; preds = %for.body83
  %96 = load i32, i32* %i, align 4
  %inc93 = add nsw i32 %96, 1
  store i32 %inc93, i32* %i, align 4
  br label %for.cond81

for.end94:                                        ; preds = %for.cond81
  %itemno95 = getelementptr inbounds %class.FP_tree, %class.FP_tree* %this1, i32 0, i32 0
  %97 = load i32, i32* %itemno95, align 8
  store i32 %97, i32* @ITEM_NO, align 4
  %98 = load i32*, i32** %counts, align 8
  %isnull = icmp eq i32* %98, null
  br i1 %isnull, label %delete.end, label %delete.notnull

delete.notnull:                                   ; preds = %for.end94
  %99 = bitcast i32* %98 to i8*
  call void @_ZdaPv(i8* %99) #9
  br label %delete.end

delete.end:                                       ; preds = %delete.notnull, %for.end94
  %MC_tree = getelementptr inbounds %class.FP_tree, %class.FP_tree* %this1, i32 0, i32 9
  store i32 0, i32* %MC_tree, align 8
  %MR_tree = getelementptr inbounds %class.FP_tree, %class.FP_tree* %this1, i32 0, i32 10
  store i32 0, i32* %MR_tree, align 4
  %100 = load %class.memory**, %class.memory*** @fp_tree_buf, align 8
  %101 = load i32, i32* %thread, align 4
  %idxprom96 = sext i32 %101 to i64
  %arrayidx97 = getelementptr inbounds %class.memory*, %class.memory** %100, i64 %idxprom96
  %102 = load %class.memory*, %class.memory** %arrayidx97, align 8
  %MR_tree98 = getelementptr inbounds %class.FP_tree, %class.FP_tree* %this1, i32 0, i32 10
  %MC_tree99 = getelementptr inbounds %class.FP_tree, %class.FP_tree* %this1, i32 0, i32 9
  %call100 = call i8* @_ZN6memory7bufmarkEPjPi(%class.memory* %102, i32* %MR_tree98, i32* %MC_tree99)
  %MB_tree = getelementptr inbounds %class.FP_tree, %class.FP_tree* %this1, i32 0, i32 11
  store i8* %call100, i8** %MB_tree, align 8
  %num_hot_item = getelementptr inbounds %class.FP_tree, %class.FP_tree* %this1, i32 0, i32 15
  store i32 16, i32* %num_hot_item, align 8
  %num_hot_item101 = getelementptr inbounds %class.FP_tree, %class.FP_tree* %this1, i32 0, i32 15
  %103 = load i32, i32* %num_hot_item101, align 8
  %itemno102 = getelementptr inbounds %class.FP_tree, %class.FP_tree* %this1, i32 0, i32 0
  %104 = load i32, i32* %itemno102, align 8
  %cmp103 = icmp sgt i32 %103, %104
  br i1 %cmp103, label %if.then, label %if.end

if.then:                                          ; preds = %delete.end
  %itemno104 = getelementptr inbounds %class.FP_tree, %class.FP_tree* %this1, i32 0, i32 0
  %105 = load i32, i32* %itemno104, align 8
  %num_hot_item105 = getelementptr inbounds %class.FP_tree, %class.FP_tree* %this1, i32 0, i32 15
  store i32 %105, i32* %num_hot_item105, align 8
  br label %if.end

if.end:                                           ; preds = %if.then, %delete.end
  store i32 65536, i32* %num_hot_node, align 4
  %call106 = call i32 @_ZL19omp_get_max_threadsv()
  store i32 %call106, i32* %workingthread, align 4
  %106 = load %class.memory*, %class.memory** @database_buf, align 8
  %107 = load i32, i32* %workingthread, align 4
  %mul107 = mul nsw i32 %107, 3
  %conv108 = sext i32 %mul107 to i64
  %mul109 = mul i64 %conv108, 8
  %conv110 = trunc i64 %mul109 to i32
  %call111 = call i8* @_ZN6memory6newbufEjj(%class.memory* %106, i32 1, i32 %conv110)
  %108 = bitcast i8* %call111 to %class.MapFile**
  store %class.MapFile** %108, %class.MapFile*** @thread_mapfile, align 8
  %109 = load %class.MapFile**, %class.MapFile*** @thread_mapfile, align 8
  %110 = load i32, i32* %workingthread, align 4
  %idx.ext112 = sext i32 %110 to i64
  %add.ptr113 = getelementptr inbounds %class.MapFile*, %class.MapFile** %109, i64 %idx.ext112
  %111 = bitcast %class.MapFile** %add.ptr113 to i32**
  store i32** %111, i32*** @ntypearray, align 8
  %112 = load i32**, i32*** @ntypearray, align 8
  %113 = load i32, i32* %workingthread, align 4
  %idx.ext114 = sext i32 %113 to i64
  %add.ptr115 = getelementptr inbounds i32*, i32** %112, i64 %idx.ext114
  store i32** %add.ptr115, i32*** @threadntypeoffsetiter, align 8
  %114 = load %class.memory**, %class.memory*** @fp_tree_buf, align 8
  %arrayidx116 = getelementptr inbounds %class.memory*, %class.memory** %114, i64 0
  %115 = load %class.memory*, %class.memory** %arrayidx116, align 8
  %116 = load i32, i32* %workingthread, align 4
  %conv117 = sext i32 %116 to i64
  %mul118 = mul i64 %conv117, 16
  %conv119 = trunc i64 %mul118 to i32
  %call120 = call i8* @_ZN6memory6newbufEjj(%class.memory* %115, i32 1, i32 %conv119)
  %117 = bitcast i8* %call120 to i32*
  store i32* %117, i32** @first_MC_tree, align 8
  %118 = load i32*, i32** @first_MC_tree, align 8
  %119 = load i32, i32* %workingthread, align 4
  %idx.ext121 = sext i32 %119 to i64
  %add.ptr122 = getelementptr inbounds i32, i32* %118, i64 %idx.ext121
  %120 = bitcast i32* %add.ptr122 to i8**
  store i8** %120, i8*** @first_MB_tree, align 8
  %121 = load i8**, i8*** @first_MB_tree, align 8
  %122 = load i32, i32* %workingthread, align 4
  %idx.ext123 = sext i32 %122 to i64
  %add.ptr124 = getelementptr inbounds i8*, i8** %121, i64 %idx.ext123
  %123 = bitcast i8** %add.ptr124 to i32*
  store i32* %123, i32** @first_MR_tree, align 8
  store i32 0, i32* %i, align 4
  br label %for.cond125

for.cond125:                                      ; preds = %for.inc162, %if.end
  %124 = load i32, i32* %i, align 4
  %125 = load i32, i32* %workingthread, align 4
  %cmp126 = icmp slt i32 %124, %125
  br i1 %cmp126, label %for.body127, label %for.end164

for.body127:                                      ; preds = %for.cond125
  %126 = load %class.memory**, %class.memory*** @fp_tree_buf, align 8
  %127 = load i32, i32* %i, align 4
  %idxprom128 = sext i32 %127 to i64
  %arrayidx129 = getelementptr inbounds %class.memory*, %class.memory** %126, i64 %idxprom128
  %128 = load %class.memory*, %class.memory** %arrayidx129, align 8
  %129 = load i32*, i32** @first_MR_tree, align 8
  %130 = load i32, i32* %i, align 4
  %idxprom130 = sext i32 %130 to i64
  %arrayidx131 = getelementptr inbounds i32, i32* %129, i64 %idxprom130
  %131 = load i32*, i32** @first_MC_tree, align 8
  %132 = load i32, i32* %i, align 4
  %idxprom132 = sext i32 %132 to i64
  %arrayidx133 = getelementptr inbounds i32, i32* %131, i64 %idxprom132
  %call134 = call i8* @_ZN6memory7bufmarkEPjPi(%class.memory* %128, i32* %arrayidx131, i32* %arrayidx133)
  %133 = load i8**, i8*** @first_MB_tree, align 8
  %134 = load i32, i32* %i, align 4
  %idxprom135 = sext i32 %134 to i64
  %arrayidx136 = getelementptr inbounds i8*, i8** %133, i64 %idxprom135
  store i8* %call134, i8** %arrayidx136, align 8
  %135 = load %class.memory*, %class.memory** @database_buf, align 8
  %call137 = call i8* @_ZN6memory6newbufEjj(%class.memory* %135, i32 1, i32 524392)
  %136 = bitcast i8* %call137 to %class.MapFile*
  %137 = load %class.MapFile**, %class.MapFile*** @thread_mapfile, align 8
  %138 = load i32, i32* %i, align 4
  %idxprom138 = sext i32 %138 to i64
  %arrayidx139 = getelementptr inbounds %class.MapFile*, %class.MapFile** %137, i64 %idxprom138
  store %class.MapFile* %136, %class.MapFile** %arrayidx139, align 8
  %139 = load %class.MapFile**, %class.MapFile*** @thread_mapfile, align 8
  %140 = load i32, i32* %i, align 4
  %idxprom140 = sext i32 %140 to i64
  %arrayidx141 = getelementptr inbounds %class.MapFile*, %class.MapFile** %139, i64 %idxprom140
  %141 = load %class.MapFile*, %class.MapFile** %arrayidx141, align 8
  call void @_ZN7MapFile4initEv(%class.MapFile* %141)
  %142 = load %class.MapFile**, %class.MapFile*** @thread_mapfile, align 8
  %143 = load i32, i32* %i, align 4
  %idxprom142 = sext i32 %143 to i64
  %arrayidx143 = getelementptr inbounds %class.MapFile*, %class.MapFile** %142, i64 %idxprom142
  %144 = load %class.MapFile*, %class.MapFile** %arrayidx143, align 8
  %add.ptr144 = getelementptr inbounds %class.MapFile, %class.MapFile* %144, i64 1
  %145 = bitcast %class.MapFile* %add.ptr144 to %class.MapFileNode*
  %146 = load %class.MapFile**, %class.MapFile*** @thread_mapfile, align 8
  %147 = load i32, i32* %i, align 4
  %idxprom145 = sext i32 %147 to i64
  %arrayidx146 = getelementptr inbounds %class.MapFile*, %class.MapFile** %146, i64 %idxprom145
  %148 = load %class.MapFile*, %class.MapFile** %arrayidx146, align 8
  %first147 = getelementptr inbounds %class.MapFile, %class.MapFile* %148, i32 0, i32 0
  store %class.MapFileNode* %145, %class.MapFileNode** %first147, align 8
  %149 = load %class.MapFile**, %class.MapFile*** @thread_mapfile, align 8
  %150 = load i32, i32* %i, align 4
  %idxprom148 = sext i32 %150 to i64
  %arrayidx149 = getelementptr inbounds %class.MapFile*, %class.MapFile** %149, i64 %idxprom148
  %151 = load %class.MapFile*, %class.MapFile** %arrayidx149, align 8
  %first150 = getelementptr inbounds %class.MapFile, %class.MapFile* %151, i32 0, i32 0
  %152 = load %class.MapFileNode*, %class.MapFileNode** %first150, align 8
  call void @_ZN11MapFileNode4initEii(%class.MapFileNode* %152, i32 2000000, i32 2)
  %153 = load %class.MapFile**, %class.MapFile*** @thread_mapfile, align 8
  %154 = load i32, i32* %i, align 4
  %idxprom151 = sext i32 %154 to i64
  %arrayidx152 = getelementptr inbounds %class.MapFile*, %class.MapFile** %153, i64 %idxprom151
  %155 = load %class.MapFile*, %class.MapFile** %arrayidx152, align 8
  %first153 = getelementptr inbounds %class.MapFile, %class.MapFile* %155, i32 0, i32 0
  %156 = load %class.MapFileNode*, %class.MapFileNode** %first153, align 8
  %add.ptr154 = getelementptr inbounds %class.MapFileNode, %class.MapFileNode* %156, i64 1
  %157 = bitcast %class.MapFileNode* %add.ptr154 to i32*
  %158 = load i32**, i32*** @ntypearray, align 8
  %159 = load i32, i32* %i, align 4
  %idxprom155 = sext i32 %159 to i64
  %arrayidx156 = getelementptr inbounds i32*, i32** %158, i64 %idxprom155
  store i32* %157, i32** %arrayidx156, align 8
  %160 = load i32**, i32*** @ntypearray, align 8
  %161 = load i32, i32* %i, align 4
  %idxprom157 = sext i32 %161 to i64
  %arrayidx158 = getelementptr inbounds i32*, i32** %160, i64 %idxprom157
  %162 = load i32*, i32** %arrayidx158, align 8
  %add.ptr159 = getelementptr inbounds i32, i32* %162, i64 65536
  %163 = load i32**, i32*** @threadntypeoffsetiter, align 8
  %164 = load i32, i32* %i, align 4
  %idxprom160 = sext i32 %164 to i64
  %arrayidx161 = getelementptr inbounds i32*, i32** %163, i64 %idxprom160
  store i32* %add.ptr159, i32** %arrayidx161, align 8
  br label %for.inc162

for.inc162:                                       ; preds = %for.body127
  %165 = load i32, i32* %i, align 4
  %inc163 = add nsw i32 %165, 1
  store i32 %inc163, i32* %i, align 4
  br label %for.cond125

for.end164:                                       ; preds = %for.cond125
  %166 = load %class.memory**, %class.memory*** @fp_buf, align 8
  %167 = load i32, i32* %thread, align 4
  %idxprom165 = sext i32 %167 to i64
  %arrayidx166 = getelementptr inbounds %class.memory*, %class.memory** %166, i64 %idxprom165
  %168 = load %class.memory*, %class.memory** %arrayidx166, align 8
  %169 = load i32, i32* %workingthread, align 4
  %mul167 = mul nsw i32 %169, 25
  %conv168 = sext i32 %mul167 to i64
  %mul169 = mul i64 %conv168, 8
  %itemno170 = getelementptr inbounds %class.FP_tree, %class.FP_tree* %this1, i32 0, i32 0
  %170 = load i32, i32* %itemno170, align 8
  %mul171 = mul nsw i32 %170, 2
  %conv172 = sext i32 %mul171 to i64
  %mul173 = mul i64 %conv172, 8
  %add = add i64 %mul169, %mul173
  %171 = load i32, i32* %num_hot_node, align 4
  %mul174 = mul nsw i32 %171, 2
  %conv175 = sext i32 %mul174 to i64
  %mul176 = mul i64 %conv175, 8
  %add177 = add i64 %add, %mul176
  %conv178 = trunc i64 %add177 to i32
  %call179 = call i8* @_ZN6memory6newbufEjj(%class.memory* %168, i32 1, i32 %conv178)
  %172 = bitcast i8* %call179 to i32***
  store i32*** %172, i32**** @currentnodeiter, align 8
  %173 = load i32***, i32**** @currentnodeiter, align 8
  %174 = load i32, i32* %workingthread, align 4
  %idx.ext180 = sext i32 %174 to i64
  %add.ptr181 = getelementptr inbounds i32**, i32*** %173, i64 %idx.ext180
  %175 = bitcast i32*** %add.ptr181 to i32**
  store i32** %175, i32*** @itemstack, align 8
  %176 = load i32**, i32*** @itemstack, align 8
  %177 = load i32, i32* %workingthread, align 4
  %idx.ext182 = sext i32 %177 to i64
  %add.ptr183 = getelementptr inbounds i32*, i32** %176, i64 %idx.ext182
  store i32** %add.ptr183, i32*** @origin, align 8
  %178 = load i32**, i32*** @origin, align 8
  %179 = load i32, i32* %workingthread, align 4
  %idx.ext184 = sext i32 %179 to i64
  %add.ptr185 = getelementptr inbounds i32*, i32** %178, i64 %idx.ext184
  store i32** %add.ptr185, i32*** @global_count_array, align 8
  %180 = load i32**, i32*** @global_count_array, align 8
  %181 = load i32, i32* %workingthread, align 4
  %idx.ext186 = sext i32 %181 to i64
  %add.ptr187 = getelementptr inbounds i32*, i32** %180, i64 %idx.ext186
  store i32** %add.ptr187, i32*** @global_temp_order_array, align 8
  %182 = load i32**, i32*** @global_temp_order_array, align 8
  %183 = load i32, i32* %workingthread, align 4
  %idx.ext188 = sext i32 %183 to i64
  %add.ptr189 = getelementptr inbounds i32*, i32** %182, i64 %idx.ext188
  store i32** %add.ptr189, i32*** @global_order_array, align 8
  %184 = load i32**, i32*** @global_order_array, align 8
  %185 = load i32, i32* %workingthread, align 4
  %idx.ext190 = sext i32 %185 to i64
  %add.ptr191 = getelementptr inbounds i32*, i32** %184, i64 %idx.ext190
  store i32** %add.ptr191, i32*** @global_table_array, align 8
  %186 = load i32**, i32*** @global_table_array, align 8
  %187 = load i32, i32* %workingthread, align 4
  %idx.ext192 = sext i32 %187 to i64
  %add.ptr193 = getelementptr inbounds i32*, i32** %186, i64 %idx.ext192
  store i32** %add.ptr193, i32*** @hot_node_count, align 8
  %188 = load i32**, i32*** @hot_node_count, align 8
  %189 = load i32, i32* %workingthread, align 4
  %idx.ext194 = sext i32 %189 to i64
  %add.ptr195 = getelementptr inbounds i32*, i32** %188, i64 %idx.ext194
  store i32** %add.ptr195, i32*** @supp, align 8
  %190 = load i32**, i32*** @supp, align 8
  %191 = load i32, i32* %workingthread, align 4
  %idx.ext196 = sext i32 %191 to i64
  %add.ptr197 = getelementptr inbounds i32*, i32** %190, i64 %idx.ext196
  store i32** %add.ptr197, i32*** @ITlen, align 8
  %192 = load i32**, i32*** @ITlen, align 8
  %193 = load i32, i32* %workingthread, align 4
  %idx.ext198 = sext i32 %193 to i64
  %add.ptr199 = getelementptr inbounds i32*, i32** %192, i64 %idx.ext198
  store i32** %add.ptr199, i32*** @bran, align 8
  %194 = load i32**, i32*** @bran, align 8
  %195 = load i32, i32* %workingthread, align 4
  %idx.ext200 = sext i32 %195 to i64
  %add.ptr201 = getelementptr inbounds i32*, i32** %194, i64 %idx.ext200
  store i32** %add.ptr201, i32*** @compact, align 8
  %196 = load i32**, i32*** @compact, align 8
  %197 = load i32, i32* %workingthread, align 4
  %idx.ext202 = sext i32 %197 to i64
  %add.ptr203 = getelementptr inbounds i32*, i32** %196, i64 %idx.ext202
  store i32** %add.ptr203, i32*** @prefix, align 8
  %198 = load i32**, i32*** @prefix, align 8
  %199 = load i32, i32* %workingthread, align 4
  %idx.ext204 = sext i32 %199 to i64
  %add.ptr205 = getelementptr inbounds i32*, i32** %198, i64 %idx.ext204
  store i32** %add.ptr205, i32*** @rightsib_backpatch_count, align 8
  %200 = load i32**, i32*** @rightsib_backpatch_count, align 8
  %201 = load i32, i32* %workingthread, align 4
  %idx.ext206 = sext i32 %201 to i64
  %add.ptr207 = getelementptr inbounds i32*, i32** %200, i64 %idx.ext206
  store i32** %add.ptr207, i32*** @sum_item_num, align 8
  %202 = load i32**, i32*** @sum_item_num, align 8
  %203 = load i32, i32* %workingthread, align 4
  %idx.ext208 = sext i32 %203 to i64
  %add.ptr209 = getelementptr inbounds i32*, i32** %202, i64 %idx.ext208
  store i32** %add.ptr209, i32*** @new_data_num, align 8
  %204 = load i32**, i32*** @new_data_num, align 8
  %205 = load i32, i32* %workingthread, align 4
  %idx.ext210 = sext i32 %205 to i64
  %add.ptr211 = getelementptr inbounds i32*, i32** %204, i64 %idx.ext210
  %206 = bitcast i32** %add.ptr211 to %class.stack**
  store %class.stack** %206, %class.stack*** @list, align 8
  %207 = load %class.stack**, %class.stack*** @list, align 8
  %208 = load i32, i32* %workingthread, align 4
  %idx.ext212 = sext i32 %208 to i64
  %add.ptr213 = getelementptr inbounds %class.stack*, %class.stack** %207, i64 %idx.ext212
  %209 = bitcast %class.stack** %add.ptr213 to %class.Fnode***
  store %class.Fnode*** %209, %class.Fnode**** @hashtable, align 8
  %210 = load %class.Fnode***, %class.Fnode**** @hashtable, align 8
  %211 = load i32, i32* %workingthread, align 4
  %idx.ext214 = sext i32 %211 to i64
  %add.ptr215 = getelementptr inbounds %class.Fnode**, %class.Fnode*** %210, i64 %idx.ext214
  store %class.Fnode*** %add.ptr215, %class.Fnode**** @nodestack, align 8
  %212 = load %class.Fnode***, %class.Fnode**** @nodestack, align 8
  %213 = load i32, i32* %workingthread, align 4
  %idx.ext216 = sext i32 %213 to i64
  %add.ptr217 = getelementptr inbounds %class.Fnode**, %class.Fnode*** %212, i64 %idx.ext216
  %214 = bitcast %class.Fnode*** %add.ptr217 to %class.Fnode****
  store %class.Fnode**** %214, %class.Fnode***** @fast_rightsib_table, align 8
  %215 = load %class.Fnode****, %class.Fnode***** @fast_rightsib_table, align 8
  %216 = load i32, i32* %workingthread, align 4
  %idx.ext218 = sext i32 %216 to i64
  %add.ptr219 = getelementptr inbounds %class.Fnode***, %class.Fnode**** %215, i64 %idx.ext218
  store %class.Fnode**** %add.ptr219, %class.Fnode***** @rightsib_backpatch_stack, align 8
  %217 = load %class.Fnode****, %class.Fnode***** @rightsib_backpatch_stack, align 8
  %218 = load i32, i32* %workingthread, align 4
  %idx.ext220 = sext i32 %218 to i64
  %add.ptr221 = getelementptr inbounds %class.Fnode***, %class.Fnode**** %217, i64 %idx.ext220
  %219 = bitcast %class.Fnode**** %add.ptr221 to i32*
  %nodenum = getelementptr inbounds %class.FP_tree, %class.FP_tree* %this1, i32 0, i32 8
  store i32* %219, i32** %nodenum, align 8
  %nodenum222 = getelementptr inbounds %class.FP_tree, %class.FP_tree* %this1, i32 0, i32 8
  %220 = load i32*, i32** %nodenum222, align 8
  %itemno223 = getelementptr inbounds %class.FP_tree, %class.FP_tree* %this1, i32 0, i32 0
  %221 = load i32, i32* %itemno223, align 8
  %idx.ext224 = sext i32 %221 to i64
  %add.ptr225 = getelementptr inbounds i32, i32* %220, i64 %idx.ext224
  %222 = bitcast i32* %add.ptr225 to i32**
  %NodeArrayList = getelementptr inbounds %class.FP_tree, %class.FP_tree* %this1, i32 0, i32 6
  store i32** %222, i32*** %NodeArrayList, align 8
  %NodeArrayList226 = getelementptr inbounds %class.FP_tree, %class.FP_tree* %this1, i32 0, i32 6
  %223 = load i32**, i32*** %NodeArrayList226, align 8
  %itemno227 = getelementptr inbounds %class.FP_tree, %class.FP_tree* %this1, i32 0, i32 0
  %224 = load i32, i32* %itemno227, align 8
  %idx.ext228 = sext i32 %224 to i64
  %add.ptr229 = getelementptr inbounds i32*, i32** %223, i64 %idx.ext228
  %225 = bitcast i32** %add.ptr229 to i32*
  store i32* %225, i32** @thread_finish_status, align 8
  %226 = load i32*, i32** @thread_finish_status, align 8
  %227 = load i32, i32* %workingthread, align 4
  %idx.ext230 = sext i32 %227 to i64
  %add.ptr231 = getelementptr inbounds i32, i32* %226, i64 %idx.ext230
  store i32* %add.ptr231, i32** @thread_begin_status, align 8
  %228 = load i32*, i32** @thread_begin_status, align 8
  %229 = load i32, i32* %workingthread, align 4
  %idx.ext232 = sext i32 %229 to i64
  %add.ptr233 = getelementptr inbounds i32, i32* %228, i64 %idx.ext232
  store i32* %add.ptr233, i32** @hot_node_depth, align 8
  %230 = load i32*, i32** @hot_node_depth, align 8
  %231 = load i32, i32* %num_hot_node, align 4
  %idx.ext234 = sext i32 %231 to i64
  %add.ptr235 = getelementptr inbounds i32, i32* %230, i64 %idx.ext234
  store i32* %add.ptr235, i32** @hot_node_index, align 8
  %232 = load i32*, i32** @hot_node_index, align 8
  %233 = load i32, i32* %num_hot_node, align 4
  %idx.ext236 = sext i32 %233 to i64
  %add.ptr237 = getelementptr inbounds i32, i32* %232, i64 %idx.ext236
  %234 = bitcast i32* %add.ptr237 to i32**
  store i32** %234, i32*** @global_nodenum, align 8
  store i32 0, i32* %i, align 4
  br label %for.cond238

for.cond238:                                      ; preds = %for.inc252, %for.end164
  %235 = load i32, i32* %i, align 4
  %236 = load i32, i32* %workingthread, align 4
  %cmp239 = icmp slt i32 %235, %236
  br i1 %cmp239, label %for.body240, label %for.end254

for.body240:                                      ; preds = %for.cond238
  %call241 = call i8* @_Znwm(i64 24) #8
  %237 = bitcast i8* %call241 to %class.stack*
  %itemno242 = getelementptr inbounds %class.FP_tree, %class.FP_tree* %this1, i32 0, i32 0
  %238 = load i32, i32* %itemno242, align 8
  invoke void @_ZN5stackC1Ei(%class.stack* %237, i32 %238)
          to label %invoke.cont unwind label %lpad

invoke.cont:                                      ; preds = %for.body240
  %239 = load %class.stack**, %class.stack*** @list, align 8
  %240 = load i32, i32* %i, align 4
  %idxprom243 = sext i32 %240 to i64
  %arrayidx244 = getelementptr inbounds %class.stack*, %class.stack** %239, i64 %idxprom243
  store %class.stack* %237, %class.stack** %arrayidx244, align 8
  %itemno245 = getelementptr inbounds %class.FP_tree, %class.FP_tree* %this1, i32 0, i32 0
  %241 = load i32, i32* %itemno245, align 8
  %242 = load i32*, i32** @thread_finish_status, align 8
  %243 = load i32, i32* %i, align 4
  %idxprom246 = sext i32 %243 to i64
  %arrayidx247 = getelementptr inbounds i32, i32* %242, i64 %idxprom246
  store i32 %241, i32* %arrayidx247, align 4
  %itemno248 = getelementptr inbounds %class.FP_tree, %class.FP_tree* %this1, i32 0, i32 0
  %244 = load i32, i32* %itemno248, align 8
  %sub249 = sub nsw i32 %244, 1
  %245 = load i32*, i32** @thread_begin_status, align 8
  %246 = load i32, i32* %i, align 4
  %idxprom250 = sext i32 %246 to i64
  %arrayidx251 = getelementptr inbounds i32, i32* %245, i64 %idxprom250
  store i32 %sub249, i32* %arrayidx251, align 4
  br label %for.inc252

for.inc252:                                       ; preds = %invoke.cont
  %247 = load i32, i32* %i, align 4
  %inc253 = add nsw i32 %247, 1
  store i32 %inc253, i32* %i, align 4
  br label %for.cond238

lpad:                                             ; preds = %for.body240
  %248 = landingpad { i8*, i32 }
          cleanup
  %249 = extractvalue { i8*, i32 } %248, 0
  store i8* %249, i8** %exn.slot, align 8
  %250 = extractvalue { i8*, i32 } %248, 1
  store i32 %250, i32* %ehselector.slot, align 4
  call void @_ZdlPv(i8* %call241) #9
  br label %eh.resume

for.end254:                                       ; preds = %for.cond238
  %itemno255 = getelementptr inbounds %class.FP_tree, %class.FP_tree* %this1, i32 0, i32 0
  %251 = load i32, i32* %itemno255, align 8
  store i32 %251, i32* @released_pos, align 4
  store i32 0, i32* %i, align 4
  br label %for.cond256

for.cond256:                                      ; preds = %for.inc263, %for.end254
  %252 = load i32, i32* %i, align 4
  %itemno257 = getelementptr inbounds %class.FP_tree, %class.FP_tree* %this1, i32 0, i32 0
  %253 = load i32, i32* %itemno257, align 8
  %cmp258 = icmp slt i32 %252, %253
  br i1 %cmp258, label %for.body259, label %for.end265

for.body259:                                      ; preds = %for.cond256
  %nodenum260 = getelementptr inbounds %class.FP_tree, %class.FP_tree* %this1, i32 0, i32 8
  %254 = load i32*, i32** %nodenum260, align 8
  %255 = load i32, i32* %i, align 4
  %idxprom261 = sext i32 %255 to i64
  %arrayidx262 = getelementptr inbounds i32, i32* %254, i64 %idxprom261
  store i32 0, i32* %arrayidx262, align 4
  br label %for.inc263

for.inc263:                                       ; preds = %for.body259
  %256 = load i32, i32* %i, align 4
  %inc264 = add nsw i32 %256, 1
  store i32 %inc264, i32* %i, align 4
  br label %for.cond256

for.end265:                                       ; preds = %for.cond256
  store i32 1, i32* %i, align 4
  br label %for.cond266

for.cond266:                                      ; preds = %for.inc295, %for.end265
  %257 = load i32, i32* %i, align 4
  %258 = load i32, i32* %num_hot_node, align 4
  %cmp267 = icmp slt i32 %257, %258
  br i1 %cmp267, label %for.body268, label %for.end297

for.body268:                                      ; preds = %for.cond266
  %259 = load i32*, i32** @hot_node_depth, align 8
  %260 = load i32, i32* %i, align 4
  %idxprom269 = sext i32 %260 to i64
  %arrayidx270 = getelementptr inbounds i32, i32* %259, i64 %idxprom269
  store i32 0, i32* %arrayidx270, align 4
  %num_hot_item271 = getelementptr inbounds %class.FP_tree, %class.FP_tree* %this1, i32 0, i32 15
  %261 = load i32, i32* %num_hot_item271, align 8
  %sub272 = sub nsw i32 %261, 1
  %shl = shl i32 1, %sub272
  store i32 %shl, i32* %j, align 4
  br label %for.cond273

for.cond273:                                      ; preds = %for.inc282, %for.body268
  %262 = load i32, i32* %j, align 4
  %cmp274 = icmp ne i32 %262, 0
  br i1 %cmp274, label %for.body275, label %for.end283

for.body275:                                      ; preds = %for.cond273
  %263 = load i32, i32* %j, align 4
  %264 = load i32, i32* %i, align 4
  %and = and i32 %263, %264
  %cmp276 = icmp ne i32 %and, 0
  br i1 %cmp276, label %if.then277, label %if.end281

if.then277:                                       ; preds = %for.body275
  %265 = load i32*, i32** @hot_node_depth, align 8
  %266 = load i32, i32* %i, align 4
  %idxprom278 = sext i32 %266 to i64
  %arrayidx279 = getelementptr inbounds i32, i32* %265, i64 %idxprom278
  %267 = load i32, i32* %arrayidx279, align 4
  %inc280 = add nsw i32 %267, 1
  store i32 %inc280, i32* %arrayidx279, align 4
  br label %if.end281

if.end281:                                        ; preds = %if.then277, %for.body275
  br label %for.inc282

for.inc282:                                       ; preds = %if.end281
  %268 = load i32, i32* %j, align 4
  %shr = ashr i32 %268, 1
  store i32 %shr, i32* %j, align 4
  br label %for.cond273

for.end283:                                       ; preds = %for.cond273
  %num_hot_item284 = getelementptr inbounds %class.FP_tree, %class.FP_tree* %this1, i32 0, i32 15
  %269 = load i32, i32* %num_hot_item284, align 8
  %sub285 = sub nsw i32 %269, 1
  store i32 %sub285, i32* %j, align 4
  br label %for.cond286

for.cond286:                                      ; preds = %for.inc291, %for.end283
  %270 = load i32, i32* %j, align 4
  %shl287 = shl i32 1, %270
  %271 = load i32, i32* %i, align 4
  %and288 = and i32 %shl287, %271
  %cmp289 = icmp eq i32 %and288, 0
  br i1 %cmp289, label %for.body290, label %for.end292

for.body290:                                      ; preds = %for.cond286
  br label %for.inc291

for.inc291:                                       ; preds = %for.body290
  %272 = load i32, i32* %j, align 4
  %dec = add nsw i32 %272, -1
  store i32 %dec, i32* %j, align 4
  br label %for.cond286

for.end292:                                       ; preds = %for.cond286
  %273 = load i32, i32* %j, align 4
  %274 = load i32*, i32** @hot_node_index, align 8
  %275 = load i32, i32* %i, align 4
  %idxprom293 = sext i32 %275 to i64
  %arrayidx294 = getelementptr inbounds i32, i32* %274, i64 %idxprom293
  store i32 %273, i32* %arrayidx294, align 4
  br label %for.inc295

for.inc295:                                       ; preds = %for.end292
  %276 = load i32, i32* %i, align 4
  %inc296 = add nsw i32 %276, 1
  store i32 %inc296, i32* %i, align 4
  br label %for.cond266

for.end297:                                       ; preds = %for.cond266
  %277 = load i32*, i32** @hot_node_depth, align 8
  %arrayidx298 = getelementptr inbounds i32, i32* %277, i64 0
  store i32 0, i32* %arrayidx298, align 4
  store i32 0, i32* %k, align 4
  br label %for.cond299

for.cond299:                                      ; preds = %for.inc559, %for.end297
  %278 = load i32, i32* %k, align 4
  %279 = load i32, i32* %workingthread, align 4
  %cmp300 = icmp slt i32 %278, %279
  br i1 %cmp300, label %for.body301, label %for.end561

for.body301:                                      ; preds = %for.cond299
  br label %do.body

do.body:                                          ; preds = %for.body301
  %280 = bitcast %struct.cpu_set_t* %cpu_mask to i8*
  call void @llvm.memset.p0i8.i64(i8* %280, i8 0, i64 128, i32 8, i1 false)
  br label %do.end

do.end:                                           ; preds = %do.body
  %281 = load i32, i32* %k, align 4
  %conv303 = sext i32 %281 to i64
  store i64 %conv303, i64* %__cpu, align 8
  %282 = load i64, i64* %__cpu, align 8
  %div = udiv i64 %282, 8
  %cmp304 = icmp ult i64 %div, 128
  br i1 %cmp304, label %cond.true, label %cond.false

cond.true:                                        ; preds = %do.end
  %283 = load i64, i64* %__cpu, align 8
  %rem = urem i64 %283, 64
  %shl305 = shl i64 1, %rem
  %__bits = getelementptr inbounds %struct.cpu_set_t, %struct.cpu_set_t* %cpu_mask, i32 0, i32 0
  %arraydecay = getelementptr inbounds [16 x i64], [16 x i64]* %__bits, i32 0, i32 0
  %284 = load i64, i64* %__cpu, align 8
  %div306 = udiv i64 %284, 64
  %arrayidx307 = getelementptr inbounds i64, i64* %arraydecay, i64 %div306
  %285 = load i64, i64* %arrayidx307, align 8
  %or = or i64 %285, %shl305
  store i64 %or, i64* %arrayidx307, align 8
  br label %cond.end

cond.false:                                       ; preds = %do.end
  br label %cond.end

cond.end:                                         ; preds = %cond.false, %cond.true
  %cond = phi i64 [ %or, %cond.true ], [ 0, %cond.false ]
  store i64 %cond, i64* %tmp, align 8
  %286 = load i64, i64* %tmp, align 8
  %287 = load i32, i32* %k, align 4
  %call308 = call i32 @sched_setaffinity(i32 %287, i64 128, %struct.cpu_set_t* %cpu_mask) #10
  %288 = load %class.memory**, %class.memory*** @fp_buf, align 8
  %289 = load i32, i32* %k, align 4
  %idxprom309 = sext i32 %289 to i64
  %arrayidx310 = getelementptr inbounds %class.memory*, %class.memory** %288, i64 %idxprom309
  %290 = load %class.memory*, %class.memory** %arrayidx310, align 8
  %itemno311 = getelementptr inbounds %class.FP_tree, %class.FP_tree* %this1, i32 0, i32 0
  %291 = load i32, i32* %itemno311, align 8
  %mul312 = mul nsw i32 %291, 30
  %conv313 = sext i32 %mul312 to i64
  %mul314 = mul i64 %conv313, 8
  %292 = load i32, i32* %num_hot_node, align 4
  %mul315 = mul nsw i32 %292, 2
  %conv316 = sext i32 %mul315 to i64
  %mul317 = mul i64 %conv316, 8
  %add318 = add i64 %mul314, %mul317
  %itemno319 = getelementptr inbounds %class.FP_tree, %class.FP_tree* %this1, i32 0, i32 0
  %293 = load i32, i32* %itemno319, align 8
  %mul320 = mul nsw i32 16, %293
  %conv321 = sext i32 %mul320 to i64
  %mul322 = mul i64 %conv321, 8
  %add323 = add i64 %add318, %mul322
  %add324 = add i64 %add323, 16
  %add325 = add i64 %add324, 24
  %conv326 = trunc i64 %add325 to i32
  %call327 = call i8* @_ZN6memory6newbufEjj(%class.memory* %290, i32 1, i32 %conv326)
  %294 = bitcast i8* %call327 to i32**
  %295 = load i32***, i32**** @currentnodeiter, align 8
  %296 = load i32, i32* %k, align 4
  %idxprom328 = sext i32 %296 to i64
  %arrayidx329 = getelementptr inbounds i32**, i32*** %295, i64 %idxprom328
  store i32** %294, i32*** %arrayidx329, align 8
  %297 = load i32***, i32**** @currentnodeiter, align 8
  %298 = load i32, i32* %k, align 4
  %idxprom330 = sext i32 %298 to i64
  %arrayidx331 = getelementptr inbounds i32**, i32*** %297, i64 %idxprom330
  %299 = load i32**, i32*** %arrayidx331, align 8
  %itemno332 = getelementptr inbounds %class.FP_tree, %class.FP_tree* %this1, i32 0, i32 0
  %300 = load i32, i32* %itemno332, align 8
  %idx.ext333 = sext i32 %300 to i64
  %add.ptr334 = getelementptr inbounds i32*, i32** %299, i64 %idx.ext333
  %301 = bitcast i32** %add.ptr334 to %class.Fnode**
  %302 = load %class.Fnode***, %class.Fnode**** @nodestack, align 8
  %303 = load i32, i32* %k, align 4
  %idxprom335 = sext i32 %303 to i64
  %arrayidx336 = getelementptr inbounds %class.Fnode**, %class.Fnode*** %302, i64 %idxprom335
  store %class.Fnode** %301, %class.Fnode*** %arrayidx336, align 8
  %304 = load %class.Fnode***, %class.Fnode**** @nodestack, align 8
  %305 = load i32, i32* %k, align 4
  %idxprom337 = sext i32 %305 to i64
  %arrayidx338 = getelementptr inbounds %class.Fnode**, %class.Fnode*** %304, i64 %idxprom337
  %306 = load %class.Fnode**, %class.Fnode*** %arrayidx338, align 8
  %itemno339 = getelementptr inbounds %class.FP_tree, %class.FP_tree* %this1, i32 0, i32 0
  %307 = load i32, i32* %itemno339, align 8
  %idx.ext340 = sext i32 %307 to i64
  %add.ptr341 = getelementptr inbounds %class.Fnode*, %class.Fnode** %306, i64 %idx.ext340
  %308 = bitcast %class.Fnode** %add.ptr341 to i32*
  %309 = load i32**, i32*** @itemstack, align 8
  %310 = load i32, i32* %k, align 4
  %idxprom342 = sext i32 %310 to i64
  %arrayidx343 = getelementptr inbounds i32*, i32** %309, i64 %idxprom342
  store i32* %308, i32** %arrayidx343, align 8
  %311 = load i32**, i32*** @itemstack, align 8
  %312 = load i32, i32* %k, align 4
  %idxprom344 = sext i32 %312 to i64
  %arrayidx345 = getelementptr inbounds i32*, i32** %311, i64 %idxprom344
  %313 = load i32*, i32** %arrayidx345, align 8
  %itemno346 = getelementptr inbounds %class.FP_tree, %class.FP_tree* %this1, i32 0, i32 0
  %314 = load i32, i32* %itemno346, align 8
  %idx.ext347 = sext i32 %314 to i64
  %add.ptr348 = getelementptr inbounds i32, i32* %313, i64 %idx.ext347
  %315 = load i32**, i32*** @global_count_array, align 8
  %316 = load i32, i32* %k, align 4
  %idxprom349 = sext i32 %316 to i64
  %arrayidx350 = getelementptr inbounds i32*, i32** %315, i64 %idxprom349
  store i32* %add.ptr348, i32** %arrayidx350, align 8
  %317 = load i32**, i32*** @global_count_array, align 8
  %318 = load i32, i32* %k, align 4
  %idxprom351 = sext i32 %318 to i64
  %arrayidx352 = getelementptr inbounds i32*, i32** %317, i64 %idxprom351
  %319 = load i32*, i32** %arrayidx352, align 8
  %itemno353 = getelementptr inbounds %class.FP_tree, %class.FP_tree* %this1, i32 0, i32 0
  %320 = load i32, i32* %itemno353, align 8
  %idx.ext354 = sext i32 %320 to i64
  %add.ptr355 = getelementptr inbounds i32, i32* %319, i64 %idx.ext354
  %321 = load i32**, i32*** @global_table_array, align 8
  %322 = load i32, i32* %k, align 4
  %idxprom356 = sext i32 %322 to i64
  %arrayidx357 = getelementptr inbounds i32*, i32** %321, i64 %idxprom356
  store i32* %add.ptr355, i32** %arrayidx357, align 8
  %323 = load i32**, i32*** @global_table_array, align 8
  %324 = load i32, i32* %k, align 4
  %idxprom358 = sext i32 %324 to i64
  %arrayidx359 = getelementptr inbounds i32*, i32** %323, i64 %idxprom358
  %325 = load i32*, i32** %arrayidx359, align 8
  %itemno360 = getelementptr inbounds %class.FP_tree, %class.FP_tree* %this1, i32 0, i32 0
  %326 = load i32, i32* %itemno360, align 8
  %idx.ext361 = sext i32 %326 to i64
  %add.ptr362 = getelementptr inbounds i32, i32* %325, i64 %idx.ext361
  %327 = load i32**, i32*** @global_temp_order_array, align 8
  %328 = load i32, i32* %k, align 4
  %idxprom363 = sext i32 %328 to i64
  %arrayidx364 = getelementptr inbounds i32*, i32** %327, i64 %idxprom363
  store i32* %add.ptr362, i32** %arrayidx364, align 8
  %329 = load i32**, i32*** @global_temp_order_array, align 8
  %330 = load i32, i32* %k, align 4
  %idxprom365 = sext i32 %330 to i64
  %arrayidx366 = getelementptr inbounds i32*, i32** %329, i64 %idxprom365
  %331 = load i32*, i32** %arrayidx366, align 8
  %itemno367 = getelementptr inbounds %class.FP_tree, %class.FP_tree* %this1, i32 0, i32 0
  %332 = load i32, i32* %itemno367, align 8
  %idx.ext368 = sext i32 %332 to i64
  %add.ptr369 = getelementptr inbounds i32, i32* %331, i64 %idx.ext368
  %333 = load i32**, i32*** @global_order_array, align 8
  %334 = load i32, i32* %k, align 4
  %idxprom370 = sext i32 %334 to i64
  %arrayidx371 = getelementptr inbounds i32*, i32** %333, i64 %idxprom370
  store i32* %add.ptr369, i32** %arrayidx371, align 8
  %335 = load i32**, i32*** @global_order_array, align 8
  %336 = load i32, i32* %k, align 4
  %idxprom372 = sext i32 %336 to i64
  %arrayidx373 = getelementptr inbounds i32*, i32** %335, i64 %idxprom372
  %337 = load i32*, i32** %arrayidx373, align 8
  %itemno374 = getelementptr inbounds %class.FP_tree, %class.FP_tree* %this1, i32 0, i32 0
  %338 = load i32, i32* %itemno374, align 8
  %idx.ext375 = sext i32 %338 to i64
  %add.ptr376 = getelementptr inbounds i32, i32* %337, i64 %idx.ext375
  %339 = load i32**, i32*** @supp, align 8
  %340 = load i32, i32* %k, align 4
  %idxprom377 = sext i32 %340 to i64
  %arrayidx378 = getelementptr inbounds i32*, i32** %339, i64 %idxprom377
  store i32* %add.ptr376, i32** %arrayidx378, align 8
  %341 = load i32**, i32*** @supp, align 8
  %342 = load i32, i32* %k, align 4
  %idxprom379 = sext i32 %342 to i64
  %arrayidx380 = getelementptr inbounds i32*, i32** %341, i64 %idxprom379
  %343 = load i32*, i32** %arrayidx380, align 8
  %itemno381 = getelementptr inbounds %class.FP_tree, %class.FP_tree* %this1, i32 0, i32 0
  %344 = load i32, i32* %itemno381, align 8
  %idx.ext382 = sext i32 %344 to i64
  %add.ptr383 = getelementptr inbounds i32, i32* %343, i64 %idx.ext382
  %345 = load i32**, i32*** @ITlen, align 8
  %346 = load i32, i32* %k, align 4
  %idxprom384 = sext i32 %346 to i64
  %arrayidx385 = getelementptr inbounds i32*, i32** %345, i64 %idxprom384
  store i32* %add.ptr383, i32** %arrayidx385, align 8
  %347 = load i32**, i32*** @ITlen, align 8
  %348 = load i32, i32* %k, align 4
  %idxprom386 = sext i32 %348 to i64
  %arrayidx387 = getelementptr inbounds i32*, i32** %347, i64 %idxprom386
  %349 = load i32*, i32** %arrayidx387, align 8
  %itemno388 = getelementptr inbounds %class.FP_tree, %class.FP_tree* %this1, i32 0, i32 0
  %350 = load i32, i32* %itemno388, align 8
  %idx.ext389 = sext i32 %350 to i64
  %add.ptr390 = getelementptr inbounds i32, i32* %349, i64 %idx.ext389
  %351 = load i32**, i32*** @bran, align 8
  %352 = load i32, i32* %k, align 4
  %idxprom391 = sext i32 %352 to i64
  %arrayidx392 = getelementptr inbounds i32*, i32** %351, i64 %idxprom391
  store i32* %add.ptr390, i32** %arrayidx392, align 8
  %353 = load i32**, i32*** @bran, align 8
  %354 = load i32, i32* %k, align 4
  %idxprom393 = sext i32 %354 to i64
  %arrayidx394 = getelementptr inbounds i32*, i32** %353, i64 %idxprom393
  %355 = load i32*, i32** %arrayidx394, align 8
  %itemno395 = getelementptr inbounds %class.FP_tree, %class.FP_tree* %this1, i32 0, i32 0
  %356 = load i32, i32* %itemno395, align 8
  %idx.ext396 = sext i32 %356 to i64
  %add.ptr397 = getelementptr inbounds i32, i32* %355, i64 %idx.ext396
  %357 = load i32**, i32*** @compact, align 8
  %358 = load i32, i32* %k, align 4
  %idxprom398 = sext i32 %358 to i64
  %arrayidx399 = getelementptr inbounds i32*, i32** %357, i64 %idxprom398
  store i32* %add.ptr397, i32** %arrayidx399, align 8
  %359 = load i32**, i32*** @compact, align 8
  %360 = load i32, i32* %k, align 4
  %idxprom400 = sext i32 %360 to i64
  %arrayidx401 = getelementptr inbounds i32*, i32** %359, i64 %idxprom400
  %361 = load i32*, i32** %arrayidx401, align 8
  %itemno402 = getelementptr inbounds %class.FP_tree, %class.FP_tree* %this1, i32 0, i32 0
  %362 = load i32, i32* %itemno402, align 8
  %idx.ext403 = sext i32 %362 to i64
  %add.ptr404 = getelementptr inbounds i32, i32* %361, i64 %idx.ext403
  %363 = load i32**, i32*** @prefix, align 8
  %364 = load i32, i32* %k, align 4
  %idxprom405 = sext i32 %364 to i64
  %arrayidx406 = getelementptr inbounds i32*, i32** %363, i64 %idxprom405
  store i32* %add.ptr404, i32** %arrayidx406, align 8
  %365 = load i32**, i32*** @prefix, align 8
  %366 = load i32, i32* %k, align 4
  %idxprom407 = sext i32 %366 to i64
  %arrayidx408 = getelementptr inbounds i32*, i32** %365, i64 %idxprom407
  %367 = load i32*, i32** %arrayidx408, align 8
  %itemno409 = getelementptr inbounds %class.FP_tree, %class.FP_tree* %this1, i32 0, i32 0
  %368 = load i32, i32* %itemno409, align 8
  %idx.ext410 = sext i32 %368 to i64
  %add.ptr411 = getelementptr inbounds i32, i32* %367, i64 %idx.ext410
  %369 = bitcast i32* %add.ptr411 to %class.Fnode**
  %370 = load %class.Fnode***, %class.Fnode**** @hashtable, align 8
  %371 = load i32, i32* %k, align 4
  %idxprom412 = sext i32 %371 to i64
  %arrayidx413 = getelementptr inbounds %class.Fnode**, %class.Fnode*** %370, i64 %idxprom412
  store %class.Fnode** %369, %class.Fnode*** %arrayidx413, align 8
  %372 = load %class.Fnode***, %class.Fnode**** @hashtable, align 8
  %373 = load i32, i32* %k, align 4
  %idxprom414 = sext i32 %373 to i64
  %arrayidx415 = getelementptr inbounds %class.Fnode**, %class.Fnode*** %372, i64 %idxprom414
  %374 = load %class.Fnode**, %class.Fnode*** %arrayidx415, align 8
  %375 = load i32, i32* %num_hot_node, align 4
  %idx.ext416 = sext i32 %375 to i64
  %add.ptr417 = getelementptr inbounds %class.Fnode*, %class.Fnode** %374, i64 %idx.ext416
  %376 = bitcast %class.Fnode** %add.ptr417 to i32*
  %377 = load i32**, i32*** @origin, align 8
  %378 = load i32, i32* %k, align 4
  %idxprom418 = sext i32 %378 to i64
  %arrayidx419 = getelementptr inbounds i32*, i32** %377, i64 %idxprom418
  store i32* %376, i32** %arrayidx419, align 8
  %379 = load i32**, i32*** @origin, align 8
  %380 = load i32, i32* %k, align 4
  %idxprom420 = sext i32 %380 to i64
  %arrayidx421 = getelementptr inbounds i32*, i32** %379, i64 %idxprom420
  %381 = load i32*, i32** %arrayidx421, align 8
  %itemno422 = getelementptr inbounds %class.FP_tree, %class.FP_tree* %this1, i32 0, i32 0
  %382 = load i32, i32* %itemno422, align 8
  %idx.ext423 = sext i32 %382 to i64
  %add.ptr424 = getelementptr inbounds i32, i32* %381, i64 %idx.ext423
  %383 = load i32**, i32*** @hot_node_count, align 8
  %384 = load i32, i32* %k, align 4
  %idxprom425 = sext i32 %384 to i64
  %arrayidx426 = getelementptr inbounds i32*, i32** %383, i64 %idxprom425
  store i32* %add.ptr424, i32** %arrayidx426, align 8
  %385 = load i32**, i32*** @hot_node_count, align 8
  %386 = load i32, i32* %k, align 4
  %idxprom427 = sext i32 %386 to i64
  %arrayidx428 = getelementptr inbounds i32*, i32** %385, i64 %idxprom427
  %387 = load i32*, i32** %arrayidx428, align 8
  %388 = load i32, i32* %num_hot_node, align 4
  %idx.ext429 = sext i32 %388 to i64
  %add.ptr430 = getelementptr inbounds i32, i32* %387, i64 %idx.ext429
  %389 = bitcast i32* %add.ptr430 to %class.Fnode***
  %390 = load %class.Fnode****, %class.Fnode***** @fast_rightsib_table, align 8
  %391 = load i32, i32* %k, align 4
  %idxprom431 = sext i32 %391 to i64
  %arrayidx432 = getelementptr inbounds %class.Fnode***, %class.Fnode**** %390, i64 %idxprom431
  store %class.Fnode*** %389, %class.Fnode**** %arrayidx432, align 8
  %392 = load %class.Fnode****, %class.Fnode***** @fast_rightsib_table, align 8
  %393 = load i32, i32* %k, align 4
  %idxprom433 = sext i32 %393 to i64
  %arrayidx434 = getelementptr inbounds %class.Fnode***, %class.Fnode**** %392, i64 %idxprom433
  %394 = load %class.Fnode***, %class.Fnode**** %arrayidx434, align 8
  %add.ptr435 = getelementptr inbounds %class.Fnode**, %class.Fnode*** %394, i64 16
  %395 = bitcast %class.Fnode*** %add.ptr435 to %class.Fnode**
  %396 = load %class.Fnode****, %class.Fnode***** @fast_rightsib_table, align 8
  %397 = load i32, i32* %k, align 4
  %idxprom436 = sext i32 %397 to i64
  %arrayidx437 = getelementptr inbounds %class.Fnode***, %class.Fnode**** %396, i64 %idxprom436
  %398 = load %class.Fnode***, %class.Fnode**** %arrayidx437, align 8
  %arrayidx438 = getelementptr inbounds %class.Fnode**, %class.Fnode*** %398, i64 0
  store %class.Fnode** %395, %class.Fnode*** %arrayidx438, align 8
  store i32 1, i32* %i302, align 4
  br label %for.cond439

for.cond439:                                      ; preds = %for.inc454, %cond.end
  %399 = load i32, i32* %i302, align 4
  %cmp440 = icmp slt i32 %399, 16
  br i1 %cmp440, label %for.body441, label %for.end456

for.body441:                                      ; preds = %for.cond439
  %400 = load %class.Fnode****, %class.Fnode***** @fast_rightsib_table, align 8
  %401 = load i32, i32* %k, align 4
  %idxprom442 = sext i32 %401 to i64
  %arrayidx443 = getelementptr inbounds %class.Fnode***, %class.Fnode**** %400, i64 %idxprom442
  %402 = load %class.Fnode***, %class.Fnode**** %arrayidx443, align 8
  %403 = load i32, i32* %i302, align 4
  %sub444 = sub nsw i32 %403, 1
  %idxprom445 = sext i32 %sub444 to i64
  %arrayidx446 = getelementptr inbounds %class.Fnode**, %class.Fnode*** %402, i64 %idxprom445
  %404 = load %class.Fnode**, %class.Fnode*** %arrayidx446, align 8
  %itemno447 = getelementptr inbounds %class.FP_tree, %class.FP_tree* %this1, i32 0, i32 0
  %405 = load i32, i32* %itemno447, align 8
  %idx.ext448 = sext i32 %405 to i64
  %add.ptr449 = getelementptr inbounds %class.Fnode*, %class.Fnode** %404, i64 %idx.ext448
  %406 = load %class.Fnode****, %class.Fnode***** @fast_rightsib_table, align 8
  %407 = load i32, i32* %k, align 4
  %idxprom450 = sext i32 %407 to i64
  %arrayidx451 = getelementptr inbounds %class.Fnode***, %class.Fnode**** %406, i64 %idxprom450
  %408 = load %class.Fnode***, %class.Fnode**** %arrayidx451, align 8
  %409 = load i32, i32* %i302, align 4
  %idxprom452 = sext i32 %409 to i64
  %arrayidx453 = getelementptr inbounds %class.Fnode**, %class.Fnode*** %408, i64 %idxprom452
  store %class.Fnode** %add.ptr449, %class.Fnode*** %arrayidx453, align 8
  br label %for.inc454

for.inc454:                                       ; preds = %for.body441
  %410 = load i32, i32* %i302, align 4
  %inc455 = add nsw i32 %410, 1
  store i32 %inc455, i32* %i302, align 4
  br label %for.cond439

for.end456:                                       ; preds = %for.cond439
  %411 = load %class.memory**, %class.memory*** @fp_tree_buf, align 8
  %412 = load i32, i32* %k, align 4
  %idxprom457 = sext i32 %412 to i64
  %arrayidx458 = getelementptr inbounds %class.memory*, %class.memory** %411, i64 %idxprom457
  %413 = load %class.memory*, %class.memory** %arrayidx458, align 8
  %itemno459 = getelementptr inbounds %class.FP_tree, %class.FP_tree* %this1, i32 0, i32 0
  %414 = load i32, i32* %itemno459, align 8
  %conv460 = sext i32 %414 to i64
  %mul461 = mul i64 %conv460, 4
  %conv462 = trunc i64 %mul461 to i32
  %call463 = call i8* @_ZN6memory6newbufEjj(%class.memory* %413, i32 1, i32 %conv462)
  %415 = bitcast i8* %call463 to i32*
  %416 = load i32**, i32*** @global_nodenum, align 8
  %417 = load i32, i32* %k, align 4
  %idxprom464 = sext i32 %417 to i64
  %arrayidx465 = getelementptr inbounds i32*, i32** %416, i64 %idxprom464
  store i32* %415, i32** %arrayidx465, align 8
  store i32 0, i32* %i302, align 4
  br label %for.cond466

for.cond466:                                      ; preds = %for.inc474, %for.end456
  %418 = load i32, i32* %i302, align 4
  %itemno467 = getelementptr inbounds %class.FP_tree, %class.FP_tree* %this1, i32 0, i32 0
  %419 = load i32, i32* %itemno467, align 8
  %cmp468 = icmp slt i32 %418, %419
  br i1 %cmp468, label %for.body469, label %for.end476

for.body469:                                      ; preds = %for.cond466
  %420 = load i32**, i32*** @global_nodenum, align 8
  %421 = load i32, i32* %k, align 4
  %idxprom470 = sext i32 %421 to i64
  %arrayidx471 = getelementptr inbounds i32*, i32** %420, i64 %idxprom470
  %422 = load i32*, i32** %arrayidx471, align 8
  %423 = load i32, i32* %i302, align 4
  %idxprom472 = sext i32 %423 to i64
  %arrayidx473 = getelementptr inbounds i32, i32* %422, i64 %idxprom472
  store i32 0, i32* %arrayidx473, align 4
  br label %for.inc474

for.inc474:                                       ; preds = %for.body469
  %424 = load i32, i32* %i302, align 4
  %inc475 = add nsw i32 %424, 1
  store i32 %inc475, i32* %i302, align 4
  br label %for.cond466

for.end476:                                       ; preds = %for.cond466
  %425 = load %class.Fnode****, %class.Fnode***** @fast_rightsib_table, align 8
  %426 = load i32, i32* %k, align 4
  %idxprom477 = sext i32 %426 to i64
  %arrayidx478 = getelementptr inbounds %class.Fnode***, %class.Fnode**** %425, i64 %idxprom477
  %427 = load %class.Fnode***, %class.Fnode**** %arrayidx478, align 8
  %arrayidx479 = getelementptr inbounds %class.Fnode**, %class.Fnode*** %427, i64 15
  %428 = load %class.Fnode**, %class.Fnode*** %arrayidx479, align 8
  %itemno480 = getelementptr inbounds %class.FP_tree, %class.FP_tree* %this1, i32 0, i32 0
  %429 = load i32, i32* %itemno480, align 8
  %idx.ext481 = sext i32 %429 to i64
  %add.ptr482 = getelementptr inbounds %class.Fnode*, %class.Fnode** %428, i64 %idx.ext481
  %430 = bitcast %class.Fnode** %add.ptr482 to i32*
  %431 = load i32**, i32*** @new_data_num, align 8
  %432 = load i32, i32* %k, align 4
  %idxprom483 = sext i32 %432 to i64
  %arrayidx484 = getelementptr inbounds i32*, i32** %431, i64 %idxprom483
  store i32* %430, i32** %arrayidx484, align 8
  %433 = load i32**, i32*** @new_data_num, align 8
  %434 = load i32, i32* %k, align 4
  %idxprom485 = sext i32 %434 to i64
  %arrayidx486 = getelementptr inbounds i32*, i32** %433, i64 %idxprom485
  %435 = load i32*, i32** %arrayidx486, align 8
  %arrayidx487 = getelementptr inbounds i32, i32* %435, i64 0
  store i32 0, i32* %arrayidx487, align 4
  %436 = load i32**, i32*** @new_data_num, align 8
  %437 = load i32, i32* %k, align 4
  %idxprom488 = sext i32 %437 to i64
  %arrayidx489 = getelementptr inbounds i32*, i32** %436, i64 %idxprom488
  %438 = load i32*, i32** %arrayidx489, align 8
  %add.ptr490 = getelementptr inbounds i32, i32* %438, i64 1
  %439 = load i32**, i32*** @rightsib_backpatch_count, align 8
  %440 = load i32, i32* %k, align 4
  %idxprom491 = sext i32 %440 to i64
  %arrayidx492 = getelementptr inbounds i32*, i32** %439, i64 %idxprom491
  store i32* %add.ptr490, i32** %arrayidx492, align 8
  %441 = load i32**, i32*** @rightsib_backpatch_count, align 8
  %442 = load i32, i32* %k, align 4
  %idxprom493 = sext i32 %442 to i64
  %arrayidx494 = getelementptr inbounds i32*, i32** %441, i64 %idxprom493
  %443 = load i32*, i32** %arrayidx494, align 8
  %add.ptr495 = getelementptr inbounds i32, i32* %443, i64 1
  %444 = load i32**, i32*** @sum_item_num, align 8
  %445 = load i32, i32* %k, align 4
  %idxprom496 = sext i32 %445 to i64
  %arrayidx497 = getelementptr inbounds i32*, i32** %444, i64 %idxprom496
  store i32* %add.ptr495, i32** %arrayidx497, align 8
  %446 = load i32**, i32*** @sum_item_num, align 8
  %447 = load i32, i32* %k, align 4
  %idxprom498 = sext i32 %447 to i64
  %arrayidx499 = getelementptr inbounds i32*, i32** %446, i64 %idxprom498
  %448 = load i32*, i32** %arrayidx499, align 8
  %add.ptr500 = getelementptr inbounds i32, i32* %448, i64 1
  %449 = bitcast i32* %add.ptr500 to %class.Fnode***
  %450 = load %class.Fnode****, %class.Fnode***** @rightsib_backpatch_stack, align 8
  %451 = load i32, i32* %k, align 4
  %idxprom501 = sext i32 %451 to i64
  %arrayidx502 = getelementptr inbounds %class.Fnode***, %class.Fnode**** %450, i64 %idxprom501
  store %class.Fnode*** %449, %class.Fnode**** %arrayidx502, align 8
  %452 = load i32**, i32*** @rightsib_backpatch_count, align 8
  %453 = load i32, i32* %k, align 4
  %idxprom503 = sext i32 %453 to i64
  %arrayidx504 = getelementptr inbounds i32*, i32** %452, i64 %idxprom503
  %454 = load i32*, i32** %arrayidx504, align 8
  %arrayidx505 = getelementptr inbounds i32, i32* %454, i64 0
  store i32 0, i32* %arrayidx505, align 4
  store i32 0, i32* %i302, align 4
  br label %for.cond506

for.cond506:                                      ; preds = %for.inc516, %for.end476
  %455 = load i32, i32* %i302, align 4
  %itemno507 = getelementptr inbounds %class.FP_tree, %class.FP_tree* %this1, i32 0, i32 0
  %456 = load i32, i32* %itemno507, align 8
  %mul508 = mul nsw i32 %456, 16
  %cmp509 = icmp slt i32 %455, %mul508
  br i1 %cmp509, label %for.body510, label %for.end518

for.body510:                                      ; preds = %for.cond506
  %457 = load %class.Fnode****, %class.Fnode***** @fast_rightsib_table, align 8
  %458 = load i32, i32* %k, align 4
  %idxprom511 = sext i32 %458 to i64
  %arrayidx512 = getelementptr inbounds %class.Fnode***, %class.Fnode**** %457, i64 %idxprom511
  %459 = load %class.Fnode***, %class.Fnode**** %arrayidx512, align 8
  %arrayidx513 = getelementptr inbounds %class.Fnode**, %class.Fnode*** %459, i64 0
  %460 = load %class.Fnode**, %class.Fnode*** %arrayidx513, align 8
  %461 = load i32, i32* %i302, align 4
  %idxprom514 = sext i32 %461 to i64
  %arrayidx515 = getelementptr inbounds %class.Fnode*, %class.Fnode** %460, i64 %idxprom514
  store %class.Fnode* null, %class.Fnode** %arrayidx515, align 8
  br label %for.inc516

for.inc516:                                       ; preds = %for.body510
  %462 = load i32, i32* %i302, align 4
  %inc517 = add nsw i32 %462, 1
  store i32 %inc517, i32* %i302, align 4
  br label %for.cond506

for.end518:                                       ; preds = %for.cond506
  store i32 1, i32* %i302, align 4
  br label %for.cond519

for.cond519:                                      ; preds = %for.inc530, %for.end518
  %463 = load i32, i32* %i302, align 4
  %464 = load i32, i32* %num_hot_node, align 4
  %cmp520 = icmp slt i32 %463, %464
  br i1 %cmp520, label %for.body521, label %for.end532

for.body521:                                      ; preds = %for.cond519
  %465 = load i32**, i32*** @hot_node_count, align 8
  %466 = load i32, i32* %k, align 4
  %idxprom522 = sext i32 %466 to i64
  %arrayidx523 = getelementptr inbounds i32*, i32** %465, i64 %idxprom522
  %467 = load i32*, i32** %arrayidx523, align 8
  %468 = load i32, i32* %i302, align 4
  %idxprom524 = sext i32 %468 to i64
  %arrayidx525 = getelementptr inbounds i32, i32* %467, i64 %idxprom524
  store i32 0, i32* %arrayidx525, align 4
  %469 = load %class.Fnode***, %class.Fnode**** @hashtable, align 8
  %470 = load i32, i32* %k, align 4
  %idxprom526 = sext i32 %470 to i64
  %arrayidx527 = getelementptr inbounds %class.Fnode**, %class.Fnode*** %469, i64 %idxprom526
  %471 = load %class.Fnode**, %class.Fnode*** %arrayidx527, align 8
  %472 = load i32, i32* %i302, align 4
  %idxprom528 = sext i32 %472 to i64
  %arrayidx529 = getelementptr inbounds %class.Fnode*, %class.Fnode** %471, i64 %idxprom528
  store %class.Fnode* null, %class.Fnode** %arrayidx529, align 8
  br label %for.inc530

for.inc530:                                       ; preds = %for.body521
  %473 = load i32, i32* %i302, align 4
  %inc531 = add nsw i32 %473, 1
  store i32 %inc531, i32* %i302, align 4
  br label %for.cond519

for.end532:                                       ; preds = %for.cond519
  %Root = getelementptr inbounds %class.FP_tree, %class.FP_tree* %this1, i32 0, i32 4
  %474 = load %class.Fnode*, %class.Fnode** %Root, align 8
  %475 = load %class.Fnode***, %class.Fnode**** @hashtable, align 8
  %476 = load i32, i32* %k, align 4
  %idxprom533 = sext i32 %476 to i64
  %arrayidx534 = getelementptr inbounds %class.Fnode**, %class.Fnode*** %475, i64 %idxprom533
  %477 = load %class.Fnode**, %class.Fnode*** %arrayidx534, align 8
  %arrayidx535 = getelementptr inbounds %class.Fnode*, %class.Fnode** %477, i64 0
  store %class.Fnode* %474, %class.Fnode** %arrayidx535, align 8
  store i32 0, i32* %i302, align 4
  br label %for.cond536

for.cond536:                                      ; preds = %for.inc556, %for.end532
  %478 = load i32, i32* %i302, align 4
  %itemno537 = getelementptr inbounds %class.FP_tree, %class.FP_tree* %this1, i32 0, i32 0
  %479 = load i32, i32* %itemno537, align 8
  %cmp538 = icmp slt i32 %478, %479
  br i1 %cmp538, label %for.body539, label %for.end558

for.body539:                                      ; preds = %for.cond536
  %480 = load i32**, i32*** @origin, align 8
  %481 = load i32, i32* %k, align 4
  %idxprom540 = sext i32 %481 to i64
  %arrayidx541 = getelementptr inbounds i32*, i32** %480, i64 %idxprom540
  %482 = load i32*, i32** %arrayidx541, align 8
  %483 = load i32, i32* %i302, align 4
  %idxprom542 = sext i32 %483 to i64
  %arrayidx543 = getelementptr inbounds i32, i32* %482, i64 %idxprom542
  store i32 0, i32* %arrayidx543, align 4
  %484 = load i32**, i32*** @supp, align 8
  %485 = load i32, i32* %k, align 4
  %idxprom544 = sext i32 %485 to i64
  %arrayidx545 = getelementptr inbounds i32*, i32** %484, i64 %idxprom544
  %486 = load i32*, i32** %arrayidx545, align 8
  %487 = load i32, i32* %i302, align 4
  %idxprom546 = sext i32 %487 to i64
  %arrayidx547 = getelementptr inbounds i32, i32* %486, i64 %idxprom546
  store i32 0, i32* %arrayidx547, align 4
  %488 = load i32**, i32*** @ITlen, align 8
  %489 = load i32, i32* %k, align 4
  %idxprom548 = sext i32 %489 to i64
  %arrayidx549 = getelementptr inbounds i32*, i32** %488, i64 %idxprom548
  %490 = load i32*, i32** %arrayidx549, align 8
  %491 = load i32, i32* %i302, align 4
  %idxprom550 = sext i32 %491 to i64
  %arrayidx551 = getelementptr inbounds i32, i32* %490, i64 %idxprom550
  store i32 0, i32* %arrayidx551, align 4
  %492 = load i32**, i32*** @bran, align 8
  %493 = load i32, i32* %k, align 4
  %idxprom552 = sext i32 %493 to i64
  %arrayidx553 = getelementptr inbounds i32*, i32** %492, i64 %idxprom552
  %494 = load i32*, i32** %arrayidx553, align 8
  %495 = load i32, i32* %i302, align 4
  %idxprom554 = sext i32 %495 to i64
  %arrayidx555 = getelementptr inbounds i32, i32* %494, i64 %idxprom554
  store i32 0, i32* %arrayidx555, align 4
  br label %for.inc556

for.inc556:                                       ; preds = %for.body539
  %496 = load i32, i32* %i302, align 4
  %inc557 = add nsw i32 %496, 1
  store i32 %inc557, i32* %i302, align 4
  br label %for.cond536

for.end558:                                       ; preds = %for.cond536
  br label %for.inc559

for.inc559:                                       ; preds = %for.end558
  %497 = load i32, i32* %k, align 4
  %inc560 = add nsw i32 %497, 1
  store i32 %inc560, i32* %k, align 4
  br label %for.cond299

for.end561:                                       ; preds = %for.cond299
  %498 = load %class.MapFile*, %class.MapFile** @mapfile, align 8
  call void @_ZN7MapFile20transform_list_tableEv(%class.MapFile* %498)
  store i32 0, i32* %i, align 4
  br label %for.cond562

for.cond562:                                      ; preds = %for.inc567, %for.end561
  %499 = load i32, i32* %i, align 4
  %cmp563 = icmp slt i32 %499, 65536
  br i1 %cmp563, label %for.body564, label %for.end569

for.body564:                                      ; preds = %for.cond562
  %500 = load i32, i32* %i, align 4
  %501 = load i32, i32* %i, align 4
  %idxprom565 = sext i32 %501 to i64
  %arrayidx566 = getelementptr inbounds [65536 x i32], [65536 x i32]* @ntypeidarray, i64 0, i64 %idxprom565
  store i32 %500, i32* %arrayidx566, align 4
  br label %for.inc567

for.inc567:                                       ; preds = %for.body564
  %502 = load i32, i32* %i, align 4
  %inc568 = add nsw i32 %502, 1
  store i32 %inc568, i32* %i, align 4
  br label %for.cond562

for.end569:                                       ; preds = %for.cond562
  ret void

eh.resume:                                        ; preds = %lpad
  %exn = load i8*, i8** %exn.slot, align 8
  %sel = load i32, i32* %ehselector.slot, align 4
  %lpad.val = insertvalue { i8*, i32 } undef, i8* %exn, 0
  %lpad.val570 = insertvalue { i8*, i32 } %lpad.val, i32 %sel, 1
  resume { i8*, i32 } %lpad.val570
}

declare i32* @_ZN4Data13parseDataFileEP7MapFile(%class.Data*, %class.MapFile*) #5

declare i8* @_ZN6memory7bufmarkEPjPi(%class.memory*, i32*, i32*) #5

; Function Attrs: noinline nounwind uwtable
define internal i32 @_ZL19omp_get_max_threadsv() #0 {
entry:
  ret i32 1
}

declare void @_ZN7MapFile4initEv(%class.MapFile*) #5

; Function Attrs: nobuiltin
declare noalias i8* @_Znwm(i64) #3

declare i32 @__gxx_personality_v0(...)

; Function Attrs: nobuiltin nounwind
declare void @_ZdlPv(i8*) #4

; Function Attrs: argmemonly nounwind
declare void @llvm.memset.p0i8.i64(i8* nocapture writeonly, i8, i64, i32, i1) #6

; Function Attrs: nounwind
declare i32 @sched_setaffinity(i32, i64, %struct.cpu_set_t*) #7

declare void @_ZN7MapFile20transform_list_tableEv(%class.MapFile*) #5

; Function Attrs: noinline uwtable
define void @_ZN7FP_tree6insertEPiiiii(%class.FP_tree* %this, i32* %compact, i32 %counts, i32 %current, i32 %ntype, i32 %thread) #1 align 2 {
entry:
  %this.addr = alloca %class.FP_tree*, align 8
  %compact.addr = alloca i32*, align 8
  %counts.addr = alloca i32, align 4
  %current.addr = alloca i32, align 4
  %ntype.addr = alloca i32, align 4
  %thread.addr = alloca i32, align 4
  %child = alloca %class.Fnode*, align 8
  %temp = alloca %class.Fnode*, align 8
  %temp2 = alloca %class.Fnode*, align 8
  %backpatch_node = alloca %class.Fnode**, align 8
  %i = alloca i32, align 4
  %k = alloca i32, align 4
  %local_bran = alloca i32*, align 8
  %itemname = alloca i32, align 4
  store %class.FP_tree* %this, %class.FP_tree** %this.addr, align 8
  store i32* %compact, i32** %compact.addr, align 8
  store i32 %counts, i32* %counts.addr, align 4
  store i32 %current, i32* %current.addr, align 4
  store i32 %ntype, i32* %ntype.addr, align 4
  store i32 %thread, i32* %thread.addr, align 4
  %this1 = load %class.FP_tree*, %class.FP_tree** %this.addr, align 8
  store %class.Fnode** null, %class.Fnode*** %backpatch_node, align 8
  store i32 0, i32* %i, align 4
  %0 = load %class.Fnode***, %class.Fnode**** @hashtable, align 8
  %1 = load i32, i32* %thread.addr, align 4
  %idxprom = sext i32 %1 to i64
  %arrayidx = getelementptr inbounds %class.Fnode**, %class.Fnode*** %0, i64 %idxprom
  %2 = load %class.Fnode**, %class.Fnode*** %arrayidx, align 8
  %3 = load i32, i32* %ntype.addr, align 4
  %idxprom2 = sext i32 %3 to i64
  %arrayidx3 = getelementptr inbounds %class.Fnode*, %class.Fnode** %2, i64 %idxprom2
  %4 = load %class.Fnode*, %class.Fnode** %arrayidx3, align 8
  store %class.Fnode* %4, %class.Fnode** %child, align 8
  %5 = load i32**, i32*** @bran, align 8
  %6 = load i32, i32* %thread.addr, align 4
  %idxprom4 = sext i32 %6 to i64
  %arrayidx5 = getelementptr inbounds i32*, i32** %5, i64 %idxprom4
  %7 = load i32*, i32** %arrayidx5, align 8
  store i32* %7, i32** %local_bran, align 8
  %8 = load i32, i32* %ntype.addr, align 4
  %cmp = icmp slt i32 %8, 16
  br i1 %cmp, label %if.then, label %if.end24

if.then:                                          ; preds = %entry
  %9 = load %class.Fnode****, %class.Fnode***** @fast_rightsib_table, align 8
  %10 = load i32, i32* %thread.addr, align 4
  %idxprom6 = sext i32 %10 to i64
  %arrayidx7 = getelementptr inbounds %class.Fnode***, %class.Fnode**** %9, i64 %idxprom6
  %11 = load %class.Fnode***, %class.Fnode**** %arrayidx7, align 8
  %12 = load i32, i32* %ntype.addr, align 4
  %idxprom8 = sext i32 %12 to i64
  %arrayidx9 = getelementptr inbounds %class.Fnode**, %class.Fnode*** %11, i64 %idxprom8
  %13 = load %class.Fnode**, %class.Fnode*** %arrayidx9, align 8
  %14 = load i32*, i32** %compact.addr, align 8
  %15 = load i32, i32* %i, align 4
  %idxprom10 = sext i32 %15 to i64
  %arrayidx11 = getelementptr inbounds i32, i32* %14, i64 %idxprom10
  %16 = load i32, i32* %arrayidx11, align 4
  %idxprom12 = sext i32 %16 to i64
  %arrayidx13 = getelementptr inbounds %class.Fnode*, %class.Fnode** %13, i64 %idxprom12
  %17 = load %class.Fnode*, %class.Fnode** %arrayidx13, align 8
  store %class.Fnode* %17, %class.Fnode** %temp, align 8
  %18 = load %class.Fnode*, %class.Fnode** %temp, align 8
  %cmp14 = icmp eq %class.Fnode* %18, null
  br i1 %cmp14, label %if.then15, label %if.end

if.then15:                                        ; preds = %if.then
  %19 = load %class.Fnode****, %class.Fnode***** @fast_rightsib_table, align 8
  %20 = load i32, i32* %thread.addr, align 4
  %idxprom16 = sext i32 %20 to i64
  %arrayidx17 = getelementptr inbounds %class.Fnode***, %class.Fnode**** %19, i64 %idxprom16
  %21 = load %class.Fnode***, %class.Fnode**** %arrayidx17, align 8
  %22 = load i32, i32* %ntype.addr, align 4
  %idxprom18 = sext i32 %22 to i64
  %arrayidx19 = getelementptr inbounds %class.Fnode**, %class.Fnode*** %21, i64 %idxprom18
  %23 = load %class.Fnode**, %class.Fnode*** %arrayidx19, align 8
  %24 = load i32*, i32** %compact.addr, align 8
  %25 = load i32, i32* %i, align 4
  %idxprom20 = sext i32 %25 to i64
  %arrayidx21 = getelementptr inbounds i32, i32* %24, i64 %idxprom20
  %26 = load i32, i32* %arrayidx21, align 4
  %idxprom22 = sext i32 %26 to i64
  %arrayidx23 = getelementptr inbounds %class.Fnode*, %class.Fnode** %23, i64 %idxprom22
  store %class.Fnode** %arrayidx23, %class.Fnode*** %backpatch_node, align 8
  br label %OUT

if.end:                                           ; preds = %if.then
  %27 = load i32, i32* %counts.addr, align 4
  %28 = load %class.Fnode*, %class.Fnode** %temp, align 8
  %count = getelementptr inbounds %class.Fnode, %class.Fnode* %28, i32 0, i32 2
  %29 = load i32, i32* %count, align 8
  %add = add nsw i32 %29, %27
  store i32 %add, i32* %count, align 8
  %30 = load %class.Fnode*, %class.Fnode** %temp, align 8
  store %class.Fnode* %30, %class.Fnode** %child, align 8
  %31 = load i32, i32* %i, align 4
  %inc = add nsw i32 %31, 1
  store i32 %inc, i32* %i, align 4
  br label %if.end24

if.end24:                                         ; preds = %if.end, %entry
  br label %while.cond

while.cond:                                       ; preds = %if.end44, %if.end24
  %32 = load i32, i32* %i, align 4
  %33 = load i32, i32* %current.addr, align 4
  %cmp25 = icmp slt i32 %32, %33
  br i1 %cmp25, label %while.body, label %while.end48

while.body:                                       ; preds = %while.cond
  %34 = load i32*, i32** %compact.addr, align 8
  %35 = load i32, i32* %i, align 4
  %idxprom26 = sext i32 %35 to i64
  %arrayidx27 = getelementptr inbounds i32, i32* %34, i64 %idxprom26
  %36 = load i32, i32* %arrayidx27, align 4
  store i32 %36, i32* %itemname, align 4
  %37 = load %class.Fnode*, %class.Fnode** %child, align 8
  %leftchild = getelementptr inbounds %class.Fnode, %class.Fnode* %37, i32 0, i32 0
  %38 = load %class.Fnode*, %class.Fnode** %leftchild, align 8
  store %class.Fnode* %38, %class.Fnode** %temp, align 8
  %39 = load %class.Fnode*, %class.Fnode** %temp, align 8
  %cmp28 = icmp eq %class.Fnode* %39, null
  br i1 %cmp28, label %if.then29, label %if.end30

if.then29:                                        ; preds = %while.body
  br label %while.end48

if.end30:                                         ; preds = %while.body
  %40 = load %class.Fnode*, %class.Fnode** %temp, align 8
  %itemname31 = getelementptr inbounds %class.Fnode, %class.Fnode* %40, i32 0, i32 3
  %41 = load i32, i32* %itemname31, align 4
  %42 = load i32, i32* %itemname, align 4
  %cmp32 = icmp ne i32 %41, %42
  br i1 %cmp32, label %if.then33, label %if.end44

if.then33:                                        ; preds = %if.end30
  %43 = load %class.Fnode*, %class.Fnode** %temp, align 8
  %rightsibling = getelementptr inbounds %class.Fnode, %class.Fnode* %43, i32 0, i32 1
  %44 = load %class.Fnode*, %class.Fnode** %rightsibling, align 8
  store %class.Fnode* %44, %class.Fnode** %temp, align 8
  br label %while.body35

while.body35:                                     ; preds = %if.then33, %if.end42
  %45 = load %class.Fnode*, %class.Fnode** %temp, align 8
  %cmp36 = icmp eq %class.Fnode* %45, null
  br i1 %cmp36, label %if.then37, label %if.end38

if.then37:                                        ; preds = %while.body35
  br label %OUT

if.end38:                                         ; preds = %while.body35
  %46 = load %class.Fnode*, %class.Fnode** %temp, align 8
  %itemname39 = getelementptr inbounds %class.Fnode, %class.Fnode* %46, i32 0, i32 3
  %47 = load i32, i32* %itemname39, align 4
  %48 = load i32, i32* %itemname, align 4
  %cmp40 = icmp eq i32 %47, %48
  br i1 %cmp40, label %if.then41, label %if.end42

if.then41:                                        ; preds = %if.end38
  br label %while.end

if.end42:                                         ; preds = %if.end38
  %49 = load %class.Fnode*, %class.Fnode** %temp, align 8
  %rightsibling43 = getelementptr inbounds %class.Fnode, %class.Fnode* %49, i32 0, i32 1
  %50 = load %class.Fnode*, %class.Fnode** %rightsibling43, align 8
  store %class.Fnode* %50, %class.Fnode** %temp, align 8
  br label %while.body35

while.end:                                        ; preds = %if.then41
  br label %if.end44

if.end44:                                         ; preds = %while.end, %if.end30
  %51 = load i32, i32* %counts.addr, align 4
  %52 = load %class.Fnode*, %class.Fnode** %temp, align 8
  %count45 = getelementptr inbounds %class.Fnode, %class.Fnode* %52, i32 0, i32 2
  %53 = load i32, i32* %count45, align 8
  %add46 = add nsw i32 %53, %51
  store i32 %add46, i32* %count45, align 8
  %54 = load %class.Fnode*, %class.Fnode** %temp, align 8
  store %class.Fnode* %54, %class.Fnode** %child, align 8
  %55 = load i32, i32* %i, align 4
  %inc47 = add nsw i32 %55, 1
  store i32 %inc47, i32* %i, align 4
  br label %while.cond

while.end48:                                      ; preds = %if.then29, %while.cond
  br label %OUT

OUT:                                              ; preds = %while.end48, %if.then37, %if.then15
  %56 = load i32, i32* %current.addr, align 4
  %57 = load i32, i32* %i, align 4
  %sub = sub nsw i32 %56, %57
  store i32 %sub, i32* %k, align 4
  %58 = load i32, i32* %k, align 4
  %cmp49 = icmp sgt i32 %58, 0
  br i1 %cmp49, label %if.then50, label %if.end126

if.then50:                                        ; preds = %OUT
  %59 = load %class.memory**, %class.memory*** @fp_tree_buf, align 8
  %60 = load i32, i32* %thread.addr, align 4
  %idxprom51 = sext i32 %60 to i64
  %arrayidx52 = getelementptr inbounds %class.memory*, %class.memory** %59, i64 %idxprom51
  %61 = load %class.memory*, %class.memory** %arrayidx52, align 8
  %62 = load i32, i32* %k, align 4
  %conv = sext i32 %62 to i64
  %mul = mul i64 24, %conv
  %conv53 = trunc i64 %mul to i32
  %call = call i8* @_ZN6memory6newbufEjj(%class.memory* %61, i32 1, i32 %conv53)
  %63 = bitcast i8* %call to %class.Fnode*
  store %class.Fnode* %63, %class.Fnode** %temp, align 8
  %64 = load %class.Fnode**, %class.Fnode*** %backpatch_node, align 8
  %tobool = icmp ne %class.Fnode** %64, null
  br i1 %tobool, label %if.then54, label %if.end66

if.then54:                                        ; preds = %if.then50
  %65 = load %class.Fnode*, %class.Fnode** %temp, align 8
  %66 = load %class.Fnode**, %class.Fnode*** %backpatch_node, align 8
  store %class.Fnode* %65, %class.Fnode** %66, align 8
  %67 = load %class.Fnode**, %class.Fnode*** %backpatch_node, align 8
  %68 = load %class.Fnode****, %class.Fnode***** @rightsib_backpatch_stack, align 8
  %69 = load i32, i32* %thread.addr, align 4
  %idxprom55 = sext i32 %69 to i64
  %arrayidx56 = getelementptr inbounds %class.Fnode***, %class.Fnode**** %68, i64 %idxprom55
  %70 = load %class.Fnode***, %class.Fnode**** %arrayidx56, align 8
  %71 = load i32**, i32*** @rightsib_backpatch_count, align 8
  %72 = load i32, i32* %thread.addr, align 4
  %idxprom57 = sext i32 %72 to i64
  %arrayidx58 = getelementptr inbounds i32*, i32** %71, i64 %idxprom57
  %73 = load i32*, i32** %arrayidx58, align 8
  %arrayidx59 = getelementptr inbounds i32, i32* %73, i64 0
  %74 = load i32, i32* %arrayidx59, align 4
  %idxprom60 = sext i32 %74 to i64
  %arrayidx61 = getelementptr inbounds %class.Fnode**, %class.Fnode*** %70, i64 %idxprom60
  store %class.Fnode** %67, %class.Fnode*** %arrayidx61, align 8
  %75 = load i32**, i32*** @rightsib_backpatch_count, align 8
  %76 = load i32, i32* %thread.addr, align 4
  %idxprom62 = sext i32 %76 to i64
  %arrayidx63 = getelementptr inbounds i32*, i32** %75, i64 %idxprom62
  %77 = load i32*, i32** %arrayidx63, align 8
  %arrayidx64 = getelementptr inbounds i32, i32* %77, i64 0
  %78 = load i32, i32* %arrayidx64, align 4
  %inc65 = add nsw i32 %78, 1
  store i32 %inc65, i32* %arrayidx64, align 4
  br label %if.end66

if.end66:                                         ; preds = %if.then54, %if.then50
  %nodenum = getelementptr inbounds %class.FP_tree, %class.FP_tree* %this1, i32 0, i32 8
  %79 = load i32*, i32** %nodenum, align 8
  %80 = load i32*, i32** %compact.addr, align 8
  %81 = load i32, i32* %i, align 4
  %idxprom67 = sext i32 %81 to i64
  %arrayidx68 = getelementptr inbounds i32, i32* %80, i64 %idxprom67
  %82 = load i32, i32* %arrayidx68, align 4
  %idxprom69 = sext i32 %82 to i64
  %arrayidx70 = getelementptr inbounds i32, i32* %79, i64 %idxprom69
  %83 = load i32, i32* %arrayidx70, align 4
  %inc71 = add nsw i32 %83, 1
  store i32 %inc71, i32* %arrayidx70, align 4
  %84 = load i32*, i32** %local_bran, align 8
  %85 = load i32, i32* %i, align 4
  %idxprom72 = sext i32 %85 to i64
  %arrayidx73 = getelementptr inbounds i32, i32* %84, i64 %idxprom72
  %86 = load i32, i32* %arrayidx73, align 4
  %inc74 = add nsw i32 %86, 1
  store i32 %inc74, i32* %arrayidx73, align 4
  %87 = load i32*, i32** %compact.addr, align 8
  %88 = load i32, i32* %i, align 4
  %idxprom75 = sext i32 %88 to i64
  %arrayidx76 = getelementptr inbounds i32, i32* %87, i64 %idxprom75
  %89 = load i32, i32* %arrayidx76, align 4
  %90 = load %class.Fnode*, %class.Fnode** %temp, align 8
  %itemname77 = getelementptr inbounds %class.Fnode, %class.Fnode* %90, i32 0, i32 3
  store i32 %89, i32* %itemname77, align 4
  %91 = load i32, i32* %counts.addr, align 4
  %92 = load %class.Fnode*, %class.Fnode** %temp, align 8
  %count78 = getelementptr inbounds %class.Fnode, %class.Fnode* %92, i32 0, i32 2
  store i32 %91, i32* %count78, align 8
  %93 = load %class.Fnode*, %class.Fnode** %child, align 8
  %leftchild79 = getelementptr inbounds %class.Fnode, %class.Fnode* %93, i32 0, i32 0
  %94 = load %class.Fnode*, %class.Fnode** %leftchild79, align 8
  %cmp80 = icmp eq %class.Fnode* %94, null
  br i1 %cmp80, label %if.then81, label %if.else

if.then81:                                        ; preds = %if.end66
  %95 = load %class.Fnode*, %class.Fnode** %child, align 8
  %leftchild82 = getelementptr inbounds %class.Fnode, %class.Fnode* %95, i32 0, i32 0
  %96 = load %class.Fnode*, %class.Fnode** %leftchild82, align 8
  %97 = load %class.Fnode*, %class.Fnode** %temp, align 8
  %rightsibling83 = getelementptr inbounds %class.Fnode, %class.Fnode* %97, i32 0, i32 1
  store %class.Fnode* %96, %class.Fnode** %rightsibling83, align 8
  %98 = load %class.Fnode*, %class.Fnode** %temp, align 8
  %99 = load %class.Fnode*, %class.Fnode** %child, align 8
  %leftchild84 = getelementptr inbounds %class.Fnode, %class.Fnode* %99, i32 0, i32 0
  store %class.Fnode* %98, %class.Fnode** %leftchild84, align 8
  %100 = load i32, i32* %k, align 4
  %101 = load i32**, i32*** @new_data_num, align 8
  %102 = load i32, i32* %thread.addr, align 4
  %idxprom85 = sext i32 %102 to i64
  %arrayidx86 = getelementptr inbounds i32*, i32** %101, i64 %idxprom85
  %103 = load i32*, i32** %arrayidx86, align 8
  %arrayidx87 = getelementptr inbounds i32, i32* %103, i64 0
  %104 = load i32, i32* %arrayidx87, align 4
  %add88 = add nsw i32 %104, %100
  store i32 %add88, i32* %arrayidx87, align 4
  br label %if.end101

if.else:                                          ; preds = %if.end66
  %105 = load %class.Fnode*, %class.Fnode** %child, align 8
  %leftchild89 = getelementptr inbounds %class.Fnode, %class.Fnode* %105, i32 0, i32 0
  %106 = load %class.Fnode*, %class.Fnode** %leftchild89, align 8
  %rightsibling90 = getelementptr inbounds %class.Fnode, %class.Fnode* %106, i32 0, i32 1
  %107 = load %class.Fnode*, %class.Fnode** %rightsibling90, align 8
  %108 = load %class.Fnode*, %class.Fnode** %temp, align 8
  %rightsibling91 = getelementptr inbounds %class.Fnode, %class.Fnode* %108, i32 0, i32 1
  store %class.Fnode* %107, %class.Fnode** %rightsibling91, align 8
  %109 = load %class.Fnode*, %class.Fnode** %temp, align 8
  %110 = load %class.Fnode*, %class.Fnode** %child, align 8
  %leftchild92 = getelementptr inbounds %class.Fnode, %class.Fnode* %110, i32 0, i32 0
  %111 = load %class.Fnode*, %class.Fnode** %leftchild92, align 8
  %rightsibling93 = getelementptr inbounds %class.Fnode, %class.Fnode* %111, i32 0, i32 1
  store %class.Fnode* %109, %class.Fnode** %rightsibling93, align 8
  %112 = load i32, i32* %current.addr, align 4
  %113 = load i32*, i32** @hot_node_depth, align 8
  %114 = load i32, i32* %ntype.addr, align 4
  %idxprom94 = sext i32 %114 to i64
  %arrayidx95 = getelementptr inbounds i32, i32* %113, i64 %idxprom94
  %115 = load i32, i32* %arrayidx95, align 4
  %add96 = add nsw i32 %112, %115
  %116 = load i32**, i32*** @new_data_num, align 8
  %117 = load i32, i32* %thread.addr, align 4
  %idxprom97 = sext i32 %117 to i64
  %arrayidx98 = getelementptr inbounds i32*, i32** %116, i64 %idxprom97
  %118 = load i32*, i32** %arrayidx98, align 8
  %arrayidx99 = getelementptr inbounds i32, i32* %118, i64 0
  %119 = load i32, i32* %arrayidx99, align 4
  %add100 = add nsw i32 %119, %add96
  store i32 %add100, i32* %arrayidx99, align 4
  br label %if.end101

if.end101:                                        ; preds = %if.else, %if.then81
  %120 = load %class.Fnode*, %class.Fnode** %temp, align 8
  store %class.Fnode* %120, %class.Fnode** %temp2, align 8
  %121 = load %class.Fnode*, %class.Fnode** %temp, align 8
  %incdec.ptr = getelementptr inbounds %class.Fnode, %class.Fnode* %121, i32 1
  store %class.Fnode* %incdec.ptr, %class.Fnode** %temp, align 8
  %122 = load i32, i32* %i, align 4
  %inc102 = add nsw i32 %122, 1
  store i32 %inc102, i32* %i, align 4
  br label %while.cond103

while.cond103:                                    ; preds = %while.body105, %if.end101
  %123 = load i32, i32* %i, align 4
  %124 = load i32, i32* %current.addr, align 4
  %cmp104 = icmp slt i32 %123, %124
  br i1 %cmp104, label %while.body105, label %while.end123

while.body105:                                    ; preds = %while.cond103
  %nodenum106 = getelementptr inbounds %class.FP_tree, %class.FP_tree* %this1, i32 0, i32 8
  %125 = load i32*, i32** %nodenum106, align 8
  %126 = load i32*, i32** %compact.addr, align 8
  %127 = load i32, i32* %i, align 4
  %idxprom107 = sext i32 %127 to i64
  %arrayidx108 = getelementptr inbounds i32, i32* %126, i64 %idxprom107
  %128 = load i32, i32* %arrayidx108, align 4
  %idxprom109 = sext i32 %128 to i64
  %arrayidx110 = getelementptr inbounds i32, i32* %125, i64 %idxprom109
  %129 = load i32, i32* %arrayidx110, align 4
  %inc111 = add nsw i32 %129, 1
  store i32 %inc111, i32* %arrayidx110, align 4
  %130 = load i32*, i32** %local_bran, align 8
  %131 = load i32, i32* %i, align 4
  %idxprom112 = sext i32 %131 to i64
  %arrayidx113 = getelementptr inbounds i32, i32* %130, i64 %idxprom112
  %132 = load i32, i32* %arrayidx113, align 4
  %inc114 = add nsw i32 %132, 1
  store i32 %inc114, i32* %arrayidx113, align 4
  %133 = load i32*, i32** %compact.addr, align 8
  %134 = load i32, i32* %i, align 4
  %idxprom115 = sext i32 %134 to i64
  %arrayidx116 = getelementptr inbounds i32, i32* %133, i64 %idxprom115
  %135 = load i32, i32* %arrayidx116, align 4
  %136 = load %class.Fnode*, %class.Fnode** %temp, align 8
  %itemname117 = getelementptr inbounds %class.Fnode, %class.Fnode* %136, i32 0, i32 3
  store i32 %135, i32* %itemname117, align 4
  %137 = load %class.Fnode*, %class.Fnode** %temp, align 8
  %rightsibling118 = getelementptr inbounds %class.Fnode, %class.Fnode* %137, i32 0, i32 1
  store %class.Fnode* null, %class.Fnode** %rightsibling118, align 8
  %138 = load i32, i32* %counts.addr, align 4
  %139 = load %class.Fnode*, %class.Fnode** %temp, align 8
  %count119 = getelementptr inbounds %class.Fnode, %class.Fnode* %139, i32 0, i32 2
  store i32 %138, i32* %count119, align 8
  %140 = load %class.Fnode*, %class.Fnode** %temp, align 8
  %141 = load %class.Fnode*, %class.Fnode** %temp2, align 8
  %leftchild120 = getelementptr inbounds %class.Fnode, %class.Fnode* %141, i32 0, i32 0
  store %class.Fnode* %140, %class.Fnode** %leftchild120, align 8
  %142 = load %class.Fnode*, %class.Fnode** %temp, align 8
  store %class.Fnode* %142, %class.Fnode** %temp2, align 8
  %143 = load %class.Fnode*, %class.Fnode** %temp, align 8
  %incdec.ptr121 = getelementptr inbounds %class.Fnode, %class.Fnode* %143, i32 1
  store %class.Fnode* %incdec.ptr121, %class.Fnode** %temp, align 8
  %144 = load i32, i32* %i, align 4
  %inc122 = add nsw i32 %144, 1
  store i32 %inc122, i32* %i, align 4
  br label %while.cond103

while.end123:                                     ; preds = %while.cond103
  %145 = load %class.Fnode*, %class.Fnode** %temp, align 8
  %incdec.ptr124 = getelementptr inbounds %class.Fnode, %class.Fnode* %145, i32 -1
  store %class.Fnode* %incdec.ptr124, %class.Fnode** %temp, align 8
  %146 = load %class.Fnode*, %class.Fnode** %temp, align 8
  %leftchild125 = getelementptr inbounds %class.Fnode, %class.Fnode* %146, i32 0, i32 0
  store %class.Fnode* null, %class.Fnode** %leftchild125, align 8
  br label %if.end126

if.end126:                                        ; preds = %while.end123, %OUT
  ret void
}

; Function Attrs: noinline nounwind uwtable
define i32 @_ZN7FP_tree12cal_level_25Ei(%class.FP_tree* %this, i32 %thread) #0 align 2 {
entry:
  %this.addr = alloca %class.FP_tree*, align 8
  %thread.addr = alloca i32, align 4
  %i = alloca i32, align 4
  %total_25 = alloca i32, align 4
  %total_50 = alloca i32, align 4
  %total_bran = alloca i32, align 4
  %maxlen = alloca i32, align 4
  %local_bran = alloca i32*, align 8
  store %class.FP_tree* %this, %class.FP_tree** %this.addr, align 8
  store i32 %thread, i32* %thread.addr, align 4
  %this1 = load %class.FP_tree*, %class.FP_tree** %this.addr, align 8
  store i32 0, i32* %total_25, align 4
  store i32 0, i32* %total_50, align 4
  store i32 0, i32* %total_bran, align 4
  store i32 0, i32* %maxlen, align 4
  %0 = load i32**, i32*** @bran, align 8
  %1 = load i32, i32* %thread.addr, align 4
  %idxprom = sext i32 %1 to i64
  %arrayidx = getelementptr inbounds i32*, i32** %0, i64 %idxprom
  %2 = load i32*, i32** %arrayidx, align 8
  store i32* %2, i32** %local_bran, align 8
  store i32 0, i32* %i, align 4
  br label %for.cond

for.cond:                                         ; preds = %for.inc, %entry
  %3 = load i32, i32* %i, align 4
  %itemno = getelementptr inbounds %class.FP_tree, %class.FP_tree* %this1, i32 0, i32 0
  %4 = load i32, i32* %itemno, align 8
  %cmp = icmp slt i32 %3, %4
  br i1 %cmp, label %land.rhs, label %land.end

land.rhs:                                         ; preds = %for.cond
  %5 = load i32*, i32** %local_bran, align 8
  %6 = load i32, i32* %i, align 4
  %idxprom2 = sext i32 %6 to i64
  %arrayidx3 = getelementptr inbounds i32, i32* %5, i64 %idxprom2
  %7 = load i32, i32* %arrayidx3, align 4
  %cmp4 = icmp ne i32 %7, 0
  br label %land.end

land.end:                                         ; preds = %land.rhs, %for.cond
  %8 = phi i1 [ false, %for.cond ], [ %cmp4, %land.rhs ]
  br i1 %8, label %for.body, label %for.end

for.body:                                         ; preds = %land.end
  br label %for.inc

for.inc:                                          ; preds = %for.body
  %9 = load i32, i32* %i, align 4
  %inc = add nsw i32 %9, 1
  store i32 %inc, i32* %i, align 4
  br label %for.cond

for.end:                                          ; preds = %land.end
  %10 = load i32, i32* %i, align 4
  store i32 %10, i32* %maxlen, align 4
  store i32 0, i32* %i, align 4
  br label %for.cond5

for.cond5:                                        ; preds = %for.inc11, %for.end
  %11 = load i32, i32* %i, align 4
  %12 = load i32, i32* %maxlen, align 4
  %conv = sitofp i32 %12 to double
  %mul = fmul double %conv, 2.500000e-01
  %conv6 = fptosi double %mul to i32
  %cmp7 = icmp slt i32 %11, %conv6
  br i1 %cmp7, label %for.body8, label %for.end13

for.body8:                                        ; preds = %for.cond5
  %13 = load i32*, i32** %local_bran, align 8
  %14 = load i32, i32* %i, align 4
  %idxprom9 = sext i32 %14 to i64
  %arrayidx10 = getelementptr inbounds i32, i32* %13, i64 %idxprom9
  %15 = load i32, i32* %arrayidx10, align 4
  %16 = load i32, i32* %total_25, align 4
  %add = add nsw i32 %16, %15
  store i32 %add, i32* %total_25, align 4
  br label %for.inc11

for.inc11:                                        ; preds = %for.body8
  %17 = load i32, i32* %i, align 4
  %inc12 = add nsw i32 %17, 1
  store i32 %inc12, i32* %i, align 4
  br label %for.cond5

for.end13:                                        ; preds = %for.cond5
  %18 = load i32, i32* %total_25, align 4
  store i32 %18, i32* %total_50, align 4
  %19 = load i32, i32* %maxlen, align 4
  %conv14 = sitofp i32 %19 to double
  %mul15 = fmul double %conv14, 2.500000e-01
  %conv16 = fptosi double %mul15 to i32
  store i32 %conv16, i32* %i, align 4
  br label %for.cond17

for.cond17:                                       ; preds = %for.inc27, %for.end13
  %20 = load i32, i32* %i, align 4
  %conv18 = sitofp i32 %20 to double
  %itemno19 = getelementptr inbounds %class.FP_tree, %class.FP_tree* %this1, i32 0, i32 0
  %21 = load i32, i32* %itemno19, align 8
  %conv20 = sitofp i32 %21 to double
  %mul21 = fmul double %conv20, 5.000000e-01
  %cmp22 = fcmp olt double %conv18, %mul21
  br i1 %cmp22, label %for.body23, label %for.end29

for.body23:                                       ; preds = %for.cond17
  %22 = load i32*, i32** %local_bran, align 8
  %23 = load i32, i32* %i, align 4
  %idxprom24 = sext i32 %23 to i64
  %arrayidx25 = getelementptr inbounds i32, i32* %22, i64 %idxprom24
  %24 = load i32, i32* %arrayidx25, align 4
  %25 = load i32, i32* %total_50, align 4
  %add26 = add nsw i32 %25, %24
  store i32 %add26, i32* %total_50, align 4
  br label %for.inc27

for.inc27:                                        ; preds = %for.body23
  %26 = load i32, i32* %i, align 4
  %inc28 = add nsw i32 %26, 1
  store i32 %inc28, i32* %i, align 4
  br label %for.cond17

for.end29:                                        ; preds = %for.cond17
  store i32 0, i32* %i, align 4
  br label %for.cond30

for.cond30:                                       ; preds = %for.inc44, %for.end29
  %27 = load i32, i32* %i, align 4
  %itemno31 = getelementptr inbounds %class.FP_tree, %class.FP_tree* %this1, i32 0, i32 0
  %28 = load i32, i32* %itemno31, align 8
  %cmp32 = icmp slt i32 %27, %28
  br i1 %cmp32, label %land.rhs33, label %land.end37

land.rhs33:                                       ; preds = %for.cond30
  %29 = load i32*, i32** %local_bran, align 8
  %30 = load i32, i32* %i, align 4
  %idxprom34 = sext i32 %30 to i64
  %arrayidx35 = getelementptr inbounds i32, i32* %29, i64 %idxprom34
  %31 = load i32, i32* %arrayidx35, align 4
  %cmp36 = icmp ne i32 %31, 0
  br label %land.end37

land.end37:                                       ; preds = %land.rhs33, %for.cond30
  %32 = phi i1 [ false, %for.cond30 ], [ %cmp36, %land.rhs33 ]
  br i1 %32, label %for.body38, label %for.end46

for.body38:                                       ; preds = %land.end37
  %33 = load i32*, i32** %local_bran, align 8
  %34 = load i32, i32* %i, align 4
  %idxprom39 = sext i32 %34 to i64
  %arrayidx40 = getelementptr inbounds i32, i32* %33, i64 %idxprom39
  %35 = load i32, i32* %arrayidx40, align 4
  %36 = load i32, i32* %total_bran, align 4
  %add41 = add nsw i32 %36, %35
  store i32 %add41, i32* %total_bran, align 4
  %37 = load i32*, i32** %local_bran, align 8
  %38 = load i32, i32* %i, align 4
  %idxprom42 = sext i32 %38 to i64
  %arrayidx43 = getelementptr inbounds i32, i32* %37, i64 %idxprom42
  store i32 0, i32* %arrayidx43, align 4
  br label %for.inc44

for.inc44:                                        ; preds = %for.body38
  %39 = load i32, i32* %i, align 4
  %inc45 = add nsw i32 %39, 1
  store i32 %inc45, i32* %i, align 4
  br label %for.cond30

for.end46:                                        ; preds = %land.end37
  %40 = load i32, i32* %total_bran, align 4
  ret i32 %40
}

; Function Attrs: noinline nounwind uwtable
define void @_ZN7FP_tree10fill_countEii(%class.FP_tree* %this, i32 %max_itemno, i32 %thread) #0 align 2 {
entry:
  %this.addr = alloca %class.FP_tree*, align 8
  %max_itemno.addr = alloca i32, align 4
  %thread.addr = alloca i32, align 4
  %i = alloca i32, align 4
  %j = alloca i32, align 4
  %local_origin = alloca i32*, align 8
  %local_compact = alloca i32*, align 8
  store %class.FP_tree* %this, %class.FP_tree** %this.addr, align 8
  store i32 %max_itemno, i32* %max_itemno.addr, align 4
  store i32 %thread, i32* %thread.addr, align 4
  %this1 = load %class.FP_tree*, %class.FP_tree** %this.addr, align 8
  store i32 0, i32* %j, align 4
  %0 = load i32**, i32*** @origin, align 8
  %1 = load i32, i32* %thread.addr, align 4
  %idxprom = sext i32 %1 to i64
  %arrayidx = getelementptr inbounds i32*, i32** %0, i64 %idxprom
  %2 = load i32*, i32** %arrayidx, align 8
  store i32* %2, i32** %local_origin, align 8
  %3 = load i32**, i32*** @compact, align 8
  %4 = load i32, i32* %thread.addr, align 4
  %idxprom2 = sext i32 %4 to i64
  %arrayidx3 = getelementptr inbounds i32*, i32** %3, i64 %idxprom2
  %5 = load i32*, i32** %arrayidx3, align 8
  store i32* %5, i32** %local_compact, align 8
  %num_hot_item = getelementptr inbounds %class.FP_tree, %class.FP_tree* %this1, i32 0, i32 15
  %6 = load i32, i32* %num_hot_item, align 8
  store i32 %6, i32* %i, align 4
  br label %for.cond

for.cond:                                         ; preds = %for.inc, %entry
  %7 = load i32, i32* %i, align 4
  %8 = load i32, i32* %max_itemno.addr, align 4
  %cmp = icmp sle i32 %7, %8
  br i1 %cmp, label %for.body, label %for.end

for.body:                                         ; preds = %for.cond
  %9 = load i32*, i32** %local_origin, align 8
  %10 = load i32, i32* %i, align 4
  %idxprom4 = sext i32 %10 to i64
  %arrayidx5 = getelementptr inbounds i32, i32* %9, i64 %idxprom4
  %11 = load i32, i32* %arrayidx5, align 4
  %cmp6 = icmp ne i32 %11, 0
  br i1 %cmp6, label %if.then, label %if.end

if.then:                                          ; preds = %for.body
  %12 = load i32, i32* %i, align 4
  %13 = load i32*, i32** %local_compact, align 8
  %14 = load i32, i32* %j, align 4
  %inc = add nsw i32 %14, 1
  store i32 %inc, i32* %j, align 4
  %idxprom7 = sext i32 %14 to i64
  %arrayidx8 = getelementptr inbounds i32, i32* %13, i64 %idxprom7
  store i32 %12, i32* %arrayidx8, align 4
  %15 = load i32*, i32** %local_origin, align 8
  %16 = load i32, i32* %i, align 4
  %idxprom9 = sext i32 %16 to i64
  %arrayidx10 = getelementptr inbounds i32, i32* %15, i64 %idxprom9
  store i32 0, i32* %arrayidx10, align 4
  br label %if.end

if.end:                                           ; preds = %if.then, %for.body
  br label %for.inc

for.inc:                                          ; preds = %if.end
  %17 = load i32, i32* %i, align 4
  %inc11 = add nsw i32 %17, 1
  store i32 %inc11, i32* %i, align 4
  br label %for.cond

for.end:                                          ; preds = %for.cond
  ret void
}

; Function Attrs: noinline uwtable
define void @_ZN7FP_tree8scan2_DBEi(%class.FP_tree* %this, i32 %workingthread) #1 align 2 personality i8* bitcast (i32 (...)* @__gxx_personality_v0 to i8*) {
entry:
  %this.addr = alloca %class.FP_tree*, align 8
  %workingthread.addr = alloca i32, align 4
  %tstart = alloca double, align 8
  %tend = alloca double, align 8
  %j = alloca i32, align 4
  %local_hashtable = alloca %class.Fnode**, align 8
  %thread = alloca i32, align 4
  %localthreadworkloadnum = alloca i32, align 4
  %localthreadworkload = alloca i32*, align 8
  %has = alloca i32, align 4
  %ntype = alloca i32, align 4
  %content = alloca i16*, align 8
  %local_nodenum = alloca i32*, align 8
  %local_fp_tree_buf = alloca %class.memory*, align 8
  %local_bran = alloca i32*, align 8
  %compact = alloca i16*, align 8
  %local_rightsib_backpatch_stack = alloca %class.Fnode***, align 8
  %local_rightsib_backpatch_count = alloca i32, align 4
  %t = alloca i32, align 4
  %size = alloca i32, align 4
  %current_pos = alloca i32, align 4
  %local_fast_rightsib_table = alloca %class.Fnode**, align 8
  %current_root = alloca %class.Fnode*, align 8
  %current_new_data_num = alloca i32, align 4
  %current_hot_node_depth = alloca i32, align 4
  %child = alloca %class.Fnode*, align 8
  %temp = alloca %class.Fnode*, align 8
  %temp2 = alloca %class.Fnode*, align 8
  %backpatch_node = alloca %class.Fnode**, align 8
  %i = alloca i32, align 4
  %k = alloca i32, align 4
  %exn.slot = alloca i8*
  %ehselector.slot = alloca i32
  %i169 = alloca i32, align 4
  %temp173 = alloca i32, align 4
  %totalnodes = alloca i32, align 4
  %local_rightsib_backpatch_count192 = alloca i32, align 4
  %local_rightsib_backpatch_stack196 = alloca %class.Fnode***, align 8
  %i199 = alloca i32, align 4
  store %class.FP_tree* %this, %class.FP_tree** %this.addr, align 8
  store i32 %workingthread, i32* %workingthread.addr, align 4
  %this1 = load %class.FP_tree*, %class.FP_tree** %this.addr, align 8
  call void @_Z5wtimePd(double* %tstart)
  %0 = load i32, i32* %workingthread.addr, align 4
  call void @_ZN7FP_tree15database_tilingEi(%class.FP_tree* %this1, i32 %0)
  %1 = load %class.Fnode***, %class.Fnode**** @hashtable, align 8
  %arrayidx = getelementptr inbounds %class.Fnode**, %class.Fnode*** %1, i64 0
  %2 = load %class.Fnode**, %class.Fnode*** %arrayidx, align 8
  store %class.Fnode** %2, %class.Fnode*** %local_hashtable, align 8
  store i32 0, i32* %j, align 4
  br label %for.cond

for.cond:                                         ; preds = %for.inc166, %entry
  %3 = load i32, i32* %j, align 4
  %4 = load i32, i32* @mergedworknum, align 4
  %cmp = icmp slt i32 %3, %4
  br i1 %cmp, label %for.body, label %for.end168

for.body:                                         ; preds = %for.cond
  %call = call i32 @_ZL18omp_get_thread_numv()
  store i32 %call, i32* %thread, align 4
  %5 = load i32*, i32** @threadworkloadnum, align 8
  %6 = load i32, i32* %thread, align 4
  %idxprom = sext i32 %6 to i64
  %arrayidx2 = getelementptr inbounds i32, i32* %5, i64 %idxprom
  %7 = load i32, i32* %arrayidx2, align 4
  store i32 %7, i32* %localthreadworkloadnum, align 4
  %8 = load i32**, i32*** @threadworkload, align 8
  %9 = load i32, i32* %thread, align 4
  %idxprom3 = sext i32 %9 to i64
  %arrayidx4 = getelementptr inbounds i32*, i32** %8, i64 %idxprom3
  %10 = load i32*, i32** %arrayidx4, align 8
  store i32* %10, i32** %localthreadworkload, align 8
  %11 = load i16*, i16** @threadtranscontent, align 8
  store i16* %11, i16** %content, align 8
  %12 = load i32**, i32*** @global_nodenum, align 8
  %13 = load i32, i32* %thread, align 4
  %idxprom5 = sext i32 %13 to i64
  %arrayidx6 = getelementptr inbounds i32*, i32** %12, i64 %idxprom5
  %14 = load i32*, i32** %arrayidx6, align 8
  store i32* %14, i32** %local_nodenum, align 8
  %15 = load %class.memory**, %class.memory*** @fp_tree_buf, align 8
  %16 = load i32, i32* %thread, align 4
  %idxprom7 = sext i32 %16 to i64
  %arrayidx8 = getelementptr inbounds %class.memory*, %class.memory** %15, i64 %idxprom7
  %17 = load %class.memory*, %class.memory** %arrayidx8, align 8
  store %class.memory* %17, %class.memory** %local_fp_tree_buf, align 8
  %18 = load i32**, i32*** @bran, align 8
  %19 = load i32, i32* %thread, align 4
  %idxprom9 = sext i32 %19 to i64
  %arrayidx10 = getelementptr inbounds i32*, i32** %18, i64 %idxprom9
  %20 = load i32*, i32** %arrayidx10, align 8
  store i32* %20, i32** %local_bran, align 8
  %21 = load %class.Fnode****, %class.Fnode***** @rightsib_backpatch_stack, align 8
  %22 = load i32, i32* %thread, align 4
  %idxprom11 = sext i32 %22 to i64
  %arrayidx12 = getelementptr inbounds %class.Fnode***, %class.Fnode**** %21, i64 %idxprom11
  %23 = load %class.Fnode***, %class.Fnode**** %arrayidx12, align 8
  store %class.Fnode*** %23, %class.Fnode**** %local_rightsib_backpatch_stack, align 8
  %24 = load i32**, i32*** @rightsib_backpatch_count, align 8
  %25 = load i32, i32* %thread, align 4
  %idxprom13 = sext i32 %25 to i64
  %arrayidx14 = getelementptr inbounds i32*, i32** %24, i64 %idxprom13
  %26 = load i32*, i32** %arrayidx14, align 8
  %arrayidx15 = getelementptr inbounds i32, i32* %26, i64 0
  %27 = load i32, i32* %arrayidx15, align 4
  store i32 %27, i32* %local_rightsib_backpatch_count, align 4
  %28 = load i32, i32* %j, align 4
  %idxprom16 = sext i32 %28 to i64
  %arrayidx17 = getelementptr inbounds [65536 x i32], [65536 x i32]* @mergedworkbase, i64 0, i64 %idxprom16
  %29 = load i32, i32* %arrayidx17, align 4
  store i32 %29, i32* %t, align 4
  br label %for.cond18

for.cond18:                                       ; preds = %for.inc158, %for.body
  %30 = load i32, i32* %t, align 4
  %31 = load i32, i32* %j, align 4
  %idxprom19 = sext i32 %31 to i64
  %arrayidx20 = getelementptr inbounds [65536 x i32], [65536 x i32]* @mergedworkend, i64 0, i64 %idxprom19
  %32 = load i32, i32* %arrayidx20, align 4
  %cmp21 = icmp slt i32 %30, %32
  br i1 %cmp21, label %for.body22, label %for.end160

for.body22:                                       ; preds = %for.cond18
  %33 = load i32, i32* %t, align 4
  %idxprom23 = sext i32 %33 to i64
  %arrayidx24 = getelementptr inbounds [65536 x i32], [65536 x i32]* @ntypeidarray, i64 0, i64 %idxprom23
  %34 = load i32, i32* %arrayidx24, align 4
  store i32 %34, i32* %ntype, align 4
  %35 = load i32, i32* %ntype, align 4
  %36 = load i32*, i32** %localthreadworkload, align 8
  %37 = load i32, i32* %localthreadworkloadnum, align 4
  %idxprom25 = sext i32 %37 to i64
  %arrayidx26 = getelementptr inbounds i32, i32* %36, i64 %idxprom25
  store i32 %35, i32* %arrayidx26, align 4
  %38 = load i32, i32* %localthreadworkloadnum, align 4
  %inc = add nsw i32 %38, 1
  store i32 %inc, i32* %localthreadworkloadnum, align 4
  %39 = load i32*, i32** @ntypeoffsetend, align 8
  %40 = load i32, i32* %ntype, align 4
  %idxprom27 = sext i32 %40 to i64
  %arrayidx28 = getelementptr inbounds i32, i32* %39, i64 %idxprom27
  %41 = load i32, i32* %arrayidx28, align 4
  store i32 %41, i32* %size, align 4
  %42 = load i32*, i32** @ntypeoffsetbase, align 8
  %43 = load i32, i32* %ntype, align 4
  %idxprom29 = sext i32 %43 to i64
  %arrayidx30 = getelementptr inbounds i32, i32* %42, i64 %idxprom29
  %44 = load i32, i32* %arrayidx30, align 4
  store i32 %44, i32* %current_pos, align 4
  %45 = load %class.Fnode****, %class.Fnode***** @fast_rightsib_table, align 8
  %46 = load i32, i32* %thread, align 4
  %idxprom31 = sext i32 %46 to i64
  %arrayidx32 = getelementptr inbounds %class.Fnode***, %class.Fnode**** %45, i64 %idxprom31
  %47 = load %class.Fnode***, %class.Fnode**** %arrayidx32, align 8
  %48 = load i32, i32* %ntype, align 4
  %idxprom33 = sext i32 %48 to i64
  %arrayidx34 = getelementptr inbounds %class.Fnode**, %class.Fnode*** %47, i64 %idxprom33
  %49 = load %class.Fnode**, %class.Fnode*** %arrayidx34, align 8
  store %class.Fnode** %49, %class.Fnode*** %local_fast_rightsib_table, align 8
  %50 = load %class.Fnode**, %class.Fnode*** %local_hashtable, align 8
  %51 = load i32, i32* %ntype, align 4
  %idxprom35 = sext i32 %51 to i64
  %arrayidx36 = getelementptr inbounds %class.Fnode*, %class.Fnode** %50, i64 %idxprom35
  %52 = load %class.Fnode*, %class.Fnode** %arrayidx36, align 8
  store %class.Fnode* %52, %class.Fnode** %current_root, align 8
  store i32 0, i32* %current_new_data_num, align 4
  %53 = load i32*, i32** @hot_node_depth, align 8
  %54 = load i32, i32* %ntype, align 4
  %idxprom37 = sext i32 %54 to i64
  %arrayidx38 = getelementptr inbounds i32, i32* %53, i64 %idxprom37
  %55 = load i32, i32* %arrayidx38, align 4
  store i32 %55, i32* %current_hot_node_depth, align 4
  %56 = load i32, i32* %ntype, align 4
  %cmp39 = icmp ne i32 %56, 0
  br i1 %cmp39, label %if.then, label %if.end

if.then:                                          ; preds = %for.body22
  %57 = load i32*, i32** %local_nodenum, align 8
  %58 = load i32*, i32** @hot_node_index, align 8
  %59 = load i32, i32* %ntype, align 4
  %idxprom40 = sext i32 %59 to i64
  %arrayidx41 = getelementptr inbounds i32, i32* %58, i64 %idxprom40
  %60 = load i32, i32* %arrayidx41, align 4
  %idxprom42 = sext i32 %60 to i64
  %arrayidx43 = getelementptr inbounds i32, i32* %57, i64 %idxprom42
  %61 = load i32, i32* %arrayidx43, align 4
  %inc44 = add nsw i32 %61, 1
  store i32 %inc44, i32* %arrayidx43, align 4
  br label %if.end

if.end:                                           ; preds = %if.then, %for.body22
  br label %while.cond

while.cond:                                       ; preds = %if.end149, %if.end
  %62 = load i32, i32* %current_pos, align 4
  %63 = load i32, i32* %size, align 4
  %cmp45 = icmp slt i32 %62, %63
  br i1 %cmp45, label %while.body, label %while.end151

while.body:                                       ; preds = %while.cond
  %64 = load i16*, i16** %content, align 8
  %65 = load i32, i32* %current_pos, align 4
  %idxprom46 = sext i32 %65 to i64
  %arrayidx47 = getelementptr inbounds i16, i16* %64, i64 %idxprom46
  %66 = load i16, i16* %arrayidx47, align 2
  %conv = zext i16 %66 to i32
  store i32 %conv, i32* %has, align 4
  %67 = load i32, i32* %current_pos, align 4
  %add = add nsw i32 %67, 1
  store i32 %add, i32* %current_pos, align 4
  %68 = load i16*, i16** %content, align 8
  %69 = load i32, i32* %current_pos, align 4
  %idx.ext = sext i32 %69 to i64
  %add.ptr = getelementptr inbounds i16, i16* %68, i64 %idx.ext
  store i16* %add.ptr, i16** %compact, align 8
  store %class.Fnode** null, %class.Fnode*** %backpatch_node, align 8
  store i32 0, i32* %i, align 4
  %70 = load %class.Fnode*, %class.Fnode** %current_root, align 8
  store %class.Fnode* %70, %class.Fnode** %child, align 8
  %71 = load i32, i32* %ntype, align 4
  %cmp48 = icmp slt i32 %71, 16
  br i1 %cmp48, label %if.then49, label %if.end63

if.then49:                                        ; preds = %while.body
  %72 = load %class.Fnode**, %class.Fnode*** %local_fast_rightsib_table, align 8
  %73 = load i16*, i16** %compact, align 8
  %74 = load i32, i32* %i, align 4
  %idxprom50 = sext i32 %74 to i64
  %arrayidx51 = getelementptr inbounds i16, i16* %73, i64 %idxprom50
  %75 = load i16, i16* %arrayidx51, align 2
  %idxprom52 = zext i16 %75 to i64
  %arrayidx53 = getelementptr inbounds %class.Fnode*, %class.Fnode** %72, i64 %idxprom52
  %76 = load %class.Fnode*, %class.Fnode** %arrayidx53, align 8
  store %class.Fnode* %76, %class.Fnode** %temp, align 8
  %77 = load %class.Fnode*, %class.Fnode** %temp, align 8
  %cmp54 = icmp eq %class.Fnode* %77, null
  br i1 %cmp54, label %if.then55, label %if.else

if.then55:                                        ; preds = %if.then49
  %78 = load %class.Fnode**, %class.Fnode*** %local_fast_rightsib_table, align 8
  %79 = load i16*, i16** %compact, align 8
  %80 = load i32, i32* %i, align 4
  %idxprom56 = sext i32 %80 to i64
  %arrayidx57 = getelementptr inbounds i16, i16* %79, i64 %idxprom56
  %81 = load i16, i16* %arrayidx57, align 2
  %idxprom58 = zext i16 %81 to i64
  %arrayidx59 = getelementptr inbounds %class.Fnode*, %class.Fnode** %78, i64 %idxprom58
  store %class.Fnode** %arrayidx59, %class.Fnode*** %backpatch_node, align 8
  br label %if.end62

if.else:                                          ; preds = %if.then49
  %82 = load %class.Fnode*, %class.Fnode** %temp, align 8
  %count = getelementptr inbounds %class.Fnode, %class.Fnode* %82, i32 0, i32 2
  %83 = load i32, i32* %count, align 8
  %add60 = add nsw i32 %83, 1
  store i32 %add60, i32* %count, align 8
  %84 = load %class.Fnode*, %class.Fnode** %temp, align 8
  store %class.Fnode* %84, %class.Fnode** %child, align 8
  %85 = load i32, i32* %i, align 4
  %inc61 = add nsw i32 %85, 1
  store i32 %inc61, i32* %i, align 4
  br label %if.end62

if.end62:                                         ; preds = %if.else, %if.then55
  br label %if.end63

if.end63:                                         ; preds = %if.end62, %while.body
  %86 = load %class.Fnode*, %class.Fnode** %temp, align 8
  %cmp64 = icmp ne %class.Fnode* %86, null
  br i1 %cmp64, label %if.then65, label %if.end84

if.then65:                                        ; preds = %if.end63
  br label %while.cond66

while.cond66:                                     ; preds = %if.end80, %if.then65
  %87 = load i32, i32* %i, align 4
  %88 = load i32, i32* %has, align 4
  %cmp67 = icmp slt i32 %87, %88
  br i1 %cmp67, label %while.body68, label %while.end

while.body68:                                     ; preds = %while.cond66
  %89 = load %class.Fnode*, %class.Fnode** %child, align 8
  %leftchild = getelementptr inbounds %class.Fnode, %class.Fnode* %89, i32 0, i32 0
  %90 = load %class.Fnode*, %class.Fnode** %leftchild, align 8
  store %class.Fnode* %90, %class.Fnode** %temp, align 8
  br label %for.cond69

for.cond69:                                       ; preds = %for.inc, %while.body68
  %91 = load %class.Fnode*, %class.Fnode** %temp, align 8
  %cmp70 = icmp ne %class.Fnode* %91, null
  br i1 %cmp70, label %for.body71, label %for.end

for.body71:                                       ; preds = %for.cond69
  %92 = load %class.Fnode*, %class.Fnode** %temp, align 8
  %itemname = getelementptr inbounds %class.Fnode, %class.Fnode* %92, i32 0, i32 3
  %93 = load i32, i32* %itemname, align 4
  %table = getelementptr inbounds %class.FP_tree, %class.FP_tree* %this1, i32 0, i32 3
  %94 = load i32*, i32** %table, align 8
  %95 = load i16*, i16** %compact, align 8
  %96 = load i32, i32* %i, align 4
  %idxprom72 = sext i32 %96 to i64
  %arrayidx73 = getelementptr inbounds i16, i16* %95, i64 %idxprom72
  %97 = load i16, i16* %arrayidx73, align 2
  %idxprom74 = zext i16 %97 to i64
  %arrayidx75 = getelementptr inbounds i32, i32* %94, i64 %idxprom74
  %98 = load i32, i32* %arrayidx75, align 4
  %cmp76 = icmp eq i32 %93, %98
  br i1 %cmp76, label %if.then77, label %if.end78

if.then77:                                        ; preds = %for.body71
  br label %for.end

if.end78:                                         ; preds = %for.body71
  br label %for.inc

for.inc:                                          ; preds = %if.end78
  %99 = load %class.Fnode*, %class.Fnode** %temp, align 8
  %rightsibling = getelementptr inbounds %class.Fnode, %class.Fnode* %99, i32 0, i32 1
  %100 = load %class.Fnode*, %class.Fnode** %rightsibling, align 8
  store %class.Fnode* %100, %class.Fnode** %temp, align 8
  br label %for.cond69

for.end:                                          ; preds = %if.then77, %for.cond69
  %101 = load %class.Fnode*, %class.Fnode** %temp, align 8
  %tobool = icmp ne %class.Fnode* %101, null
  br i1 %tobool, label %if.end80, label %if.then79

if.then79:                                        ; preds = %for.end
  br label %while.end

if.end80:                                         ; preds = %for.end
  %102 = load %class.Fnode*, %class.Fnode** %temp, align 8
  %count81 = getelementptr inbounds %class.Fnode, %class.Fnode* %102, i32 0, i32 2
  %103 = load i32, i32* %count81, align 8
  %add82 = add nsw i32 %103, 1
  store i32 %add82, i32* %count81, align 8
  %104 = load %class.Fnode*, %class.Fnode** %temp, align 8
  store %class.Fnode* %104, %class.Fnode** %child, align 8
  %105 = load i32, i32* %i, align 4
  %inc83 = add nsw i32 %105, 1
  store i32 %inc83, i32* %i, align 4
  br label %while.cond66

while.end:                                        ; preds = %if.then79, %while.cond66
  br label %if.end84

if.end84:                                         ; preds = %while.end, %if.end63
  %106 = load i32, i32* %has, align 4
  %107 = load i32, i32* %i, align 4
  %sub = sub nsw i32 %106, %107
  store i32 %sub, i32* %k, align 4
  %108 = load i32, i32* %k, align 4
  %cmp85 = icmp sgt i32 %108, 0
  br i1 %cmp85, label %if.then86, label %if.end149

if.then86:                                        ; preds = %if.end84
  %109 = load %class.memory*, %class.memory** %local_fp_tree_buf, align 8
  %110 = load i32, i32* %k, align 4
  %conv87 = sext i32 %110 to i64
  %mul = mul i64 24, %conv87
  %conv88 = trunc i64 %mul to i32
  %call89 = call i8* @_ZN6memory6newbufEjj(%class.memory* %109, i32 1, i32 %conv88)
  %111 = bitcast i8* %call89 to %class.Fnode*
  store %class.Fnode* %111, %class.Fnode** %temp, align 8
  %112 = load %class.Fnode**, %class.Fnode*** %backpatch_node, align 8
  %tobool90 = icmp ne %class.Fnode** %112, null
  br i1 %tobool90, label %if.then91, label %if.end95

if.then91:                                        ; preds = %if.then86
  %113 = load %class.Fnode*, %class.Fnode** %temp, align 8
  %114 = load %class.Fnode**, %class.Fnode*** %backpatch_node, align 8
  store %class.Fnode* %113, %class.Fnode** %114, align 8
  %115 = load %class.Fnode**, %class.Fnode*** %backpatch_node, align 8
  %116 = load %class.Fnode***, %class.Fnode**** %local_rightsib_backpatch_stack, align 8
  %117 = load i32, i32* %local_rightsib_backpatch_count, align 4
  %idxprom92 = sext i32 %117 to i64
  %arrayidx93 = getelementptr inbounds %class.Fnode**, %class.Fnode*** %116, i64 %idxprom92
  store %class.Fnode** %115, %class.Fnode*** %arrayidx93, align 8
  %118 = load i32, i32* %local_rightsib_backpatch_count, align 4
  %inc94 = add nsw i32 %118, 1
  store i32 %inc94, i32* %local_rightsib_backpatch_count, align 4
  br label %if.end95

if.end95:                                         ; preds = %if.then91, %if.then86
  %119 = load i32*, i32** %local_nodenum, align 8
  %120 = load i16*, i16** %compact, align 8
  %121 = load i32, i32* %i, align 4
  %idxprom96 = sext i32 %121 to i64
  %arrayidx97 = getelementptr inbounds i16, i16* %120, i64 %idxprom96
  %122 = load i16, i16* %arrayidx97, align 2
  %idxprom98 = zext i16 %122 to i64
  %arrayidx99 = getelementptr inbounds i32, i32* %119, i64 %idxprom98
  %123 = load i32, i32* %arrayidx99, align 4
  %inc100 = add nsw i32 %123, 1
  store i32 %inc100, i32* %arrayidx99, align 4
  %124 = load i32*, i32** %local_bran, align 8
  %125 = load i32, i32* %i, align 4
  %idxprom101 = sext i32 %125 to i64
  %arrayidx102 = getelementptr inbounds i32, i32* %124, i64 %idxprom101
  %126 = load i32, i32* %arrayidx102, align 4
  %inc103 = add nsw i32 %126, 1
  store i32 %inc103, i32* %arrayidx102, align 4
  %127 = load i16*, i16** %compact, align 8
  %128 = load i32, i32* %i, align 4
  %idxprom104 = sext i32 %128 to i64
  %arrayidx105 = getelementptr inbounds i16, i16* %127, i64 %idxprom104
  %129 = load i16, i16* %arrayidx105, align 2
  %conv106 = zext i16 %129 to i32
  %130 = load %class.Fnode*, %class.Fnode** %temp, align 8
  %itemname107 = getelementptr inbounds %class.Fnode, %class.Fnode* %130, i32 0, i32 3
  store i32 %conv106, i32* %itemname107, align 4
  %131 = load %class.Fnode*, %class.Fnode** %temp, align 8
  %count108 = getelementptr inbounds %class.Fnode, %class.Fnode* %131, i32 0, i32 2
  store i32 1, i32* %count108, align 8
  %132 = load %class.Fnode*, %class.Fnode** %child, align 8
  %leftchild109 = getelementptr inbounds %class.Fnode, %class.Fnode* %132, i32 0, i32 0
  %133 = load %class.Fnode*, %class.Fnode** %leftchild109, align 8
  %cmp110 = icmp eq %class.Fnode* %133, null
  br i1 %cmp110, label %if.then111, label %if.else116

if.then111:                                       ; preds = %if.end95
  %134 = load i32, i32* %k, align 4
  %135 = load i32, i32* %current_new_data_num, align 4
  %add112 = add nsw i32 %135, %134
  store i32 %add112, i32* %current_new_data_num, align 4
  %136 = load %class.Fnode*, %class.Fnode** %child, align 8
  %leftchild113 = getelementptr inbounds %class.Fnode, %class.Fnode* %136, i32 0, i32 0
  %137 = load %class.Fnode*, %class.Fnode** %leftchild113, align 8
  %138 = load %class.Fnode*, %class.Fnode** %temp, align 8
  %rightsibling114 = getelementptr inbounds %class.Fnode, %class.Fnode* %138, i32 0, i32 1
  store %class.Fnode* %137, %class.Fnode** %rightsibling114, align 8
  %139 = load %class.Fnode*, %class.Fnode** %temp, align 8
  %140 = load %class.Fnode*, %class.Fnode** %child, align 8
  %leftchild115 = getelementptr inbounds %class.Fnode, %class.Fnode* %140, i32 0, i32 0
  store %class.Fnode* %139, %class.Fnode** %leftchild115, align 8
  br label %if.end124

if.else116:                                       ; preds = %if.end95
  %141 = load %class.Fnode*, %class.Fnode** %child, align 8
  %leftchild117 = getelementptr inbounds %class.Fnode, %class.Fnode* %141, i32 0, i32 0
  %142 = load %class.Fnode*, %class.Fnode** %leftchild117, align 8
  %rightsibling118 = getelementptr inbounds %class.Fnode, %class.Fnode* %142, i32 0, i32 1
  %143 = load %class.Fnode*, %class.Fnode** %rightsibling118, align 8
  %144 = load %class.Fnode*, %class.Fnode** %temp, align 8
  %rightsibling119 = getelementptr inbounds %class.Fnode, %class.Fnode* %144, i32 0, i32 1
  store %class.Fnode* %143, %class.Fnode** %rightsibling119, align 8
  %145 = load %class.Fnode*, %class.Fnode** %temp, align 8
  %146 = load %class.Fnode*, %class.Fnode** %child, align 8
  %leftchild120 = getelementptr inbounds %class.Fnode, %class.Fnode* %146, i32 0, i32 0
  %147 = load %class.Fnode*, %class.Fnode** %leftchild120, align 8
  %rightsibling121 = getelementptr inbounds %class.Fnode, %class.Fnode* %147, i32 0, i32 1
  store %class.Fnode* %145, %class.Fnode** %rightsibling121, align 8
  %148 = load i32, i32* %has, align 4
  %149 = load i32, i32* %current_hot_node_depth, align 4
  %add122 = add nsw i32 %148, %149
  %150 = load i32, i32* %current_new_data_num, align 4
  %add123 = add nsw i32 %150, %add122
  store i32 %add123, i32* %current_new_data_num, align 4
  br label %if.end124

if.end124:                                        ; preds = %if.else116, %if.then111
  %151 = load %class.Fnode*, %class.Fnode** %temp, align 8
  store %class.Fnode* %151, %class.Fnode** %temp2, align 8
  %152 = load %class.Fnode*, %class.Fnode** %temp, align 8
  %incdec.ptr = getelementptr inbounds %class.Fnode, %class.Fnode* %152, i32 1
  store %class.Fnode* %incdec.ptr, %class.Fnode** %temp, align 8
  %153 = load i32, i32* %i, align 4
  %inc125 = add nsw i32 %153, 1
  store i32 %inc125, i32* %i, align 4
  br label %while.cond126

while.cond126:                                    ; preds = %while.body128, %if.end124
  %154 = load i32, i32* %i, align 4
  %155 = load i32, i32* %has, align 4
  %cmp127 = icmp slt i32 %154, %155
  br i1 %cmp127, label %while.body128, label %while.end146

while.body128:                                    ; preds = %while.cond126
  %156 = load i32*, i32** %local_nodenum, align 8
  %157 = load i16*, i16** %compact, align 8
  %158 = load i32, i32* %i, align 4
  %idxprom129 = sext i32 %158 to i64
  %arrayidx130 = getelementptr inbounds i16, i16* %157, i64 %idxprom129
  %159 = load i16, i16* %arrayidx130, align 2
  %idxprom131 = zext i16 %159 to i64
  %arrayidx132 = getelementptr inbounds i32, i32* %156, i64 %idxprom131
  %160 = load i32, i32* %arrayidx132, align 4
  %inc133 = add nsw i32 %160, 1
  store i32 %inc133, i32* %arrayidx132, align 4
  %161 = load i32*, i32** %local_bran, align 8
  %162 = load i32, i32* %i, align 4
  %idxprom134 = sext i32 %162 to i64
  %arrayidx135 = getelementptr inbounds i32, i32* %161, i64 %idxprom134
  %163 = load i32, i32* %arrayidx135, align 4
  %inc136 = add nsw i32 %163, 1
  store i32 %inc136, i32* %arrayidx135, align 4
  %164 = load i16*, i16** %compact, align 8
  %165 = load i32, i32* %i, align 4
  %idxprom137 = sext i32 %165 to i64
  %arrayidx138 = getelementptr inbounds i16, i16* %164, i64 %idxprom137
  %166 = load i16, i16* %arrayidx138, align 2
  %conv139 = zext i16 %166 to i32
  %167 = load %class.Fnode*, %class.Fnode** %temp, align 8
  %itemname140 = getelementptr inbounds %class.Fnode, %class.Fnode* %167, i32 0, i32 3
  store i32 %conv139, i32* %itemname140, align 4
  %168 = load %class.Fnode*, %class.Fnode** %temp, align 8
  %rightsibling141 = getelementptr inbounds %class.Fnode, %class.Fnode* %168, i32 0, i32 1
  store %class.Fnode* null, %class.Fnode** %rightsibling141, align 8
  %169 = load %class.Fnode*, %class.Fnode** %temp, align 8
  %count142 = getelementptr inbounds %class.Fnode, %class.Fnode* %169, i32 0, i32 2
  store i32 1, i32* %count142, align 8
  %170 = load %class.Fnode*, %class.Fnode** %temp, align 8
  %171 = load %class.Fnode*, %class.Fnode** %temp2, align 8
  %leftchild143 = getelementptr inbounds %class.Fnode, %class.Fnode* %171, i32 0, i32 0
  store %class.Fnode* %170, %class.Fnode** %leftchild143, align 8
  %172 = load %class.Fnode*, %class.Fnode** %temp, align 8
  store %class.Fnode* %172, %class.Fnode** %temp2, align 8
  %173 = load %class.Fnode*, %class.Fnode** %temp, align 8
  %incdec.ptr144 = getelementptr inbounds %class.Fnode, %class.Fnode* %173, i32 1
  store %class.Fnode* %incdec.ptr144, %class.Fnode** %temp, align 8
  %174 = load i32, i32* %i, align 4
  %inc145 = add nsw i32 %174, 1
  store i32 %inc145, i32* %i, align 4
  br label %while.cond126

while.end146:                                     ; preds = %while.cond126
  %175 = load %class.Fnode*, %class.Fnode** %temp, align 8
  %incdec.ptr147 = getelementptr inbounds %class.Fnode, %class.Fnode* %175, i32 -1
  store %class.Fnode* %incdec.ptr147, %class.Fnode** %temp, align 8
  %176 = load %class.Fnode*, %class.Fnode** %temp, align 8
  %leftchild148 = getelementptr inbounds %class.Fnode, %class.Fnode* %176, i32 0, i32 0
  store %class.Fnode* null, %class.Fnode** %leftchild148, align 8
  br label %if.end149

if.end149:                                        ; preds = %while.end146, %if.end84
  %177 = load i32, i32* %has, align 4
  %178 = load i32, i32* %current_pos, align 4
  %add150 = add nsw i32 %178, %177
  store i32 %add150, i32* %current_pos, align 4
  br label %while.cond

while.end151:                                     ; preds = %while.cond
  %179 = load i32, i32* %current_new_data_num, align 4
  %180 = load i32, i32* %current_hot_node_depth, align 4
  %add152 = add nsw i32 %179, %180
  %add153 = add nsw i32 %add152, 1
  %181 = load i32**, i32*** @new_data_num, align 8
  %182 = load i32, i32* %thread, align 4
  %idxprom154 = sext i32 %182 to i64
  %arrayidx155 = getelementptr inbounds i32*, i32** %181, i64 %idxprom154
  %183 = load i32*, i32** %arrayidx155, align 8
  %arrayidx156 = getelementptr inbounds i32, i32* %183, i64 0
  %184 = load i32, i32* %arrayidx156, align 4
  %add157 = add nsw i32 %184, %add153
  store i32 %add157, i32* %arrayidx156, align 4
  br label %for.inc158

for.inc158:                                       ; preds = %while.end151
  %185 = load i32, i32* %t, align 4
  %inc159 = add nsw i32 %185, 1
  store i32 %inc159, i32* %t, align 4
  br label %for.cond18

for.end160:                                       ; preds = %for.cond18
  %186 = load i32, i32* %local_rightsib_backpatch_count, align 4
  %187 = load i32**, i32*** @rightsib_backpatch_count, align 8
  %188 = load i32, i32* %thread, align 4
  %idxprom161 = sext i32 %188 to i64
  %arrayidx162 = getelementptr inbounds i32*, i32** %187, i64 %idxprom161
  %189 = load i32*, i32** %arrayidx162, align 8
  %arrayidx163 = getelementptr inbounds i32, i32* %189, i64 0
  store i32 %186, i32* %arrayidx163, align 4
  %190 = load i32, i32* %localthreadworkloadnum, align 4
  %191 = load i32*, i32** @threadworkloadnum, align 8
  %192 = load i32, i32* %thread, align 4
  %idxprom164 = sext i32 %192 to i64
  %arrayidx165 = getelementptr inbounds i32, i32* %191, i64 %idxprom164
  store i32 %190, i32* %arrayidx165, align 4
  br label %for.inc166

for.inc166:                                       ; preds = %for.end160
  %193 = load i32, i32* %j, align 4
  %inc167 = add nsw i32 %193, 1
  store i32 %inc167, i32* %j, align 4
  br label %for.cond

for.end168:                                       ; preds = %for.cond
  %194 = load %class.memory*, %class.memory** @database_buf, align 8
  %isnull = icmp eq %class.memory* %194, null
  br i1 %isnull, label %delete.end, label %delete.notnull

delete.notnull:                                   ; preds = %for.end168
  invoke void @_ZN6memoryD1Ev(%class.memory* %194)
          to label %invoke.cont unwind label %lpad

invoke.cont:                                      ; preds = %delete.notnull
  %195 = bitcast %class.memory* %194 to i8*
  call void @_ZdlPv(i8* %195) #9
  br label %delete.end

delete.end:                                       ; preds = %invoke.cont, %for.end168
  store i32 0, i32* %i169, align 4
  br label %for.cond170

for.cond170:                                      ; preds = %for.inc185, %delete.end
  %196 = load i32, i32* %i169, align 4
  %197 = load i32, i32* %workingthread.addr, align 4
  %cmp171 = icmp slt i32 %196, %197
  br i1 %cmp171, label %for.body172, label %for.end187

for.body172:                                      ; preds = %for.cond170
  store i32 0, i32* %temp173, align 4
  store i32 0, i32* %j, align 4
  br label %for.cond174

for.cond174:                                      ; preds = %for.inc182, %for.body172
  %198 = load i32, i32* %j, align 4
  %itemno = getelementptr inbounds %class.FP_tree, %class.FP_tree* %this1, i32 0, i32 0
  %199 = load i32, i32* %itemno, align 8
  %cmp175 = icmp slt i32 %198, %199
  br i1 %cmp175, label %for.body176, label %for.end184

for.body176:                                      ; preds = %for.cond174
  %200 = load i32**, i32*** @global_nodenum, align 8
  %201 = load i32, i32* %i169, align 4
  %idxprom177 = sext i32 %201 to i64
  %arrayidx178 = getelementptr inbounds i32*, i32** %200, i64 %idxprom177
  %202 = load i32*, i32** %arrayidx178, align 8
  %203 = load i32, i32* %j, align 4
  %idxprom179 = sext i32 %203 to i64
  %arrayidx180 = getelementptr inbounds i32, i32* %202, i64 %idxprom179
  %204 = load i32, i32* %arrayidx180, align 4
  %205 = load i32, i32* %temp173, align 4
  %add181 = add nsw i32 %205, %204
  store i32 %add181, i32* %temp173, align 4
  br label %for.inc182

for.inc182:                                       ; preds = %for.body176
  %206 = load i32, i32* %j, align 4
  %inc183 = add nsw i32 %206, 1
  store i32 %inc183, i32* %j, align 4
  br label %for.cond174

lpad:                                             ; preds = %delete.notnull
  %207 = landingpad { i8*, i32 }
          cleanup
  %208 = extractvalue { i8*, i32 } %207, 0
  store i8* %208, i8** %exn.slot, align 8
  %209 = extractvalue { i8*, i32 } %207, 1
  store i32 %209, i32* %ehselector.slot, align 4
  %210 = bitcast %class.memory* %194 to i8*
  call void @_ZdlPv(i8* %210) #9
  br label %eh.resume

for.end184:                                       ; preds = %for.cond174
  br label %for.inc185

for.inc185:                                       ; preds = %for.end184
  %211 = load i32, i32* %i169, align 4
  %inc186 = add nsw i32 %211, 1
  store i32 %inc186, i32* %i169, align 4
  br label %for.cond170

for.end187:                                       ; preds = %for.cond170
  %call188 = call i32 @_ZN7FP_tree12cal_level_25Ei(%class.FP_tree* %this1, i32 0)
  store i32 %call188, i32* %totalnodes, align 4
  store i32 0, i32* %j, align 4
  br label %for.cond189

for.cond189:                                      ; preds = %for.inc208, %for.end187
  %212 = load i32, i32* %j, align 4
  %213 = load i32, i32* %workingthread.addr, align 4
  %cmp190 = icmp slt i32 %212, %213
  br i1 %cmp190, label %for.body191, label %for.end210

for.body191:                                      ; preds = %for.cond189
  %214 = load i32**, i32*** @rightsib_backpatch_count, align 8
  %215 = load i32, i32* %j, align 4
  %idxprom193 = sext i32 %215 to i64
  %arrayidx194 = getelementptr inbounds i32*, i32** %214, i64 %idxprom193
  %216 = load i32*, i32** %arrayidx194, align 8
  %arrayidx195 = getelementptr inbounds i32, i32* %216, i64 0
  %217 = load i32, i32* %arrayidx195, align 4
  store i32 %217, i32* %local_rightsib_backpatch_count192, align 4
  %218 = load %class.Fnode****, %class.Fnode***** @rightsib_backpatch_stack, align 8
  %219 = load i32, i32* %j, align 4
  %idxprom197 = sext i32 %219 to i64
  %arrayidx198 = getelementptr inbounds %class.Fnode***, %class.Fnode**** %218, i64 %idxprom197
  %220 = load %class.Fnode***, %class.Fnode**** %arrayidx198, align 8
  store %class.Fnode*** %220, %class.Fnode**** %local_rightsib_backpatch_stack196, align 8
  store i32 0, i32* %i199, align 4
  br label %for.cond200

for.cond200:                                      ; preds = %for.inc205, %for.body191
  %221 = load i32, i32* %i199, align 4
  %222 = load i32, i32* %local_rightsib_backpatch_count192, align 4
  %cmp201 = icmp slt i32 %221, %222
  br i1 %cmp201, label %for.body202, label %for.end207

for.body202:                                      ; preds = %for.cond200
  %223 = load %class.Fnode***, %class.Fnode**** %local_rightsib_backpatch_stack196, align 8
  %224 = load i32, i32* %i199, align 4
  %idxprom203 = sext i32 %224 to i64
  %arrayidx204 = getelementptr inbounds %class.Fnode**, %class.Fnode*** %223, i64 %idxprom203
  %225 = load %class.Fnode**, %class.Fnode*** %arrayidx204, align 8
  store %class.Fnode* null, %class.Fnode** %225, align 8
  br label %for.inc205

for.inc205:                                       ; preds = %for.body202
  %226 = load i32, i32* %i199, align 4
  %inc206 = add nsw i32 %226, 1
  store i32 %inc206, i32* %i199, align 4
  br label %for.cond200

for.end207:                                       ; preds = %for.cond200
  br label %for.inc208

for.inc208:                                       ; preds = %for.end207
  %227 = load i32, i32* %j, align 4
  %inc209 = add nsw i32 %227, 1
  store i32 %inc209, i32* %j, align 4
  br label %for.cond189

for.end210:                                       ; preds = %for.cond189
  call void @_Z5wtimePd(double* %tend)
  ret void

eh.resume:                                        ; preds = %lpad
  %exn = load i8*, i8** %exn.slot, align 8
  %sel = load i32, i32* %ehselector.slot, align 4
  %lpad.val = insertvalue { i8*, i32 } undef, i8* %exn, 0
  %lpad.val211 = insertvalue { i8*, i32 } %lpad.val, i32 %sel, 1
  resume { i8*, i32 } %lpad.val211
}

declare void @_Z5wtimePd(double*) #5

declare void @_ZN6memoryD1Ev(%class.memory*) unnamed_addr #5

; Function Attrs: noinline uwtable
define void @_ZN7FP_tree8scan1_DBEiPS_i(%class.FP_tree* %this, i32 %thread, %class.FP_tree* %old_tree, i32 %item) #1 align 2 {
entry:
  %this.addr = alloca %class.FP_tree*, align 8
  %thread.addr = alloca i32, align 4
  %old_tree.addr = alloca %class.FP_tree*, align 8
  %item.addr = alloca i32, align 4
  %i = alloca i32, align 4
  %local_global_count_array = alloca i32*, align 8
  %local_global_table_array = alloca i32*, align 8
  %local_global_temp_order_array = alloca i32*, align 8
  %local_global_order_array = alloca i32*, align 8
  %old_table = alloca i32*, align 8
  store %class.FP_tree* %this, %class.FP_tree** %this.addr, align 8
  store i32 %thread, i32* %thread.addr, align 4
  store %class.FP_tree* %old_tree, %class.FP_tree** %old_tree.addr, align 8
  store i32 %item, i32* %item.addr, align 4
  %this1 = load %class.FP_tree*, %class.FP_tree** %this.addr, align 8
  %0 = load i32**, i32*** @global_count_array, align 8
  %1 = load i32, i32* %thread.addr, align 4
  %idxprom = sext i32 %1 to i64
  %arrayidx = getelementptr inbounds i32*, i32** %0, i64 %idxprom
  %2 = load i32*, i32** %arrayidx, align 8
  store i32* %2, i32** %local_global_count_array, align 8
  %3 = load i32**, i32*** @global_table_array, align 8
  %4 = load i32, i32* %thread.addr, align 4
  %idxprom2 = sext i32 %4 to i64
  %arrayidx3 = getelementptr inbounds i32*, i32** %3, i64 %idxprom2
  %5 = load i32*, i32** %arrayidx3, align 8
  store i32* %5, i32** %local_global_table_array, align 8
  %6 = load i32**, i32*** @global_temp_order_array, align 8
  %7 = load i32, i32* %thread.addr, align 4
  %idxprom4 = sext i32 %7 to i64
  %arrayidx5 = getelementptr inbounds i32*, i32** %6, i64 %idxprom4
  %8 = load i32*, i32** %arrayidx5, align 8
  store i32* %8, i32** %local_global_temp_order_array, align 8
  %9 = load i32**, i32*** @global_order_array, align 8
  %10 = load i32, i32* %thread.addr, align 4
  %idxprom6 = sext i32 %10 to i64
  %arrayidx7 = getelementptr inbounds i32*, i32** %9, i64 %idxprom6
  %11 = load i32*, i32** %arrayidx7, align 8
  store i32* %11, i32** %local_global_order_array, align 8
  %12 = load %class.FP_tree*, %class.FP_tree** %old_tree.addr, align 8
  %table = getelementptr inbounds %class.FP_tree, %class.FP_tree* %12, i32 0, i32 3
  %13 = load i32*, i32** %table, align 8
  store i32* %13, i32** %old_table, align 8
  store i32 0, i32* %i, align 4
  br label %for.cond

for.cond:                                         ; preds = %for.inc, %entry
  %14 = load i32, i32* %i, align 4
  %itemno = getelementptr inbounds %class.FP_tree, %class.FP_tree* %this1, i32 0, i32 0
  %15 = load i32, i32* %itemno, align 8
  %cmp = icmp slt i32 %14, %15
  br i1 %cmp, label %for.body, label %for.end

for.body:                                         ; preds = %for.cond
  %16 = load i32*, i32** %local_global_count_array, align 8
  %17 = load i32, i32* %i, align 4
  %idxprom8 = sext i32 %17 to i64
  %arrayidx9 = getelementptr inbounds i32, i32* %16, i64 %idxprom8
  %18 = load i32, i32* %arrayidx9, align 4
  %count = getelementptr inbounds %class.FP_tree, %class.FP_tree* %this1, i32 0, i32 5
  %19 = load i32*, i32** %count, align 8
  %20 = load i32, i32* %i, align 4
  %idxprom10 = sext i32 %20 to i64
  %arrayidx11 = getelementptr inbounds i32, i32* %19, i64 %idxprom10
  store i32 %18, i32* %arrayidx11, align 4
  %21 = load i32*, i32** %local_global_table_array, align 8
  %22 = load i32, i32* %i, align 4
  %idxprom12 = sext i32 %22 to i64
  %arrayidx13 = getelementptr inbounds i32, i32* %21, i64 %idxprom12
  %23 = load i32, i32* %arrayidx13, align 4
  %table14 = getelementptr inbounds %class.FP_tree, %class.FP_tree* %this1, i32 0, i32 3
  %24 = load i32*, i32** %table14, align 8
  %25 = load i32, i32* %i, align 4
  %idxprom15 = sext i32 %25 to i64
  %arrayidx16 = getelementptr inbounds i32, i32* %24, i64 %idxprom15
  store i32 %23, i32* %arrayidx16, align 4
  br label %for.inc

for.inc:                                          ; preds = %for.body
  %26 = load i32, i32* %i, align 4
  %inc = add nsw i32 %26, 1
  store i32 %inc, i32* %i, align 4
  br label %for.cond

for.end:                                          ; preds = %for.cond
  %count17 = getelementptr inbounds %class.FP_tree, %class.FP_tree* %this1, i32 0, i32 5
  %27 = load i32*, i32** %count17, align 8
  %table18 = getelementptr inbounds %class.FP_tree, %class.FP_tree* %this1, i32 0, i32 3
  %28 = load i32*, i32** %table18, align 8
  %itemno19 = getelementptr inbounds %class.FP_tree, %class.FP_tree* %this1, i32 0, i32 0
  %29 = load i32, i32* %itemno19, align 8
  %sub = sub nsw i32 %29, 1
  call void @_Z4sortPiS_ii(i32* %27, i32* %28, i32 0, i32 %sub)
  store i32 0, i32* %i, align 4
  br label %for.cond20

for.cond20:                                       ; preds = %for.inc29, %for.end
  %30 = load i32, i32* %i, align 4
  %itemno21 = getelementptr inbounds %class.FP_tree, %class.FP_tree* %this1, i32 0, i32 0
  %31 = load i32, i32* %itemno21, align 8
  %cmp22 = icmp slt i32 %30, %31
  br i1 %cmp22, label %for.body23, label %for.end31

for.body23:                                       ; preds = %for.cond20
  %32 = load i32, i32* %i, align 4
  %33 = load i32*, i32** %local_global_temp_order_array, align 8
  %table24 = getelementptr inbounds %class.FP_tree, %class.FP_tree* %this1, i32 0, i32 3
  %34 = load i32*, i32** %table24, align 8
  %35 = load i32, i32* %i, align 4
  %idxprom25 = sext i32 %35 to i64
  %arrayidx26 = getelementptr inbounds i32, i32* %34, i64 %idxprom25
  %36 = load i32, i32* %arrayidx26, align 4
  %idxprom27 = sext i32 %36 to i64
  %arrayidx28 = getelementptr inbounds i32, i32* %33, i64 %idxprom27
  store i32 %32, i32* %arrayidx28, align 4
  br label %for.inc29

for.inc29:                                        ; preds = %for.body23
  %37 = load i32, i32* %i, align 4
  %inc30 = add nsw i32 %37, 1
  store i32 %inc30, i32* %i, align 4
  br label %for.cond20

for.end31:                                        ; preds = %for.cond20
  store i32 0, i32* %i, align 4
  br label %for.cond32

for.cond32:                                       ; preds = %for.inc41, %for.end31
  %38 = load i32, i32* %i, align 4
  %39 = load i32, i32* %item.addr, align 4
  %cmp33 = icmp slt i32 %38, %39
  br i1 %cmp33, label %for.body34, label %for.end43

for.body34:                                       ; preds = %for.cond32
  %40 = load i32*, i32** %local_global_temp_order_array, align 8
  %41 = load i32*, i32** %old_table, align 8
  %42 = load i32, i32* %i, align 4
  %idxprom35 = sext i32 %42 to i64
  %arrayidx36 = getelementptr inbounds i32, i32* %41, i64 %idxprom35
  %43 = load i32, i32* %arrayidx36, align 4
  %idxprom37 = sext i32 %43 to i64
  %arrayidx38 = getelementptr inbounds i32, i32* %40, i64 %idxprom37
  %44 = load i32, i32* %arrayidx38, align 4
  %45 = load i32*, i32** %local_global_order_array, align 8
  %46 = load i32, i32* %i, align 4
  %idxprom39 = sext i32 %46 to i64
  %arrayidx40 = getelementptr inbounds i32, i32* %45, i64 %idxprom39
  store i32 %44, i32* %arrayidx40, align 4
  br label %for.inc41

for.inc41:                                        ; preds = %for.body34
  %47 = load i32, i32* %i, align 4
  %inc42 = add nsw i32 %47, 1
  store i32 %inc42, i32* %i, align 4
  br label %for.cond32

for.end43:                                        ; preds = %for.cond32
  %48 = load %class.memory**, %class.memory*** @fp_buf, align 8
  %49 = load i32, i32* %thread.addr, align 4
  %idxprom44 = sext i32 %49 to i64
  %arrayidx45 = getelementptr inbounds %class.memory*, %class.memory** %48, i64 %idxprom44
  %50 = load %class.memory*, %class.memory** %arrayidx45, align 8
  %itemno46 = getelementptr inbounds %class.FP_tree, %class.FP_tree* %this1, i32 0, i32 0
  %51 = load i32, i32* %itemno46, align 8
  %conv = sext i32 %51 to i64
  %mul = mul i64 %conv, 4
  %conv47 = trunc i64 %mul to i32
  %call = call i8* @_ZN6memory6newbufEjj(%class.memory* %50, i32 1, i32 %conv47)
  %52 = bitcast i8* %call to i32*
  %nodenum = getelementptr inbounds %class.FP_tree, %class.FP_tree* %this1, i32 0, i32 8
  store i32* %52, i32** %nodenum, align 8
  store i32 0, i32* %i, align 4
  br label %for.cond48

for.cond48:                                       ; preds = %for.inc55, %for.end43
  %53 = load i32, i32* %i, align 4
  %itemno49 = getelementptr inbounds %class.FP_tree, %class.FP_tree* %this1, i32 0, i32 0
  %54 = load i32, i32* %itemno49, align 8
  %cmp50 = icmp slt i32 %53, %54
  br i1 %cmp50, label %for.body51, label %for.end57

for.body51:                                       ; preds = %for.cond48
  %nodenum52 = getelementptr inbounds %class.FP_tree, %class.FP_tree* %this1, i32 0, i32 8
  %55 = load i32*, i32** %nodenum52, align 8
  %56 = load i32, i32* %i, align 4
  %idxprom53 = sext i32 %56 to i64
  %arrayidx54 = getelementptr inbounds i32, i32* %55, i64 %idxprom53
  store i32 0, i32* %arrayidx54, align 4
  br label %for.inc55

for.inc55:                                        ; preds = %for.body51
  %57 = load i32, i32* %i, align 4
  %inc56 = add nsw i32 %57, 1
  store i32 %inc56, i32* %i, align 4
  br label %for.cond48

for.end57:                                        ; preds = %for.cond48
  %itemno58 = getelementptr inbounds %class.FP_tree, %class.FP_tree* %this1, i32 0, i32 0
  %58 = load i32, i32* %itemno58, align 8
  %cmp59 = icmp sgt i32 %58, 12
  br i1 %cmp59, label %if.then, label %if.else

if.then:                                          ; preds = %for.end57
  %num_hot_item = getelementptr inbounds %class.FP_tree, %class.FP_tree* %this1, i32 0, i32 15
  store i32 6, i32* %num_hot_item, align 8
  br label %if.end

if.else:                                          ; preds = %for.end57
  %itemno60 = getelementptr inbounds %class.FP_tree, %class.FP_tree* %this1, i32 0, i32 0
  %59 = load i32, i32* %itemno60, align 8
  %div = sdiv i32 %59, 2
  %num_hot_item61 = getelementptr inbounds %class.FP_tree, %class.FP_tree* %this1, i32 0, i32 15
  store i32 %div, i32* %num_hot_item61, align 8
  br label %if.end

if.end:                                           ; preds = %if.else, %if.then
  %num_hot_item62 = getelementptr inbounds %class.FP_tree, %class.FP_tree* %this1, i32 0, i32 15
  %60 = load i32, i32* %num_hot_item62, align 8
  %shl = shl i32 1, %60
  %61 = load i32**, i32*** @sum_item_num, align 8
  %62 = load i32, i32* %thread.addr, align 4
  %idxprom63 = sext i32 %62 to i64
  %arrayidx64 = getelementptr inbounds i32*, i32** %61, i64 %idxprom63
  %63 = load i32*, i32** %arrayidx64, align 8
  %arrayidx65 = getelementptr inbounds i32, i32* %63, i64 0
  %64 = load i32, i32* %arrayidx65, align 4
  %div66 = sdiv i32 %64, 8
  %cmp67 = icmp sgt i32 %shl, %div66
  br i1 %cmp67, label %if.then68, label %if.end70

if.then68:                                        ; preds = %if.end
  %num_hot_item69 = getelementptr inbounds %class.FP_tree, %class.FP_tree* %this1, i32 0, i32 15
  store i32 0, i32* %num_hot_item69, align 8
  br label %if.end70

if.end70:                                         ; preds = %if.then68, %if.end
  %Root = getelementptr inbounds %class.FP_tree, %class.FP_tree* %this1, i32 0, i32 4
  %65 = load %class.Fnode*, %class.Fnode** %Root, align 8
  %66 = load %class.Fnode***, %class.Fnode**** @hashtable, align 8
  %67 = load i32, i32* %thread.addr, align 4
  %idxprom71 = sext i32 %67 to i64
  %arrayidx72 = getelementptr inbounds %class.Fnode**, %class.Fnode*** %66, i64 %idxprom71
  %68 = load %class.Fnode**, %class.Fnode*** %arrayidx72, align 8
  %arrayidx73 = getelementptr inbounds %class.Fnode*, %class.Fnode** %68, i64 0
  store %class.Fnode* %65, %class.Fnode** %arrayidx73, align 8
  %69 = load i32**, i32*** @rightsib_backpatch_count, align 8
  %70 = load i32, i32* %thread.addr, align 4
  %idxprom74 = sext i32 %70 to i64
  %arrayidx75 = getelementptr inbounds i32*, i32** %69, i64 %idxprom74
  %71 = load i32*, i32** %arrayidx75, align 8
  %arrayidx76 = getelementptr inbounds i32, i32* %71, i64 0
  store i32 0, i32* %arrayidx76, align 4
  ret void
}

; Function Attrs: noinline uwtable
define void @_ZNK7FP_tree8powersetEPiiS0_iiP5FSouti(%class.FP_tree* %this, i32* %prefix, i32 %prefixlen, i32* %items, i32 %current, i32 %itlen, %class.FSout* %fout, i32 %thread) #1 align 2 {
entry:
  %this.addr = alloca %class.FP_tree*, align 8
  %prefix.addr = alloca i32*, align 8
  %prefixlen.addr = alloca i32, align 4
  %items.addr = alloca i32*, align 8
  %current.addr = alloca i32, align 4
  %itlen.addr = alloca i32, align 4
  %fout.addr = alloca %class.FSout*, align 8
  %thread.addr = alloca i32, align 4
  store %class.FP_tree* %this, %class.FP_tree** %this.addr, align 8
  store i32* %prefix, i32** %prefix.addr, align 8
  store i32 %prefixlen, i32* %prefixlen.addr, align 4
  store i32* %items, i32** %items.addr, align 8
  store i32 %current, i32* %current.addr, align 4
  store i32 %itlen, i32* %itlen.addr, align 4
  store %class.FSout* %fout, %class.FSout** %fout.addr, align 8
  store i32 %thread, i32* %thread.addr, align 4
  %this1 = load %class.FP_tree*, %class.FP_tree** %this.addr, align 8
  %0 = load i32, i32* %current.addr, align 4
  %1 = load i32, i32* %itlen.addr, align 4
  %cmp = icmp eq i32 %0, %1
  br i1 %cmp, label %if.then, label %if.else

if.then:                                          ; preds = %entry
  %2 = load i32, i32* %prefixlen.addr, align 4
  %cmp2 = icmp ne i32 %2, 0
  br i1 %cmp2, label %if.then3, label %if.end

if.then3:                                         ; preds = %if.then
  %3 = load %class.FSout*, %class.FSout** %fout.addr, align 8
  %4 = load %class.stack**, %class.stack*** @list, align 8
  %5 = load i32, i32* %thread.addr, align 4
  %idxprom = sext i32 %5 to i64
  %arrayidx = getelementptr inbounds %class.stack*, %class.stack** %4, i64 %idxprom
  %6 = load %class.stack*, %class.stack** %arrayidx, align 8
  %top = getelementptr inbounds %class.stack, %class.stack* %6, i32 0, i32 0
  %7 = load i32, i32* %top, align 8
  %8 = load %class.stack**, %class.stack*** @list, align 8
  %9 = load i32, i32* %thread.addr, align 4
  %idxprom4 = sext i32 %9 to i64
  %arrayidx5 = getelementptr inbounds %class.stack*, %class.stack** %8, i64 %idxprom4
  %10 = load %class.stack*, %class.stack** %arrayidx5, align 8
  %FS = getelementptr inbounds %class.stack, %class.stack* %10, i32 0, i32 1
  %11 = load i32*, i32** %FS, align 8
  call void @_ZN5FSout8printsetEiPi(%class.FSout* %3, i32 %7, i32* %11)
  %12 = load %class.FSout*, %class.FSout** %fout.addr, align 8
  %13 = load i32, i32* %prefixlen.addr, align 4
  %14 = load i32*, i32** %prefix.addr, align 8
  %count = getelementptr inbounds %class.FP_tree, %class.FP_tree* %this1, i32 0, i32 5
  %15 = load i32*, i32** %count, align 8
  %16 = load i32**, i32*** @global_temp_order_array, align 8
  %17 = load i32, i32* %thread.addr, align 4
  %idxprom6 = sext i32 %17 to i64
  %arrayidx7 = getelementptr inbounds i32*, i32** %16, i64 %idxprom6
  %18 = load i32*, i32** %arrayidx7, align 8
  %19 = load i32*, i32** %prefix.addr, align 8
  %20 = load i32, i32* %prefixlen.addr, align 4
  %sub = sub nsw i32 %20, 1
  %idxprom8 = sext i32 %sub to i64
  %arrayidx9 = getelementptr inbounds i32, i32* %19, i64 %idxprom8
  %21 = load i32, i32* %arrayidx9, align 4
  %idxprom10 = sext i32 %21 to i64
  %arrayidx11 = getelementptr inbounds i32, i32* %18, i64 %idxprom10
  %22 = load i32, i32* %arrayidx11, align 4
  %idxprom12 = sext i32 %22 to i64
  %arrayidx13 = getelementptr inbounds i32, i32* %15, i64 %idxprom12
  %23 = load i32, i32* %arrayidx13, align 4
  call void @_ZN5FSout8printSetEiPii(%class.FSout* %12, i32 %13, i32* %14, i32 %23)
  br label %if.end

if.end:                                           ; preds = %if.then3, %if.then
  br label %if.end20

if.else:                                          ; preds = %entry
  %24 = load i32, i32* %current.addr, align 4
  %inc = add nsw i32 %24, 1
  store i32 %inc, i32* %current.addr, align 4
  %25 = load i32*, i32** %prefix.addr, align 8
  %26 = load i32, i32* %prefixlen.addr, align 4
  %27 = load i32*, i32** %items.addr, align 8
  %28 = load i32, i32* %current.addr, align 4
  %29 = load i32, i32* %itlen.addr, align 4
  %30 = load %class.FSout*, %class.FSout** %fout.addr, align 8
  %31 = load i32, i32* %thread.addr, align 4
  call void @_ZNK7FP_tree8powersetEPiiS0_iiP5FSouti(%class.FP_tree* %this1, i32* %25, i32 %26, i32* %27, i32 %28, i32 %29, %class.FSout* %30, i32 %31)
  %32 = load i32, i32* %current.addr, align 4
  %dec = add nsw i32 %32, -1
  store i32 %dec, i32* %current.addr, align 4
  %33 = load i32*, i32** %items.addr, align 8
  %34 = load i32, i32* %current.addr, align 4
  %inc14 = add nsw i32 %34, 1
  store i32 %inc14, i32* %current.addr, align 4
  %idxprom15 = sext i32 %34 to i64
  %arrayidx16 = getelementptr inbounds i32, i32* %33, i64 %idxprom15
  %35 = load i32, i32* %arrayidx16, align 4
  %36 = load i32*, i32** %prefix.addr, align 8
  %37 = load i32, i32* %prefixlen.addr, align 4
  %inc17 = add nsw i32 %37, 1
  store i32 %inc17, i32* %prefixlen.addr, align 4
  %idxprom18 = sext i32 %37 to i64
  %arrayidx19 = getelementptr inbounds i32, i32* %36, i64 %idxprom18
  store i32 %35, i32* %arrayidx19, align 4
  %38 = load i32*, i32** %prefix.addr, align 8
  %39 = load i32, i32* %prefixlen.addr, align 4
  %40 = load i32*, i32** %items.addr, align 8
  %41 = load i32, i32* %current.addr, align 4
  %42 = load i32, i32* %itlen.addr, align 4
  %43 = load %class.FSout*, %class.FSout** %fout.addr, align 8
  %44 = load i32, i32* %thread.addr, align 4
  call void @_ZNK7FP_tree8powersetEPiiS0_iiP5FSouti(%class.FP_tree* %this1, i32* %38, i32 %39, i32* %40, i32 %41, i32 %42, %class.FSout* %43, i32 %44)
  br label %if.end20

if.end20:                                         ; preds = %if.else, %if.end
  ret void
}

declare void @_ZN5FSout8printsetEiPi(%class.FSout*, i32, i32*) #5

declare void @_ZN5FSout8printSetEiPii(%class.FSout*, i32, i32*, i32) #5

; Function Attrs: noinline uwtable
define void @_ZNK7FP_tree12generate_allEiiP5FSout(%class.FP_tree* %this, i32 %new_item_no, i32 %thread, %class.FSout* %fout) #1 align 2 {
entry:
  %this.addr = alloca %class.FP_tree*, align 8
  %new_item_no.addr = alloca i32, align 4
  %thread.addr = alloca i32, align 4
  %fout.addr = alloca %class.FSout*, align 8
  store %class.FP_tree* %this, %class.FP_tree** %this.addr, align 8
  store i32 %new_item_no, i32* %new_item_no.addr, align 4
  store i32 %thread, i32* %thread.addr, align 4
  store %class.FSout* %fout, %class.FSout** %fout.addr, align 8
  %this1 = load %class.FP_tree*, %class.FP_tree** %this.addr, align 8
  %0 = load i32**, i32*** @prefix, align 8
  %1 = load i32, i32* %thread.addr, align 4
  %idxprom = sext i32 %1 to i64
  %arrayidx = getelementptr inbounds i32*, i32** %0, i64 %idxprom
  %2 = load i32*, i32** %arrayidx, align 8
  %3 = load %class.stack**, %class.stack*** @list, align 8
  %4 = load i32, i32* %thread.addr, align 4
  %idxprom2 = sext i32 %4 to i64
  %arrayidx3 = getelementptr inbounds %class.stack*, %class.stack** %3, i64 %idxprom2
  %5 = load %class.stack*, %class.stack** %arrayidx3, align 8
  %FS = getelementptr inbounds %class.stack, %class.stack* %5, i32 0, i32 1
  %6 = load i32*, i32** %FS, align 8
  %7 = load %class.stack**, %class.stack*** @list, align 8
  %8 = load i32, i32* %thread.addr, align 4
  %idxprom4 = sext i32 %8 to i64
  %arrayidx5 = getelementptr inbounds %class.stack*, %class.stack** %7, i64 %idxprom4
  %9 = load %class.stack*, %class.stack** %arrayidx5, align 8
  %top = getelementptr inbounds %class.stack, %class.stack* %9, i32 0, i32 0
  %10 = load i32, i32* %top, align 8
  %11 = load %class.stack**, %class.stack*** @list, align 8
  %12 = load i32, i32* %thread.addr, align 4
  %idxprom6 = sext i32 %12 to i64
