; ModuleID = 'freqmine.tx.bc'
source_filename = "llvm-link"
target datalayout = "e-m:e-i64:64-f80:128-n8:16:32:64-S128"
target triple = "x86_64-unknown-linux-gnu"

%0 = type { i8*, x86_bnd }
%1 = type { i32*, x86_bnd }
%class.stack = type { i32, i32*, i32* }
%class.memory = type { i32, i64, i64, i32, i8**, i32, i8**, i32*, i32*, i8*, i32, i32 }
%"class.std::ios_base::Init" = type { i8 }
%"class.std::basic_ostream" = type { i32 (...)**, %"class.std::basic_ios" }
%"class.std::basic_ios" = type { %"class.std::ios_base", %"class.std::basic_ostream"*, i8, i8, %"class.std::basic_streambuf"*, %"class.std::ctype"*, %"class.std::num_put"*, %"class.std::num_put"* }
%"class.std::ios_base" = type { i32 (...)**, i64, i64, i32, i32, i32, %"struct.std::ios_base::_Callback_list"*, %"struct.std::ios_base::_Words", [8 x %"struct.std::ios_base::_Words"], i32, %"struct.std::ios_base::_Words"*, %"class.std::locale" }
%"struct.std::ios_base::_Callback_list" = type { %"struct.std::ios_base::_Callback_list"*, void (i32, %"class.std::ios_base"*, i32)*, i32, i32 }
%"struct.std::ios_base::_Words" = type { i8*, i64 }
%"class.std::locale" = type { %"class.std::locale::_Impl"* }
%"class.std::locale::_Impl" = type { i32, %"class.std::locale::facet"**, i64, %"class.std::locale::facet"**, i8** }
%"class.std::locale::facet" = type <{ i32 (...)**, i32, [4 x i8] }>
%"class.std::basic_streambuf" = type { i32 (...)**, i8*, i8*, i8*, i8*, i8*, i8*, %"class.std::locale" }
%"class.std::ctype" = type <{ %"class.std::locale::facet.base", [4 x i8], %struct.__locale_struct*, i8, [7 x i8], i32*, i32*, i16*, i8, [256 x i8], [256 x i8], i8, [6 x i8] }>
%"class.std::locale::facet.base" = type <{ i32 (...)**, i32 }>
%struct.__locale_struct = type { [13 x %struct.__locale_data*], i16*, i32*, i32*, [13 x i8*] }
%struct.__locale_data = type opaque
%"class.std::num_put" = type { %"class.std::locale::facet.base", [4 x i8] }
%class.Fnode = type { %class.Fnode*, %class.Fnode*, i32, i32 }
%class.MapFile = type { %class.MapFileNode*, %class.MapFileNode**, i32*, i32*, i32*, i32*, i8*, i32 }
%class.MapFileNode = type { i32*, i32, i32, i32, i32, i8*, %class.MapFileNode* }
%class.Data = type { i64, %struct._IO_FILE* }
%struct._IO_FILE = type { i32, i8*, i8*, i8*, i8*, i8*, i8*, i8*, i8*, i8*, i8*, i8*, %struct._IO_marker*, %struct._IO_FILE*, i32, i32, i64, i16, i8, [1 x i8], i8*, i64, i8*, i8*, i8*, i8*, i64, i32, [20 x i8] }
%struct._IO_marker = type { %struct._IO_marker*, %struct._IO_FILE*, i32 }
%class.FSout = type { %struct._IO_FILE* }
%class.FP_tree = type <{ i32, [4 x i8], i32*, i32*, %class.Fnode*, i32*, i32**, i32*, i32*, i32, i32, i8*, i32*, i32*, i8**, i32, [4 x i8] }>
%struct.cpu_set_t = type { [16 x i64] }
%struct.timeval = type { i64, i64 }
%struct.timezone = type { i32, i32 }

@ITlen = local_unnamed_addr global i32** null, align 8, !dbg !0
@bran = local_unnamed_addr global i32** null, align 8, !dbg !266
@prefix = local_unnamed_addr global i32** null, align 8, !dbg !268
@order_item = local_unnamed_addr global i32* null, align 8, !dbg !270
@item_order = local_unnamed_addr global i32* null, align 8, !dbg !272
@compact = local_unnamed_addr global i32** null, align 8, !dbg !274
@supp = local_unnamed_addr global i32** null, align 8, !dbg !276
@list = local_unnamed_addr global %class.stack** null, align 8, !dbg !278
@TRANSACTION_NO = local_unnamed_addr global i32 0, align 4, !dbg !297
@ITEM_NO = local_unnamed_addr global i32 100, align 4, !dbg !299
@THRESHOLD = local_unnamed_addr global i32 0, align 4, !dbg !301
@fp_buf = local_unnamed_addr global %class.memory** null, align 8, !dbg !303
@fp_node_sub_buf = local_unnamed_addr global %class.memory* null, align 8, !dbg !347
@fp_tree_buf = local_unnamed_addr global %class.memory** null, align 8, !dbg !349
@database_buf = local_unnamed_addr global %class.memory* null, align 8, !dbg !351
@new_data_num = local_unnamed_addr global i32** null, align 8, !dbg !353
@llvm.global_ctors = appending global [1 x { i32, void ()*, i8* }] [{ i32, void ()*, i8* } { i32 65535, void ()* @_GLOBAL__sub_I_fpmax.cpp, i8* null }]
@_ZStL8__ioinit = internal global %"class.std::ios_base::Init" zeroinitializer, align 1, !dbg !252
@__dso_handle = external global i8
@.str = private unnamed_addr constant [4 x i8] c"%d\0A\00", align 1
@str = private unnamed_addr constant [23 x i8] c"PARSEC Benchmark Suite\00"
@_ZSt4cout = external global %"class.std::basic_ostream", align 8
@.str.2 = private unnamed_addr constant [8 x i8] c"usage: \00", align 1
@.str.3 = private unnamed_addr constant [32 x i8] c" <infile> <MINSUP> [<outfile>]\0A\00", align 1
@_ZSt4cerr = external global %"class.std::basic_ostream", align 8
@.str.4 = private unnamed_addr constant [22 x i8] c" could not be opened!\00", align 1
@.str.5 = private unnamed_addr constant [68 x i8] c"the data preparation cost %f seconds, the FPgrowth cost %f seconds\0A\00", align 1
@.str.1 = private unnamed_addr constant [4 x i8] c"r+t\00", align 1
@.str.1.4 = private unnamed_addr constant [26 x i8] c"transaction number is %d\0A\00", align 1
@currentnodeiter = local_unnamed_addr global i32*** null, align 8, !dbg !1116
@nodestack = local_unnamed_addr global %class.Fnode*** null, align 8, !dbg !1133
@itemstack = local_unnamed_addr global i32** null, align 8, !dbg !1135
@origin = local_unnamed_addr global i32** null, align 8, !dbg !1137
@hashtable = local_unnamed_addr global %class.Fnode*** null, align 8, !dbg !1139
@hot_node_count = local_unnamed_addr global i32** null, align 8, !dbg !1141
@hot_node_depth = local_unnamed_addr global i32* null, align 8, !dbg !1143
@hot_node_index = local_unnamed_addr global i32* null, align 8, !dbg !1145
@fast_rightsib_table = local_unnamed_addr global %class.Fnode**** null, align 8, !dbg !1147
@rightsib_backpatch_stack = local_unnamed_addr global %class.Fnode**** null, align 8, !dbg !1149
@global_count_array = local_unnamed_addr global i32** null, align 8, !dbg !1151
@global_table_array = local_unnamed_addr global i32** null, align 8, !dbg !1153
@global_temp_order_array = local_unnamed_addr global i32** null, align 8, !dbg !1155
@global_order_array = local_unnamed_addr global i32** null, align 8, !dbg !1157
@rightsib_backpatch_count = local_unnamed_addr global i32** null, align 8, !dbg !1159
@sum_item_num = local_unnamed_addr global i32** null, align 8, !dbg !1161
@global_nodenum = local_unnamed_addr global i32** null, align 8, !dbg !1163
@lowerbound_array = local_unnamed_addr global [3 x i32] [i32 65536, i32 256, i32 0], align 4, !dbg !1165
@ntypearray = local_unnamed_addr global i32** null, align 8, !dbg !1170
@thread_finish_status = local_unnamed_addr global i32* null, align 8, !dbg !1172
@thread_begin_status = local_unnamed_addr global i32* null, align 8, !dbg !1174
@released_pos = local_unnamed_addr global i32 0, align 4, !dbg !1176
@first_MC_tree = local_unnamed_addr global i32* null, align 8, !dbg !1178
@first_MR_tree = local_unnamed_addr global i32* null, align 8, !dbg !1180
@first_MB_tree = local_unnamed_addr global i8** null, align 8, !dbg !1182
@mapfile = local_unnamed_addr global %class.MapFile* null, align 8, !dbg !1184
@thread_mapfile = local_unnamed_addr global %class.MapFile** null, align 8, !dbg !1186
@sumntype = global [65536 x i32] zeroinitializer, align 16, !dbg !1188
@ntypehashtable = local_unnamed_addr global [65536 x i32] zeroinitializer, align 16, !dbg !1193
@ntypeidarray = global [65536 x i32] zeroinitializer, align 16, !dbg !1195
@mergedworkbase = local_unnamed_addr global [65536 x i32] zeroinitializer, align 16, !dbg !1197
@mergedworkend = local_unnamed_addr global [65536 x i32] zeroinitializer, align 16, !dbg !1199
@mergedworknum = local_unnamed_addr global i32 0, align 4, !dbg !1201
@threadtranscontent = local_unnamed_addr global i16* null, align 8, !dbg !1203
@threadntypeoffsetiter = local_unnamed_addr global i32** null, align 8, !dbg !1205
@ntypeoffsetbase = local_unnamed_addr global i32* null, align 8, !dbg !1207
@ntypeoffsetend = local_unnamed_addr global i32* null, align 8, !dbg !1209
@numusefulntype = local_unnamed_addr global i32 0, align 4, !dbg !1211
@threadworkload = local_unnamed_addr global i32** null, align 8, !dbg !1213
@threadworkloadnum = local_unnamed_addr global i32* null, align 8, !dbg !1215
@str.15 = private unnamed_addr constant [44 x i8] c"INIT: not enough memory to run this program\00"
@str.4 = private unnamed_addr constant [24 x i8] c"The blocks are used up.\00"
@_ZL6power2 = internal unnamed_addr constant [29 x i32] [i32 1, i32 2, i32 4, i32 8, i32 16, i32 32, i32 64, i32 128, i32 256, i32 512, i32 1024, i32 2048, i32 4096, i32 8192, i32 16384, i32 32768, i32 65536, i32 131072, i32 262144, i32 524288, i32 1048576, i32 2097152, i32 4194304, i32 8388608, i32 16777216, i32 33554432, i32 67108864, i32 134217728, i32 268435456], align 16, !dbg !1313
@str.3 = private unnamed_addr constant [19 x i8] c"Not enough memory!\00"
@.str.26 = private unnamed_addr constant [3 x i8] c"wt\00", align 1
@.str.2.29 = private unnamed_addr constant [6 x i8] c"(%d)\0A\00", align 1
@.str.1.30 = private unnamed_addr constant [4 x i8] c"%d \00", align 1
@_ZZ5wtimePdE3sec = internal unnamed_addr global i32 -1, align 4, !dbg !1354
@llmpx_bnd_infinite = linkonce global [2 x i64] zeroinitializer, align 16
@llmpx_bnd_invalid = linkonce global [2 x i64] [i64 -1, i64 -1], align 16
@llmpx_key_anyvalid = linkonce global i64 0, align 8
@llmpx_key_anyinvalid = linkonce global i64 -1, align 8
@llmpx_bnd_ITlen = global [2 x i64] zeroinitializer, align 16
@llmpx_bnd_bran = global [2 x i64] zeroinitializer, align 16
@llmpx_bnd_prefix = global [2 x i64] zeroinitializer, align 16
@llmpx_bnd_order_item = global [2 x i64] zeroinitializer, align 16
@llmpx_bnd_item_order = global [2 x i64] zeroinitializer, align 16
@llmpx_bnd_compact = global [2 x i64] zeroinitializer, align 16
@llmpx_bnd_supp = global [2 x i64] zeroinitializer, align 16
@llmpx_bnd_list = global [2 x i64] zeroinitializer, align 16
@llmpx_bnd_TRANSACTION_NO = global [2 x i64] zeroinitializer, align 16
@llmpx_bnd_ITEM_NO = global [2 x i64] zeroinitializer, align 16
@llmpx_bnd_THRESHOLD = global [2 x i64] zeroinitializer, align 16
@llmpx_bnd_fp_buf = global [2 x i64] zeroinitializer, align 16
@llmpx_bnd_fp_node_sub_buf = global [2 x i64] zeroinitializer, align 16
@llmpx_bnd_fp_tree_buf = global [2 x i64] zeroinitializer, align 16
@llmpx_bnd_database_buf = global [2 x i64] zeroinitializer, align 16
@llmpx_bnd_new_data_num = global [2 x i64] zeroinitializer, align 16
@llmpx_bnd__ZStL8__ioinit = internal global [2 x i64] zeroinitializer, align 16
@llmpx_bnd_.str = private global [2 x i64] zeroinitializer, align 16
@llmpx_bnd_str = private global [2 x i64] zeroinitializer, align 16
@llmpx_bnd_.str.2 = private global [2 x i64] zeroinitializer, align 16
@llmpx_bnd_.str.3 = private global [2 x i64] zeroinitializer, align 16
@llmpx_bnd_.str.4 = private global [2 x i64] zeroinitializer, align 16
@llmpx_bnd_.str.5 = private global [2 x i64] zeroinitializer, align 16
@llmpx_bnd_.str.1 = private global [2 x i64] zeroinitializer, align 16
@llmpx_bnd_.str.1.4 = private global [2 x i64] zeroinitializer, align 16
@llmpx_bnd_currentnodeiter = global [2 x i64] zeroinitializer, align 16
@llmpx_bnd_nodestack = global [2 x i64] zeroinitializer, align 16
@llmpx_bnd_itemstack = global [2 x i64] zeroinitializer, align 16
@llmpx_bnd_origin = global [2 x i64] zeroinitializer, align 16
@llmpx_bnd_hashtable = global [2 x i64] zeroinitializer, align 16
@llmpx_bnd_hot_node_count = global [2 x i64] zeroinitializer, align 16
@llmpx_bnd_hot_node_depth = global [2 x i64] zeroinitializer, align 16
@llmpx_bnd_hot_node_index = global [2 x i64] zeroinitializer, align 16
@llmpx_bnd_fast_rightsib_table = global [2 x i64] zeroinitializer, align 16
@llmpx_bnd_rightsib_backpatch_stack = global [2 x i64] zeroinitializer, align 16
@llmpx_bnd_global_count_array = global [2 x i64] zeroinitializer, align 16
@llmpx_bnd_global_table_array = global [2 x i64] zeroinitializer, align 16
@llmpx_bnd_global_temp_order_array = global [2 x i64] zeroinitializer, align 16
@llmpx_bnd_global_order_array = global [2 x i64] zeroinitializer, align 16
@llmpx_bnd_rightsib_backpatch_count = global [2 x i64] zeroinitializer, align 16
@llmpx_bnd_sum_item_num = global [2 x i64] zeroinitializer, align 16
@llmpx_bnd_global_nodenum = global [2 x i64] zeroinitializer, align 16
@llmpx_bnd_lowerbound_array = global [2 x i64] zeroinitializer, align 16
@llmpx_bnd_ntypearray = global [2 x i64] zeroinitializer, align 16
@llmpx_bnd_thread_finish_status = global [2 x i64] zeroinitializer, align 16
@llmpx_bnd_thread_begin_status = global [2 x i64] zeroinitializer, align 16
@llmpx_bnd_released_pos = global [2 x i64] zeroinitializer, align 16
@llmpx_bnd_first_MC_tree = global [2 x i64] zeroinitializer, align 16
@llmpx_bnd_first_MR_tree = global [2 x i64] zeroinitializer, align 16
@llmpx_bnd_first_MB_tree = global [2 x i64] zeroinitializer, align 16
@llmpx_bnd_mapfile = global [2 x i64] zeroinitializer, align 16
@llmpx_bnd_thread_mapfile = global [2 x i64] zeroinitializer, align 16
@llmpx_bnd_sumntype = global [2 x i64] zeroinitializer, align 16
@llmpx_bnd_ntypehashtable = global [2 x i64] zeroinitializer, align 16
@llmpx_bnd_ntypeidarray = global [2 x i64] zeroinitializer, align 16
@llmpx_bnd_mergedworkbase = global [2 x i64] zeroinitializer, align 16
@llmpx_bnd_mergedworkend = global [2 x i64] zeroinitializer, align 16
@llmpx_bnd_mergedworknum = global [2 x i64] zeroinitializer, align 16
@llmpx_bnd_threadtranscontent = global [2 x i64] zeroinitializer, align 16
@llmpx_bnd_threadntypeoffsetiter = global [2 x i64] zeroinitializer, align 16
@llmpx_bnd_ntypeoffsetbase = global [2 x i64] zeroinitializer, align 16
@llmpx_bnd_ntypeoffsetend = global [2 x i64] zeroinitializer, align 16
@llmpx_bnd_numusefulntype = global [2 x i64] zeroinitializer, align 16
@llmpx_bnd_threadworkload = global [2 x i64] zeroinitializer, align 16
@llmpx_bnd_threadworkloadnum = global [2 x i64] zeroinitializer, align 16
@llmpx_bnd_str.15 = private global [2 x i64] zeroinitializer, align 16
@llmpx_bnd_str.4 = private global [2 x i64] zeroinitializer, align 16
@llmpx_bnd__ZL6power2 = internal global [2 x i64] zeroinitializer, align 16
@llmpx_bnd_str.3 = private global [2 x i64] zeroinitializer, align 16
@llmpx_bnd_.str.26 = private global [2 x i64] zeroinitializer, align 16
@llmpx_bnd_.str.2.29 = private global [2 x i64] zeroinitializer, align 16
@llmpx_bnd_.str.1.30 = private global [2 x i64] zeroinitializer, align 16
@llmpx_bnd__ZZ5wtimePdE3sec = internal global [2 x i64] zeroinitializer, align 16

@_ZN4DataC1EPc = alias void (%class.Data*, i8*), bitcast (void (%class.Data*, i8*, x86_bnd, x86_bnd)* @_ZN4DataC2EPc to void (%class.Data*, i8*)*)
@_ZN4DataD1Ev = alias void (%class.Data*), bitcast (void (%class.Data*, x86_bnd)* @_ZN4DataD2Ev to void (%class.Data*)*)
@_ZN5stackC1Ei = alias void (%class.stack*, i32), bitcast (void (%class.stack*, i32, x86_bnd)* @_ZN5stackC2Ei to void (%class.stack*, i32)*)
@_ZN5stackD1Ev = alias void (%class.stack*), bitcast (void (%class.stack*, x86_bnd)* @_ZN5stackD2Ev to void (%class.stack*)*)
@_ZN6memoryC1Ev = alias void (%class.memory*), bitcast (void (%class.memory*, x86_bnd)* @_ZN6memoryC2Ev to void (%class.memory*)*)
@_ZN6memoryC1Eilli = alias void (%class.memory*, i32, i64, i64, i32), bitcast (void (%class.memory*, i32, i64, i64, i32, x86_bnd)* @_ZN6memoryC2Eilli to void (%class.memory*, i32, i64, i64, i32)*)
@_ZN6memoryD1Ev = alias void (%class.memory*), bitcast (void (%class.memory*, x86_bnd)* @_ZN6memoryD2Ev to void (%class.memory*)*)
@_ZN5FSoutC1EPc = alias void (%class.FSout*, i8*), bitcast (void (%class.FSout*, i8*, x86_bnd, x86_bnd)* @_ZN5FSoutC2EPc to void (%class.FSout*, i8*)*)
@_ZN5FSoutD1Ev = alias void (%class.FSout*), bitcast (void (%class.FSout*, x86_bnd)* @_ZN5FSoutD2Ev to void (%class.FSout*)*)
@_ZN5FnodeC1Eii = alias void (%class.Fnode*, i32, i32), bitcast (void (%class.Fnode*, i32, i32, x86_bnd)* @_ZN5FnodeC2Eii to void (%class.Fnode*, i32, i32)*)
@_ZN5FnodeD1Ev = alias void (%class.Fnode*), bitcast (void (%class.Fnode*, x86_bnd)* @_ZN5FnodeD2Ev to void (%class.Fnode*)*)

; Function Attrs: uwtable
define internal void @_GLOBAL__sub_I_fpmax.cpp() #0 section ".text.startup" !dbg !1508 {
entry:
  tail call void @_ZNSt8ios_base4InitC1Ev(%"class.std::ios_base::Init"* nonnull @_ZStL8__ioinit), !dbg !1510
  %0 = getelementptr %"class.std::ios_base::Init", %"class.std::ios_base::Init"* @_ZStL8__ioinit, i64 0, i32 0
  %1 = tail call i32 @__cxa_atexit(void (i8*)* bitcast (void (%"class.std::ios_base::Init"*)* @_ZNSt8ios_base4InitD1Ev to void (i8*)*), i8* %0, i8* nonnull @__dso_handle) #2, !dbg !1513
  ret void
}

declare void @_ZNSt8ios_base4InitC1Ev(%"class.std::ios_base::Init"*) unnamed_addr #1

declare void @_ZNSt8ios_base4InitD1Ev(%"class.std::ios_base::Init"*) unnamed_addr #1

; Function Attrs: nounwind
declare i32 @__cxa_atexit(void (i8*)*, i8*, i8*) local_unnamed_addr #2

; Function Attrs: nounwind uwtable
define void @_Z8printLenv() local_unnamed_addr #3 !dbg !1515 {
entry:
  tail call void @llvm.dbg.value(metadata i32 1, i64 0, metadata !1519, metadata !1520), !dbg !1521
  tail call void @llvm.dbg.value(metadata i32 1, i64 0, metadata !1518, metadata !1520), !dbg !1522
  tail call void @llvm.dbg.value(metadata i32 1, i64 0, metadata !1518, metadata !1520), !dbg !1522
  %0 = load i32, i32* @ITEM_NO, align 4, !dbg !1523, !tbaa !1525
  %1 = load i32**, i32*** @ITlen, align 8
  %2 = load x86_bnd, x86_bnd* bitcast ([2 x i64]* @llmpx_bnd_infinite to x86_bnd*), !dbg !1529
  %3 = sext i32 %0 to i64, !dbg !1529
  br label %for.cond12, !dbg !1529

for.cond12:                                       ; preds = %land.rhs, %entry
  %indvars.iv48 = phi i64 [ %indvars.iv.next49, %land.rhs ], [ %3, %entry ]
  %indvars.iv.next49 = add nsw i64 %indvars.iv48, -1
  %cmp13 = icmp sgt i64 %indvars.iv48, 0, !dbg !1530
  br i1 %cmp13, label %land.rhs, label %for.cond21.preheader, !dbg !1533

land.rhs:                                         ; preds = %for.cond12
  %base. = bitcast i32** %1 to i8*, !dbg !1534
  call void @llvm.x86.bndclrr(x86_bnd %2, i8* %base.), !dbg !1534
  call void @llvm.x86.bndcurm(x86_bnd %2, i8* %base., i64 0, i8 1, i32 7), !dbg !1534
  %4 = load i32*, i32** %1, align 8, !dbg !1534, !tbaa !1536
  %castptr = bitcast i32** %1 to i8*, !dbg !1534
  %castptrval = bitcast i32* %4 to i8*, !dbg !1534
  %5 = call x86_bnd @llvm.x86.bndldx(i8* %castptr, i8* %castptrval, i32 0)
  %arrayidx16 = getelementptr inbounds i32, i32* %4, i64 %indvars.iv.next49, !dbg !1534
  %base.arrayidx16 = bitcast i32* %arrayidx16 to i8*, !dbg !1534
  call void @llvm.x86.bndclrr(x86_bnd %5, i8* %base.arrayidx16), !dbg !1534
  call void @llvm.x86.bndcurm(x86_bnd %5, i8* %base.arrayidx16, i64 0, i8 1, i32 3), !dbg !1534
  %6 = load i32, i32* %arrayidx16, align 4, !dbg !1534, !tbaa !1525
  %cmp17 = icmp eq i32 %6, 0, !dbg !1538
  br i1 %cmp17, label %for.cond12, label %for.cond21.preheader, !dbg !1539, !llvm.loop !1541

for.cond21.preheader:                             ; preds = %for.cond12, %land.rhs
  %7 = trunc i64 %indvars.iv48 to i32, !dbg !1533
  tail call void @llvm.dbg.value(metadata i32 0, i64 0, metadata !1518, metadata !1520), !dbg !1522
  %cmp2246 = icmp sgt i32 %7, 0, !dbg !1544
  br i1 %cmp2246, label %for.body23.preheader, label %for.end30, !dbg !1548

for.body23.preheader:                             ; preds = %for.cond21.preheader
  %wide.trip.count = and i64 %indvars.iv48, 4294967295
  %base.1 = bitcast i32** %1 to i8*, !dbg !1550
  call void @llvm.x86.bndclrr(x86_bnd %2, i8* %base.1), !dbg !1550
  call void @llvm.x86.bndcurm(x86_bnd %2, i8* %base.1, i64 0, i8 1, i32 7), !dbg !1550
  %8 = load i32*, i32** %1, align 8, !dbg !1550, !tbaa !1536
  %castptr2 = bitcast i32** %1 to i8*, !dbg !1550
  %castptrval3 = bitcast i32* %8 to i8*, !dbg !1550
  %9 = call x86_bnd @llvm.x86.bndldx(i8* %castptr2, i8* %castptrval3, i32 0)
  %base.4 = bitcast i32* %8 to i8*, !dbg !1550
  call void @llvm.x86.bndclrr(x86_bnd %9, i8* %base.4), !dbg !1550
  call void @llvm.x86.bndcurm(x86_bnd %9, i8* %base.4, i64 0, i8 1, i32 3), !dbg !1550
  %10 = load i32, i32* %8, align 4, !dbg !1550, !tbaa !1525
  %11 = getelementptr [4 x i8], [4 x i8]* @.str, i64 0, i64 0
  %call2751 = tail call i32 (i8*, ...) @printf(i8* %11, i32 %10), !dbg !1551
  %exitcond52 = icmp eq i64 %wide.trip.count, 1, !dbg !1544
  br i1 %exitcond52, label %for.end30, label %for.body23.for.body23_crit_edge.preheader, !dbg !1548, !llvm.loop !1552

for.body23.for.body23_crit_edge.preheader:        ; preds = %for.body23.preheader
  br label %for.body23.for.body23_crit_edge

for.body23.for.body23_crit_edge:                  ; preds = %for.body23.for.body23_crit_edge.preheader, %for.body23.for.body23_crit_edge
  %indvars.iv.next53 = phi i64 [ %indvars.iv.next, %for.body23.for.body23_crit_edge ], [ 1, %for.body23.for.body23_crit_edge.preheader ]
  %.pre = load i32**, i32*** @ITlen, align 8, !tbaa !1536
  %12 = load x86_bnd, x86_bnd* bitcast ([2 x i64]* @llmpx_bnd_infinite to x86_bnd*), !dbg !1550
  %base..pre = bitcast i32** %.pre to i8*, !dbg !1550
  call void @llvm.x86.bndclrr(x86_bnd %12, i8* %base..pre), !dbg !1550
  call void @llvm.x86.bndcurm(x86_bnd %12, i8* %base..pre, i64 0, i8 1, i32 7), !dbg !1550
  %13 = load i32*, i32** %.pre, align 8, !dbg !1550, !tbaa !1536
  %castptr..pre = bitcast i32** %.pre to i8*, !dbg !1550
  %castptrval5 = bitcast i32* %13 to i8*, !dbg !1550
  %14 = call x86_bnd @llvm.x86.bndldx(i8* %castptr..pre, i8* %castptrval5, i32 0)
  %arrayidx26 = getelementptr inbounds i32, i32* %13, i64 %indvars.iv.next53, !dbg !1550
  %base.arrayidx26 = bitcast i32* %arrayidx26 to i8*, !dbg !1550
  call void @llvm.x86.bndclrr(x86_bnd %14, i8* %base.arrayidx26), !dbg !1550
  call void @llvm.x86.bndcurm(x86_bnd %14, i8* %base.arrayidx26, i64 0, i8 1, i32 3), !dbg !1550
  %15 = load i32, i32* %arrayidx26, align 4, !dbg !1550, !tbaa !1525
  %16 = getelementptr [4 x i8], [4 x i8]* @.str, i64 0, i64 0
  %call27 = tail call i32 (i8*, ...) @printf(i8* %16, i32 %15), !dbg !1551
  %indvars.iv.next = add nuw nsw i64 %indvars.iv.next53, 1, !dbg !1555
  %exitcond = icmp eq i64 %indvars.iv.next, %wide.trip.count, !dbg !1544
  br i1 %exitcond, label %for.end30.loopexit, label %for.body23.for.body23_crit_edge, !dbg !1548, !llvm.loop !1552

for.end30.loopexit:                               ; preds = %for.body23.for.body23_crit_edge
  br label %for.end30, !dbg !1557

for.end30:                                        ; preds = %for.end30.loopexit, %for.body23.preheader, %for.cond21.preheader
  ret void, !dbg !1557
}

; Function Attrs: nounwind readnone
declare void @llvm.dbg.value(metadata, i64, metadata, metadata) #4

; Function Attrs: nounwind
declare i32 @printf(i8* nocapture readonly, ...) local_unnamed_addr #5

; Function Attrs: norecurse uwtable
define i32 @main(i32 %argc, i8** nocapture readonly %argv) local_unnamed_addr #6 personality i8* bitcast (i32 (...)* @__gxx_personality_v0 to i8*) !dbg !1558 {
entry:
  %inf_bnd = load x86_bnd, x86_bnd* bitcast ([2 x i64]* @llmpx_bnd_infinite to x86_bnd*)
  call void @llmpx_ctor()
  %tstart = alloca double, align 8
  %tstart_bitcast = bitcast double* %tstart to i8*
  %tstart.alc_bnd = call x86_bnd @llvm.x86.bndmk(i8* %tstart_bitcast, i64 7)
  %tdatap = alloca double, align 8
  %tdatap_bitcast = bitcast double* %tdatap to i8*
  %tdatap.alc_bnd = call x86_bnd @llvm.x86.bndmk(i8* %tdatap_bitcast, i64 7)
  %tend = alloca double, align 8
  %tend_bitcast = bitcast double* %tend to i8*, !dbg !1572
  %tend.alc_bnd = call x86_bnd @llvm.x86.bndmk(i8* %tend_bitcast, i64 7)
  tail call void @llvm.dbg.value(metadata i32 %argc, i64 0, metadata !1562, metadata !1520), !dbg !1572
  tail call void @llvm.dbg.value(metadata i8** %argv, i64 0, metadata !1563, metadata !1520), !dbg !1573
  %0 = bitcast double* %tstart to i8*, !dbg !1574
  call void @llvm.lifetime.start(i64 8, i8* nonnull %0) #2, !dbg !1574
  %1 = bitcast double* %tdatap to i8*, !dbg !1574
  call void @llvm.lifetime.start(i64 8, i8* nonnull %1) #2, !dbg !1574
  %2 = bitcast double* %tend to i8*, !dbg !1574
  call void @llvm.lifetime.start(i64 8, i8* nonnull %2) #2, !dbg !1574
  tail call void @llvm.dbg.value(metadata i32 1, i64 0, metadata !1567, metadata !1520), !dbg !1575
  %3 = getelementptr [23 x i8], [23 x i8]* @str, i64 0, i64 0
  %puts = tail call i32 @puts(i8* %3), !dbg !1576
  %call2 = tail call i32 @fflush(%struct._IO_FILE* null), !dbg !1577
  %cmp = icmp slt i32 %argc, 3, !dbg !1578
  br i1 %cmp, label %if.then, label %if.end, !dbg !1580

if.then:                                          ; preds = %entry
  %4 = getelementptr [8 x i8], [8 x i8]* @.str.2, i64 0, i64 0
  %call3 = tail call dereferenceable(272) %"class.std::basic_ostream"* @_ZStlsISt11char_traitsIcEERSt13basic_ostreamIcT_ES5_PKc(%"class.std::basic_ostream"* nonnull dereferenceable(272) @_ZSt4cout, i8* %4), !dbg !1581
  %5 = load i8*, i8** %argv, align 8, !dbg !1583, !tbaa !1536
  %castptr.argv = bitcast i8** %argv to i8*, !dbg !1584
  %call4 = tail call dereferenceable(272) %"class.std::basic_ostream"* @_ZStlsISt11char_traitsIcEERSt13basic_ostreamIcT_ES5_PKc(%"class.std::basic_ostream"* nonnull dereferenceable(272) %call3, i8* %5), !dbg !1584
  %6 = getelementptr [32 x i8], [32 x i8]* @.str.3, i64 0, i64 0
  %call5 = tail call dereferenceable(272) %"class.std::basic_ostream"* @_ZStlsISt11char_traitsIcEERSt13basic_ostreamIcT_ES5_PKc(%"class.std::basic_ostream"* nonnull dereferenceable(272) %call4, i8* %6), !dbg !1586
  tail call void @exit(i32 1) #14, !dbg !1588
  br label %UnifiedUnreachableBlock

if.end:                                           ; preds = %entry
  %arrayidx6 = getelementptr inbounds i8*, i8** %argv, i64 2, !dbg !1589
  %7 = load i8*, i8** %arrayidx6, align 8, !dbg !1589, !tbaa !1536
  %castptr.arrayidx6 = bitcast i8** %arrayidx6 to i8*, !dbg !1590
  tail call void @llvm.dbg.value(metadata i8* %7, i64 0, metadata !392, metadata !1520) #2, !dbg !1590
  %call.i = tail call i64 @strtol(i8* nocapture nonnull %7, i8** null, i32 10) #2, !dbg !1592
  %conv.i = trunc i64 %call.i to i32, !dbg !1592
  store i32 %conv.i, i32* @THRESHOLD, align 4, !dbg !1593, !tbaa !1525
  %call8 = tail call i8* @_Znwm(i64 16) #15, !dbg !1594
  %8 = bitcast i8* %call8 to %class.Data*, !dbg !1594
  %arrayidx9 = getelementptr inbounds i8*, i8** %argv, i64 1, !dbg !1595
  %9 = load i8*, i8** %arrayidx9, align 8, !dbg !1595, !tbaa !1536
  %castptr.arrayidx9 = bitcast i8** %arrayidx9 to i8*, !dbg !1596
  %10 = call x86_bnd @llvm.x86.bndldx(i8* %castptr.arrayidx9, i8* %9, i32 0)
  invoke void @_ZN4DataC2EPc(%class.Data* nonnull %8, i8* %9, x86_bnd %inf_bnd, x86_bnd %10)
          to label %invoke.cont unwind label %lpad, !dbg !1596

invoke.cont:                                      ; preds = %if.end
  tail call void @llvm.dbg.value(metadata %class.Data* %8, i64 0, metadata !1570, metadata !1520), !dbg !1597
  %11 = call i32 @_ZN4Data6isOpenEv(%class.Data* nonnull %8, x86_bnd %inf_bnd), !dbg !1598
  %tobool = icmp eq i32 %11, 0, !dbg !1600
  br i1 %tobool, label %if.then11, label %if.end16, !dbg !1601

if.then11:                                        ; preds = %invoke.cont
  %12 = load i8*, i8** %arrayidx9, align 8, !dbg !1602, !tbaa !1536
  %castptr.arrayidx94 = bitcast i8** %arrayidx9 to i8*, !dbg !1604
  %call13 = tail call dereferenceable(272) %"class.std::basic_ostream"* @_ZStlsISt11char_traitsIcEERSt13basic_ostreamIcT_ES5_PKc(%"class.std::basic_ostream"* nonnull dereferenceable(272) @_ZSt4cerr, i8* %12), !dbg !1604
  %13 = getelementptr [22 x i8], [22 x i8]* @.str.4, i64 0, i64 0
  %call14 = tail call dereferenceable(272) %"class.std::basic_ostream"* @_ZStlsISt11char_traitsIcEERSt13basic_ostreamIcT_ES5_PKc(%"class.std::basic_ostream"* nonnull dereferenceable(272) %call13, i8* %13), !dbg !1605
  tail call void @llvm.dbg.value(metadata %"class.std::basic_ostream"* %call14, i64 0, metadata !1607, metadata !1520), !dbg !1624
  tail call void @llvm.dbg.value(metadata %"class.std::basic_ostream"* (%"class.std::basic_ostream"*)* @_ZSt4endlIcSt11char_traitsIcEERSt13basic_ostreamIT_T0_ES6_, i64 0, metadata !1622, metadata !1520), !dbg !1627
  %call.i128 = tail call dereferenceable(272) %"class.std::basic_ostream"* @_ZSt4endlIcSt11char_traitsIcEERSt13basic_ostreamIT_T0_ES6_(%"class.std::basic_ostream"* nonnull dereferenceable(272) %call14), !dbg !1628
  tail call void @exit(i32 2) #14, !dbg !1629
  br label %UnifiedUnreachableBlock

lpad:                                             ; preds = %if.end
  %14 = landingpad { i8*, i32 }
          cleanup, !dbg !1630
  %15 = extractvalue { i8*, i32 } %14, 0, !dbg !1630
  %16 = extractvalue { i8*, i32 } %14, 1, !dbg !1630
  tail call void @_ZdlPv(i8* nonnull %call8) #16, !dbg !1631
  br label %ehcleanup81, !dbg !1631

if.end16:                                         ; preds = %invoke.cont
  tail call void @llvm.dbg.value(metadata double* %tstart, i64 0, metadata !1564, metadata !1633), !dbg !1634
  call void @_Z5wtimePd(double* nonnull %tstart, x86_bnd %tstart.alc_bnd), !dbg !1635
  %call17 = call i8* @_Znam(i64 8) #15, !dbg !1636
  store i8* %call17, i8** bitcast (%class.memory*** @fp_buf to i8**), align 8, !dbg !1637, !tbaa !1536
  %call18 = call i8* @_Znam(i64 8) #15, !dbg !1638
  store i8* %call18, i8** bitcast (%class.memory*** @fp_tree_buf to i8**), align 8, !dbg !1639, !tbaa !1536
  call void @llvm.dbg.value(metadata i32 0, i64 0, metadata !1568, metadata !1520), !dbg !1640
  call void @llvm.dbg.value(metadata i32 0, i64 0, metadata !1568, metadata !1520), !dbg !1640
  %call20144 = call i8* @_Znwm(i64 88) #15, !dbg !1641
  %17 = bitcast i8* %call20144 to %class.memory*
  invoke void @_ZN6memoryC2Eilli(%class.memory* nonnull %17, i32 60, i64 10485760, i64 20971520, i32 2, x86_bnd %inf_bnd)
          to label %invoke.cont22 unwind label %lpad21, !dbg !1645

invoke.cont22:                                    ; preds = %if.end16
  %18 = load i8**, i8*** bitcast (%class.memory*** @fp_buf to i8***), align 8, !dbg !1646, !tbaa !1536
  %castptrval5 = bitcast i8** %18 to i8*, !dbg !1648
  %19 = call x86_bnd @llvm.x86.bndldx(i8* bitcast (%class.memory*** @fp_buf to i8*), i8* %castptrval5, i32 0)
  %base.6 = bitcast i8** %18 to i8*, !dbg !1648
  call void @llvm.x86.bndclrr(x86_bnd %19, i8* %base.6), !dbg !1648
  call void @llvm.x86.bndcurm(x86_bnd %19, i8* %base.6, i64 0, i8 1, i32 7), !dbg !1648
  store i8* %call20144, i8** %18, align 8, !dbg !1648, !tbaa !1536
  %20 = bitcast i8** %18 to i8*, !dbg !1649
  %call24 = call i8* @_Znwm(i64 88) #15, !dbg !1649
  %21 = bitcast i8* %call24 to %class.memory*, !dbg !1649
  invoke void @_ZN6memoryC2Eilli(%class.memory* nonnull %21, i32 80, i64 10485760, i64 20971520, i32 2, x86_bnd %inf_bnd)
          to label %invoke.cont26 unwind label %lpad25, !dbg !1650

invoke.cont26:                                    ; preds = %invoke.cont22
  %22 = load i8**, i8*** bitcast (%class.memory*** @fp_tree_buf to i8***), align 8, !dbg !1651, !tbaa !1536
  %castptrval7 = bitcast i8** %22 to i8*, !dbg !1652
  %23 = call x86_bnd @llvm.x86.bndldx(i8* bitcast (%class.memory*** @fp_tree_buf to i8*), i8* %castptrval7, i32 0)
  %base.8 = bitcast i8** %22 to i8*, !dbg !1652
  call void @llvm.x86.bndclrr(x86_bnd %23, i8* %base.8), !dbg !1652
  call void @llvm.x86.bndcurm(x86_bnd %23, i8* %base.8, i64 0, i8 1, i32 7), !dbg !1652
  store i8* %call24, i8** %22, align 8, !dbg !1652, !tbaa !1536
  %24 = bitcast i8** %22 to i8*, !dbg !1641
  %call20 = call i8* @_Znwm(i64 88) #15, !dbg !1641
  %25 = bitcast i8* %call20 to %class.memory*
  invoke void @_ZN6memoryC2Eilli(%class.memory* nonnull %25, i32 60, i64 4194304, i64 4194304, i32 2, x86_bnd %inf_bnd)
          to label %invoke.cont31 unwind label %lpad30, !dbg !1653

lpad21:                                           ; preds = %if.end16
  %26 = landingpad { i8*, i32 }
          cleanup, !dbg !1654
  %27 = extractvalue { i8*, i32 } %26, 0, !dbg !1654
  %28 = extractvalue { i8*, i32 } %26, 1, !dbg !1654
  call void @_ZdlPv(i8* nonnull %call20144) #16, !dbg !1655
  br label %ehcleanup81, !dbg !1655

lpad25:                                           ; preds = %invoke.cont22
  %29 = landingpad { i8*, i32 }
          cleanup, !dbg !1657
  %30 = extractvalue { i8*, i32 } %29, 0, !dbg !1657
  %31 = extractvalue { i8*, i32 } %29, 1, !dbg !1657
  call void @_ZdlPv(i8* nonnull %call24) #16, !dbg !1658
  br label %ehcleanup81, !dbg !1658

invoke.cont31:                                    ; preds = %invoke.cont26
  store i8* %call20, i8** bitcast (%class.memory** @database_buf to i8**), align 8, !dbg !1659, !tbaa !1536
  %32 = load %class.memory**, %class.memory*** @fp_buf, align 8, !dbg !1661, !tbaa !1536
  %33 = load x86_bnd, x86_bnd* bitcast ([2 x i64]* @llmpx_bnd_infinite to x86_bnd*), !dbg !1661
  %base.9 = bitcast %class.memory** %32 to i8*, !dbg !1661
  call void @llvm.x86.bndclrr(x86_bnd %33, i8* %base.9), !dbg !1661
  call void @llvm.x86.bndcurm(x86_bnd %33, i8* %base.9, i64 0, i8 1, i32 7), !dbg !1661
  %34 = load %class.memory*, %class.memory** %32, align 8, !dbg !1661, !tbaa !1536
  %castptr10 = bitcast %class.memory** %32 to i8*, !dbg !1662
  %castptrval11 = bitcast %class.memory* %34 to i8*, !dbg !1662
  %35 = call x86_bnd @llvm.x86.bndldx(i8* %castptr10, i8* %castptrval11, i32 0)
  %36 = call %0 @_ZN6memory6newbufEjj(%class.memory* %34, i32 1, i32 112, x86_bnd %35), !dbg !1662
  %37 = extractvalue %0 %36, 0
  %38 = extractvalue %0 %36, 1
  %39 = bitcast i8* %37 to %class.FP_tree*, !dbg !1663
  call void @llvm.dbg.value(metadata %class.FP_tree* %39, i64 0, metadata !1569, metadata !1520), !dbg !1664
  call void @_ZN7FP_tree4initEiii(%class.FP_tree* %39, i32 -1, i32 0, i32 0, x86_bnd %38), !dbg !1665
  call void @_ZN7FP_tree8scan1_DBEP4Data(%class.FP_tree* %39, %class.Data* nonnull %8, x86_bnd %38, x86_bnd %inf_bnd), !dbg !1666
  call void @llvm.dbg.value(metadata double* %tdatap, i64 0, metadata !1565, metadata !1633), !dbg !1667
  call void @_Z5wtimePd(double* nonnull %tdatap, x86_bnd %tdatap.alc_bnd), !dbg !1668
  call void @_ZN7FP_tree8scan2_DBEi(%class.FP_tree* %39, i32 1, x86_bnd %38), !dbg !1669
  call void @llvm.dbg.value(metadata %class.Data* %8, i64 0, metadata !1670, metadata !1520), !dbg !1673
  %in.i = getelementptr inbounds i8, i8* %call8, i64 8, !dbg !1675
  %40 = bitcast i8* %in.i to %struct._IO_FILE**, !dbg !1675
  %41 = load %struct._IO_FILE*, %struct._IO_FILE** %40, align 8, !dbg !1675, !tbaa !1677
  %castptr12 = bitcast %struct._IO_FILE** %40 to i8*, !dbg !1675
  %castptrval13 = bitcast %struct._IO_FILE* %41 to i8*, !dbg !1675
  %tobool.i = icmp eq %struct._IO_FILE* %41, null, !dbg !1675
  br i1 %tobool.i, label %_ZN4Data5closeEv.exit, label %if.then.i, !dbg !1680

if.then.i:                                        ; preds = %invoke.cont31
  %call.i129 = call i32 @fclose(%struct._IO_FILE* nonnull %41), !dbg !1681
  br label %_ZN4Data5closeEv.exit, !dbg !1681

_ZN4Data5closeEv.exit:                            ; preds = %invoke.cont31, %if.then.i
  %itemno = bitcast i8* %37 to i32*, !dbg !1683
  %base.itemno = bitcast i32* %itemno to i8*, !dbg !1683
  call void @llvm.x86.bndclrr(x86_bnd %38, i8* %base.itemno), !dbg !1683
  call void @llvm.x86.bndcurm(x86_bnd %38, i8* %base.itemno, i64 0, i8 1, i32 3), !dbg !1683
  %42 = load i32, i32* %itemno, align 8, !dbg !1683, !tbaa !1685
  %cmp34 = icmp eq i32 %42, 0, !dbg !1687
  br i1 %cmp34, label %cleanup, label %if.end36, !dbg !1688

lpad30:                                           ; preds = %invoke.cont26
  %43 = landingpad { i8*, i32 }
          cleanup, !dbg !1689
  %44 = extractvalue { i8*, i32 } %43, 0, !dbg !1689
  %45 = extractvalue { i8*, i32 } %43, 1, !dbg !1689
  call void @_ZdlPv(i8* nonnull %call20) #16, !dbg !1691
  br label %ehcleanup81, !dbg !1691

if.end36:                                         ; preds = %_ZN4Data5closeEv.exit
  %cmp37 = icmp eq i32 %argc, 4, !dbg !1692
  br i1 %cmp37, label %if.then38, label %if.end43, !dbg !1694

if.then38:                                        ; preds = %if.end36
  %call39 = call i8* @_Znwm(i64 8) #15, !dbg !1695
  %46 = bitcast i8* %call39 to %class.FSout*, !dbg !1695
  %arrayidx40 = getelementptr inbounds i8*, i8** %argv, i64 3, !dbg !1697
  %47 = load i8*, i8** %arrayidx40, align 8, !dbg !1697, !tbaa !1536
  %castptr.arrayidx40 = bitcast i8** %arrayidx40 to i8*, !dbg !1698
  %48 = call x86_bnd @llvm.x86.bndldx(i8* %castptr.arrayidx40, i8* %47, i32 0)
  invoke void @_ZN5FSoutC2EPc(%class.FSout* nonnull %46, i8* %47, x86_bnd %inf_bnd, x86_bnd %48)
          to label %invoke.cont42 unwind label %lpad41, !dbg !1698

invoke.cont42:                                    ; preds = %if.then38
  call void @llvm.dbg.value(metadata %class.FSout* %46, i64 0, metadata !1571, metadata !1520), !dbg !1699
  %49 = load i32, i32* @TRANSACTION_NO, align 4, !dbg !1700, !tbaa !1525
  call void @_ZN5FSout8printSetEiPii(%class.FSout* nonnull %46, i32 0, i32* null, i32 %49, x86_bnd %inf_bnd, x86_bnd %inf_bnd), !dbg !1701
  br label %if.end43, !dbg !1702

lpad41:                                           ; preds = %if.then38
  %50 = landingpad { i8*, i32 }
          cleanup, !dbg !1703
  %51 = extractvalue { i8*, i32 } %50, 0, !dbg !1703
  %52 = extractvalue { i8*, i32 } %50, 1, !dbg !1703
  call void @_ZdlPv(i8* nonnull %call39) #16, !dbg !1705
  br label %ehcleanup81, !dbg !1705

if.end43:                                         ; preds = %if.end36, %invoke.cont42
  %fout.0 = phi %class.FSout* [ %46, %invoke.cont42 ], [ null, %if.end36 ]
  %bnd_phi.fout.0 = phi x86_bnd [ %inf_bnd, %invoke.cont42 ], [ %inf_bnd, %if.end36 ]
  call void @llvm.dbg.value(metadata %class.FSout* %fout.0, i64 0, metadata !1571, metadata !1520), !dbg !1699
  %53 = call i32 @_ZN7FP_tree15FP_growth_firstEP5FSout(%class.FP_tree* nonnull %39, %class.FSout* %fout.0, x86_bnd %38, x86_bnd %bnd_phi.fout.0), !dbg !1707
  call void @llvm.dbg.value(metadata i32 1, i64 0, metadata !1519, metadata !1520) #2, !dbg !1708
  call void @llvm.dbg.value(metadata i32 1, i64 0, metadata !1518, metadata !1520) #2, !dbg !1710
  call void @llvm.dbg.value(metadata i32 1, i64 0, metadata !1518, metadata !1520) #2, !dbg !1710
  %54 = load i32, i32* @ITEM_NO, align 4, !dbg !1711, !tbaa !1525
  %55 = load i32**, i32*** @ITlen, align 8
  %56 = load x86_bnd, x86_bnd* bitcast ([2 x i64]* @llmpx_bnd_infinite to x86_bnd*), !dbg !1712
  %57 = sext i32 %54 to i64, !dbg !1712
  br label %for.cond12.i, !dbg !1712

for.cond12.i:                                     ; preds = %land.rhs.i, %if.end43
  %indvars.iv48.i = phi i64 [ %indvars.iv.next49.i, %land.rhs.i ], [ %57, %if.end43 ]
  %indvars.iv.next49.i = add nsw i64 %indvars.iv48.i, -1
  %cmp13.i = icmp sgt i64 %indvars.iv48.i, 0, !dbg !1713
  br i1 %cmp13.i, label %land.rhs.i, label %for.cond21.preheader.i, !dbg !1714

land.rhs.i:                                       ; preds = %for.cond12.i
  %base.14 = bitcast i32** %55 to i8*, !dbg !1715
  call void @llvm.x86.bndclrr(x86_bnd %56, i8* %base.14), !dbg !1715
  call void @llvm.x86.bndcurm(x86_bnd %56, i8* %base.14, i64 0, i8 1, i32 7), !dbg !1715
  %58 = load i32*, i32** %55, align 8, !dbg !1715, !tbaa !1536
  %castptr15 = bitcast i32** %55 to i8*, !dbg !1715
  %castptrval16 = bitcast i32* %58 to i8*, !dbg !1715
  %59 = call x86_bnd @llvm.x86.bndldx(i8* %castptr15, i8* %castptrval16, i32 0)
  %arrayidx16.i = getelementptr inbounds i32, i32* %58, i64 %indvars.iv.next49.i, !dbg !1715
  %base.arrayidx16.i = bitcast i32* %arrayidx16.i to i8*, !dbg !1715
  call void @llvm.x86.bndclrr(x86_bnd %59, i8* %base.arrayidx16.i), !dbg !1715
  call void @llvm.x86.bndcurm(x86_bnd %59, i8* %base.arrayidx16.i, i64 0, i8 1, i32 3), !dbg !1715
  %60 = load i32, i32* %arrayidx16.i, align 4, !dbg !1715, !tbaa !1525
  %cmp17.i = icmp eq i32 %60, 0, !dbg !1716
  br i1 %cmp17.i, label %for.cond12.i, label %for.cond21.preheader.i, !dbg !1717, !llvm.loop !1541

for.cond21.preheader.i:                           ; preds = %land.rhs.i, %for.cond12.i
  %61 = trunc i64 %indvars.iv48.i to i32, !dbg !1714
  call void @llvm.dbg.value(metadata i32 0, i64 0, metadata !1518, metadata !1520) #2, !dbg !1710
  %cmp2246.i = icmp sgt i32 %61, 0, !dbg !1718
  br i1 %cmp2246.i, label %for.body23.preheader.i, label %_Z8printLenv.exit, !dbg !1719

for.body23.preheader.i:                           ; preds = %for.cond21.preheader.i
  %wide.trip.count.i = and i64 %indvars.iv48.i, 4294967295
  %base.17 = bitcast i32** %55 to i8*, !dbg !1720
  call void @llvm.x86.bndclrr(x86_bnd %56, i8* %base.17), !dbg !1720
  call void @llvm.x86.bndcurm(x86_bnd %56, i8* %base.17, i64 0, i8 1, i32 7), !dbg !1720
  %62 = load i32*, i32** %55, align 8, !dbg !1720, !tbaa !1536
  %castptr18 = bitcast i32** %55 to i8*, !dbg !1720
  %castptrval19 = bitcast i32* %62 to i8*, !dbg !1720
  %63 = call x86_bnd @llvm.x86.bndldx(i8* %castptr18, i8* %castptrval19, i32 0)
  %base.20 = bitcast i32* %62 to i8*, !dbg !1720
  call void @llvm.x86.bndclrr(x86_bnd %63, i8* %base.20), !dbg !1720
  call void @llvm.x86.bndcurm(x86_bnd %63, i8* %base.20, i64 0, i8 1, i32 3), !dbg !1720
  %64 = load i32, i32* %62, align 4, !dbg !1720, !tbaa !1525
  %65 = getelementptr [4 x i8], [4 x i8]* @.str, i64 0, i64 0
  %call27.i141 = call i32 (i8*, ...) @printf(i8* %65, i32 %64) #2, !dbg !1721
  %exitcond.i142 = icmp eq i64 %wide.trip.count.i, 1, !dbg !1718
  br i1 %exitcond.i142, label %_Z8printLenv.exit, label %for.body23.for.body23_crit_edge.i.preheader, !dbg !1719, !llvm.loop !1552

for.body23.for.body23_crit_edge.i.preheader:      ; preds = %for.body23.preheader.i
  br label %for.body23.for.body23_crit_edge.i

for.body23.for.body23_crit_edge.i:                ; preds = %for.body23.for.body23_crit_edge.i.preheader, %for.body23.for.body23_crit_edge.i
  %indvars.iv.next.i143 = phi i64 [ %indvars.iv.next.i, %for.body23.for.body23_crit_edge.i ], [ 1, %for.body23.for.body23_crit_edge.i.preheader ]
  %.pre.i = load i32**, i32*** @ITlen, align 8, !tbaa !1536
  %66 = load x86_bnd, x86_bnd* bitcast ([2 x i64]* @llmpx_bnd_infinite to x86_bnd*), !dbg !1720
  %base..pre.i = bitcast i32** %.pre.i to i8*, !dbg !1720
  call void @llvm.x86.bndclrr(x86_bnd %66, i8* %base..pre.i), !dbg !1720
  call void @llvm.x86.bndcurm(x86_bnd %66, i8* %base..pre.i, i64 0, i8 1, i32 7), !dbg !1720
  %67 = load i32*, i32** %.pre.i, align 8, !dbg !1720, !tbaa !1536
  %castptr..pre.i = bitcast i32** %.pre.i to i8*, !dbg !1720
  %castptrval21 = bitcast i32* %67 to i8*, !dbg !1720
  %68 = call x86_bnd @llvm.x86.bndldx(i8* %castptr..pre.i, i8* %castptrval21, i32 0)
  %arrayidx26.i = getelementptr inbounds i32, i32* %67, i64 %indvars.iv.next.i143, !dbg !1720
  %base.arrayidx26.i = bitcast i32* %arrayidx26.i to i8*, !dbg !1720
  call void @llvm.x86.bndclrr(x86_bnd %68, i8* %base.arrayidx26.i), !dbg !1720
  call void @llvm.x86.bndcurm(x86_bnd %68, i8* %base.arrayidx26.i, i64 0, i8 1, i32 3), !dbg !1720
  %69 = load i32, i32* %arrayidx26.i, align 4, !dbg !1720, !tbaa !1525
  %70 = getelementptr [4 x i8], [4 x i8]* @.str, i64 0, i64 0
  %call27.i = call i32 (i8*, ...) @printf(i8* %70, i32 %69) #2, !dbg !1721
  %indvars.iv.next.i = add nuw nsw i64 %indvars.iv.next.i143, 1, !dbg !1722
  %exitcond.i = icmp eq i64 %indvars.iv.next.i, %wide.trip.count.i, !dbg !1718
  br i1 %exitcond.i, label %_Z8printLenv.exit.loopexit, label %for.body23.for.body23_crit_edge.i, !dbg !1719, !llvm.loop !1552

_Z8printLenv.exit.loopexit:                       ; preds = %for.body23.for.body23_crit_edge.i
  br label %_Z8printLenv.exit, !dbg !1723

_Z8printLenv.exit:                                ; preds = %_Z8printLenv.exit.loopexit, %for.body23.preheader.i, %for.cond21.preheader.i
  %tobool45 = icmp eq %class.FSout* %fout.0, null, !dbg !1723
  br i1 %tobool45, label %for.cond48.preheader, label %if.then46, !dbg !1725

if.then46:                                        ; preds = %_Z8printLenv.exit
  call void @_ZN5FSout5closeEv(%class.FSout* nonnull %fout.0, x86_bnd %bnd_phi.fout.0), !dbg !1726
  br label %for.cond48.preheader, !dbg !1727

for.cond48.preheader:                             ; preds = %_Z8printLenv.exit, %if.then46
  call void @llvm.dbg.value(metadata i32 0, i64 0, metadata !1568, metadata !1520), !dbg !1640
  %71 = load %class.memory**, %class.memory*** @fp_buf, align 8, !tbaa !1536
  %72 = load x86_bnd, x86_bnd* bitcast ([2 x i64]* @llmpx_bnd_infinite to x86_bnd*), !dbg !1728
  %base. = bitcast %class.memory** %71 to i8*, !dbg !1728
  call void @llvm.x86.bndclrr(x86_bnd %72, i8* %base.), !dbg !1728
  call void @llvm.x86.bndcurm(x86_bnd %72, i8* %base., i64 0, i8 1, i32 7), !dbg !1728
  %73 = load %class.memory*, %class.memory** %71, align 8, !dbg !1728, !tbaa !1536
  %castptr = bitcast %class.memory** %71 to i8*, !dbg !1732
  %castptrval = bitcast %class.memory* %73 to i8*, !dbg !1732
  %74 = call x86_bnd @llvm.x86.bndldx(i8* %castptr, i8* %castptrval, i32 0)
  %isnull = icmp eq %class.memory* %73, null, !dbg !1732
  br i1 %isnull, label %delete.end, label %delete.notnull, !dbg !1732

delete.notnull:                                   ; preds = %for.cond48.preheader
  invoke void @_ZN6memoryD2Ev(%class.memory* nonnull %73, x86_bnd %74)
          to label %invoke.cont54 unwind label %lpad53, !dbg !1733

invoke.cont54:                                    ; preds = %delete.notnull
  %75 = bitcast %class.memory* %73 to i8*, !dbg !1735
  call void @_ZdlPv(i8* %75) #16, !dbg !1735
  br label %delete.end, !dbg !1735

delete.end:                                       ; preds = %invoke.cont54, %for.cond48.preheader
  %76 = load %class.memory**, %class.memory*** @fp_tree_buf, align 8, !dbg !1737, !tbaa !1536
  %77 = load x86_bnd, x86_bnd* bitcast ([2 x i64]* @llmpx_bnd_infinite to x86_bnd*), !dbg !1737
  %base.1 = bitcast %class.memory** %76 to i8*, !dbg !1737
  call void @llvm.x86.bndclrr(x86_bnd %77, i8* %base.1), !dbg !1737
  call void @llvm.x86.bndcurm(x86_bnd %77, i8* %base.1, i64 0, i8 1, i32 7), !dbg !1737
  %78 = load %class.memory*, %class.memory** %76, align 8, !dbg !1737, !tbaa !1536
  %castptr2 = bitcast %class.memory** %76 to i8*, !dbg !1738
  %castptrval3 = bitcast %class.memory* %78 to i8*, !dbg !1738
  %79 = call x86_bnd @llvm.x86.bndldx(i8* %castptr2, i8* %castptrval3, i32 0)
  %isnull57 = icmp eq %class.memory* %78, null, !dbg !1738
  br i1 %isnull57, label %for.inc62, label %delete.notnull58, !dbg !1738

delete.notnull58:                                 ; preds = %delete.end
  invoke void @_ZN6memoryD2Ev(%class.memory* nonnull %78, x86_bnd %79)
          to label %invoke.cont60 unwind label %lpad59, !dbg !1739

invoke.cont60:                                    ; preds = %delete.notnull58
  %80 = bitcast %class.memory* %78 to i8*, !dbg !1740
  call void @_ZdlPv(i8* %80) #16, !dbg !1740
  br label %for.inc62, !dbg !1740

for.inc62:                                        ; preds = %delete.end, %invoke.cont60
  %81 = load %class.memory**, %class.memory*** @fp_buf, align 8, !tbaa !1536
  %isnull65 = icmp eq %class.memory** %81, null, !dbg !1741
  br i1 %isnull65, label %delete.end67, label %delete.notnull66, !dbg !1741

lpad53:                                           ; preds = %delete.notnull
  %82 = landingpad { i8*, i32 }
          cleanup, !dbg !1742
  %83 = extractvalue { i8*, i32 } %82, 0, !dbg !1742
  %84 = extractvalue { i8*, i32 } %82, 1, !dbg !1742
  %85 = bitcast %class.memory* %73 to i8*, !dbg !1744
  call void @_ZdlPv(i8* %85) #16, !dbg !1744
  br label %ehcleanup81, !dbg !1744

lpad59:                                           ; preds = %delete.notnull58
  %86 = landingpad { i8*, i32 }
          cleanup, !dbg !1746
  %87 = extractvalue { i8*, i32 } %86, 0, !dbg !1746
  %88 = extractvalue { i8*, i32 } %86, 1, !dbg !1746
  %89 = bitcast %class.memory* %78 to i8*, !dbg !1748
  call void @_ZdlPv(i8* %89) #16, !dbg !1748
  br label %ehcleanup81, !dbg !1748

delete.notnull66:                                 ; preds = %for.inc62
  %90 = bitcast %class.memory** %81 to i8*, !dbg !1749
  call void @_ZdaPv(i8* %90) #16, !dbg !1749
  br label %delete.end67, !dbg !1749

delete.end67:                                     ; preds = %delete.notnull66, %for.inc62
  %91 = load %class.memory**, %class.memory*** @fp_tree_buf, align 8, !dbg !1750, !tbaa !1536
  %isnull68 = icmp eq %class.memory** %91, null, !dbg !1751
  br i1 %isnull68, label %delete.end70, label %delete.notnull69, !dbg !1751

delete.notnull69:                                 ; preds = %delete.end67
  %92 = bitcast %class.memory** %91 to i8*, !dbg !1752
  call void @_ZdaPv(i8* %92) #16, !dbg !1752
  br label %delete.end70, !dbg !1752

delete.end70:                                     ; preds = %delete.notnull69, %delete.end67
  %93 = load i32*, i32** @order_item, align 8, !dbg !1753, !tbaa !1536
  %isnull71 = icmp eq i32* %93, null, !dbg !1754
  br i1 %isnull71, label %delete.end73, label %delete.notnull72, !dbg !1754

delete.notnull72:                                 ; preds = %delete.end70
  %94 = bitcast i32* %93 to i8*, !dbg !1755
  call void @_ZdaPv(i8* %94) #16, !dbg !1755
  br label %delete.end73, !dbg !1755

delete.end73:                                     ; preds = %delete.notnull72, %delete.end70
  %95 = load i32*, i32** @item_order, align 8, !dbg !1756, !tbaa !1536
  %isnull74 = icmp eq i32* %95, null, !dbg !1757
  br i1 %isnull74, label %delete.end76, label %delete.notnull75, !dbg !1757

delete.notnull75:                                 ; preds = %delete.end73
  %96 = bitcast i32* %95 to i8*, !dbg !1758
  call void @_ZdaPv(i8* %96) #16, !dbg !1758
  br label %delete.end76, !dbg !1758

delete.end76:                                     ; preds = %delete.notnull75, %delete.end73
  call void @llvm.dbg.value(metadata double* %tend, i64 0, metadata !1566, metadata !1633), !dbg !1759
  call void @_Z5wtimePd(double* nonnull %tend, x86_bnd %tend.alc_bnd), !dbg !1760
  %97 = load double, double* %tdatap, align 8, !dbg !1761, !tbaa !1762
  call void @llvm.dbg.value(metadata double %97, i64 0, metadata !1565, metadata !1520), !dbg !1667
  %98 = load double, double* %tstart, align 8, !dbg !1764, !tbaa !1762
  call void @llvm.dbg.value(metadata double %98, i64 0, metadata !1564, metadata !1520), !dbg !1634
  %sub = fsub double %97, %98, !dbg !1765
  %99 = load double, double* %tend, align 8, !dbg !1766, !tbaa !1762
  call void @llvm.dbg.value(metadata double %99, i64 0, metadata !1566, metadata !1520), !dbg !1759
  %sub77 = fsub double %99, %97, !dbg !1767
  %100 = getelementptr [68 x i8], [68 x i8]* @.str.5, i64 0, i64 0
  %call78 = call i32 (i8*, ...) @printf(i8* %100, double %sub, double %sub77), !dbg !1768
  br label %cleanup

cleanup:                                          ; preds = %_ZN4Data5closeEv.exit, %delete.end76
  call void @llvm.lifetime.end(i64 8, i8* nonnull %2) #2, !dbg !1630
  call void @llvm.lifetime.end(i64 8, i8* nonnull %1) #2, !dbg !1630
  call void @llvm.lifetime.end(i64 8, i8* nonnull %0) #2, !dbg !1630
  ret i32 0, !dbg !1769

ehcleanup81:                                      ; preds = %lpad21, %lpad25, %lpad30, %lpad59, %lpad53, %lpad41, %lpad
  %exn.slot.2 = phi i8* [ %15, %lpad ], [ %30, %lpad25 ], [ %27, %lpad21 ], [ %44, %lpad30 ], [ %87, %lpad59 ], [ %83, %lpad53 ], [ %51, %lpad41 ]
  %ehselector.slot.2 = phi i32 [ %16, %lpad ], [ %31, %lpad25 ], [ %28, %lpad21 ], [ %45, %lpad30 ], [ %88, %lpad59 ], [ %84, %lpad53 ], [ %52, %lpad41 ]
  call void @llvm.lifetime.end(i64 8, i8* nonnull %2) #2, !dbg !1630
  call void @llvm.lifetime.end(i64 8, i8* nonnull %1) #2, !dbg !1630
  call void @llvm.lifetime.end(i64 8, i8* nonnull %0) #2, !dbg !1630
  %lpad.val = insertvalue { i8*, i32 } undef, i8* %exn.slot.2, 0, !dbg !1771
  %lpad.val92 = insertvalue { i8*, i32 } %lpad.val, i32 %ehselector.slot.2, 1, !dbg !1771
  resume { i8*, i32 } %lpad.val92, !dbg !1771

UnifiedUnreachableBlock:                          ; preds = %if.then11, %if.then
  unreachable
}

declare i32 @__gxx_personality_v0(...)

; Function Attrs: argmemonly nounwind
declare void @llvm.lifetime.start(i64, i8* nocapture) #7

; Function Attrs: nounwind
declare i32 @puts(i8* nocapture readonly) #2

; Function Attrs: nounwind
declare i32 @fflush(%struct._IO_FILE* nocapture) local_unnamed_addr #5

; Function Attrs: inlinehint uwtable
declare dereferenceable(272) %"class.std::basic_ostream"* @_ZStlsISt11char_traitsIcEERSt13basic_ostreamIcT_ES5_PKc(%"class.std::basic_ostream"* dereferenceable(272), i8*) local_unnamed_addr #8

; Function Attrs: noreturn nounwind
declare void @exit(i32) local_unnamed_addr #9

; Function Attrs: nounwind
declare i64 @strtol(i8* readonly, i8** nocapture, i32) local_unnamed_addr #5

; Function Attrs: nobuiltin
declare noalias nonnull i8* @_Znwm(i64) local_unnamed_addr #10

; Function Attrs: inlinehint uwtable
declare dereferenceable(272) %"class.std::basic_ostream"* @_ZSt4endlIcSt11char_traitsIcEERSt13basic_ostreamIT_T0_ES6_(%"class.std::basic_ostream"* dereferenceable(272)) #8

; Function Attrs: nobuiltin nounwind
declare void @_ZdlPv(i8*) local_unnamed_addr #11

; Function Attrs: nobuiltin
declare noalias nonnull i8* @_Znam(i64) local_unnamed_addr #10

; Function Attrs: nounwind
declare i32 @fclose(%struct._IO_FILE* nocapture) local_unnamed_addr #5

; Function Attrs: nobuiltin nounwind
declare void @_ZdaPv(i8*) local_unnamed_addr #11

; Function Attrs: argmemonly nounwind
declare void @llvm.lifetime.end(i64, i8* nocapture) #7

define void @_ZN4DataC2EPc(%class.Data* nocapture %this, i8* nocapture readonly %filename, x86_bnd %this.bnd, x86_bnd %filename.bnd) unnamed_addr align 2 {
entry:
  tail call void @llvm.dbg.value(metadata !1120, i64 0, metadata !1773, metadata !1520), !dbg !1777
  tail call void @llvm.dbg.value(metadata !1120, i64 0, metadata !1776, metadata !1520), !dbg !1778
  %0 = getelementptr [4 x i8], [4 x i8]* @.str.1, i64 0, i64 0
  %call = tail call %struct._IO_FILE* @fopen(i8* %filename, i8* %0), !dbg !1779
  %in = getelementptr inbounds %class.Data, %class.Data* %this, i64 0, i32 1, !dbg !1781
  %base.in = bitcast %class.Data* %this to i8*, !dbg !1782
  call void @llvm.x86.bndclrm(x86_bnd %this.bnd, i8* %base.in, i64 0, i8 1, i32 8), !dbg !1782
  call void @llvm.x86.bndcurm(x86_bnd %this.bnd, i8* %base.in, i64 0, i8 1, i32 15), !dbg !1782
  store %struct._IO_FILE* %call, %struct._IO_FILE** %in, align 8, !dbg !1782, !tbaa !1677
  %1 = bitcast %struct._IO_FILE** %in to i8*, !dbg !1783
  %2 = bitcast %struct._IO_FILE* %call to i8*, !dbg !1783
  ret void, !dbg !1783
}

; Function Attrs: nounwind
declare noalias %struct._IO_FILE* @fopen(i8* nocapture readonly, i8* nocapture readonly) local_unnamed_addr #5

define void @_ZN4DataD2Ev(%class.Data* nocapture readonly %this, x86_bnd %this.bnd) unnamed_addr align 2 {
entry:
  tail call void @llvm.dbg.value(metadata !1120, i64 0, metadata !1784, metadata !1520), !dbg !1787
  %in = getelementptr inbounds %class.Data, %class.Data* %this, i64 0, i32 1, !dbg !1788
  %base.in = bitcast %class.Data* %this to i8*, !dbg !1788
  call void @llvm.x86.bndclrm(x86_bnd %this.bnd, i8* %base.in, i64 0, i8 1, i32 8), !dbg !1788
  call void @llvm.x86.bndcurm(x86_bnd %this.bnd, i8* %base.in, i64 0, i8 1, i32 15), !dbg !1788
  %0 = load %struct._IO_FILE*, %struct._IO_FILE** %in, align 8, !dbg !1788, !tbaa !1677
  %castptr.in = bitcast %struct._IO_FILE** %in to i8*, !dbg !1788
  %castptrval = bitcast %struct._IO_FILE* %0 to i8*, !dbg !1788
  %tobool = icmp eq %struct._IO_FILE* %0, null, !dbg !1788
  br i1 %tobool, label %if.end, label %if.then, !dbg !1791

if.then:                                          ; preds = %entry
  %call = tail call i32 @fclose(%struct._IO_FILE* nonnull %0), !dbg !1792
  br label %if.end, !dbg !1792

if.end:                                           ; preds = %entry, %if.then
  ret void, !dbg !1794
}

define i32 @_ZN4Data6isOpenEv(%class.Data* nocapture readonly %this, x86_bnd %this.bnd) local_unnamed_addr align 2 {
entry:
  tail call void @llvm.dbg.value(metadata !1120, i64 0, metadata !1795, metadata !1520), !dbg !1798
  %in = getelementptr inbounds %class.Data, %class.Data* %this, i64 0, i32 1, !dbg !1799
  %base.in = bitcast %class.Data* %this to i8*, !dbg !1799
  call void @llvm.x86.bndclrm(x86_bnd %this.bnd, i8* %base.in, i64 0, i8 1, i32 8), !dbg !1799
  call void @llvm.x86.bndcurm(x86_bnd %this.bnd, i8* %base.in, i64 0, i8 1, i32 15), !dbg !1799
  %0 = load %struct._IO_FILE*, %struct._IO_FILE** %in, align 8, !dbg !1799, !tbaa !1677
  %castptr.in = bitcast %struct._IO_FILE** %in to i8*, !dbg !1801
  %castptrval = bitcast %struct._IO_FILE* %0 to i8*, !dbg !1801
  %not.tobool = icmp ne %struct._IO_FILE* %0, null, !dbg !1801
  %. = zext i1 %not.tobool to i32, !dbg !1801
  ret i32 %., !dbg !1802
}

define nonnull %1 @_ZN4Data13parseDataFileEP7MapFile(%class.Data* nocapture readonly %this, %class.MapFile* nocapture %mapfile, x86_bnd %this.bnd, x86_bnd %mapfile.bnd) local_unnamed_addr align 2 {
entry:
  %inf_bnd = load x86_bnd, x86_bnd* bitcast ([2 x i64]* @llmpx_bnd_infinite to x86_bnd*), !dbg !1803
  tail call void @llvm.dbg.value(metadata !1120, i64 0, metadata !1806, metadata !1520), !dbg !1803
  tail call void @llvm.dbg.value(metadata !1120, i64 0, metadata !1807, metadata !1520), !dbg !1828
  %0 = load %class.memory*, %class.memory** @database_buf, align 8, !dbg !1829, !tbaa !1536
  %1 = load x86_bnd, x86_bnd* bitcast ([2 x i64]* @llmpx_bnd_infinite to x86_bnd*), !dbg !1830
  %2 = call %0 @_ZN6memory6newbufEjj(%class.memory* %0, i32 1, i32 40, x86_bnd %1), !dbg !1830
  %3 = extractvalue %0 %2, 0
  %4 = extractvalue %0 %2, 1
  %5 = bitcast i8* %3 to %class.MapFileNode*, !dbg !1831
  tail call void @llvm.dbg.value(metadata %class.MapFileNode* %5, i64 0, metadata !1809, metadata !1520), !dbg !1832
  tail call void @llvm.dbg.value(metadata %class.MapFileNode* %5, i64 0, metadata !1833, metadata !1520), !dbg !1838
  tail call void @llvm.dbg.value(metadata i32 100000, i64 0, metadata !1836, metadata !1520), !dbg !1840
  tail call void @llvm.dbg.value(metadata i32 1, i64 0, metadata !1837, metadata !1520), !dbg !1841
  %size.i = getelementptr inbounds i8, i8* %3, i64 8, !dbg !1842
  %6 = bitcast i8* %size.i to i32*, !dbg !1842
  %base. = bitcast i32* %6 to i8*, !dbg !1843
  call void @llvm.x86.bndclrr(x86_bnd %4, i8* %base.), !dbg !1843
  call void @llvm.x86.bndcurm(x86_bnd %4, i8* %base., i64 0, i8 1, i32 3), !dbg !1843
  store i32 100000, i32* %6, align 8, !dbg !1843, !tbaa !1844
  %7 = bitcast i32* %6 to i8*, !dbg !1846
  %call.i = tail call i8* @_Znam(i64 400000) #15, !dbg !1846
  %8 = bitcast i8* %3 to i8**, !dbg !1847
  %base.1 = bitcast i8** %8 to i8*, !dbg !1847
  call void @llvm.x86.bndclrr(x86_bnd %4, i8* %base.1), !dbg !1847
  store i8* %call.i, i8** %8, align 8, !dbg !1847, !tbaa !1848
  %9 = bitcast i8** %8 to i8*, !dbg !1849
  %base.2 = bitcast i32* %6 to i8*, !dbg !1849
  call void @llvm.x86.bndclrr(x86_bnd %4, i8* %base.2), !dbg !1849
  call void @llvm.x86.bndcurm(x86_bnd %4, i8* %base.2, i64 0, i8 1, i32 3), !dbg !1849
  store i32 100000, i32* %6, align 8, !dbg !1849, !tbaa !1844
  %10 = bitcast i32* %6 to i8*, !dbg !1850
  %top.i = getelementptr inbounds i8, i8* %3, i64 12, !dbg !1850
  %11 = bitcast i8* %top.i to i32*, !dbg !1850
  %base.3 = bitcast i32* %11 to i8*, !dbg !1851
  call void @llvm.x86.bndclrr(x86_bnd %4, i8* %base.3), !dbg !1851
  call void @llvm.x86.bndcurm(x86_bnd %4, i8* %base.3, i64 0, i8 1, i32 3), !dbg !1851
  store i32 0, i32* %11, align 4, !dbg !1851, !tbaa !1852
  %12 = bitcast i32* %11 to i8*, !dbg !1853
  %13 = bitcast %class.MapFile* %mapfile to i64*, !dbg !1853
  %base.4 = bitcast i64* %13 to i8*, !dbg !1853
  call void @llvm.x86.bndclrr(x86_bnd %mapfile.bnd, i8* %base.4), !dbg !1853
  call void @llvm.x86.bndcurm(x86_bnd %mapfile.bnd, i8* %base.4, i64 0, i8 1, i32 7), !dbg !1853
  %14 = load i64, i64* %13, align 8, !dbg !1853, !tbaa !1854
  %next = getelementptr inbounds i8, i8* %3, i64 32, !dbg !1856
  %15 = bitcast i8* %next to i64*, !dbg !1857
  %base.5 = bitcast i64* %15 to i8*, !dbg !1857
  call void @llvm.x86.bndclrr(x86_bnd %4, i8* %base.5), !dbg !1857
  store i64 %14, i64* %15, align 8, !dbg !1857, !tbaa !1858
  %16 = bitcast i64* %15 to i8*, !dbg !1859
  %17 = inttoptr i64 %14 to i8*, !dbg !1859
  %18 = bitcast %class.MapFile* %mapfile to i8**, !dbg !1859
  %base.6 = bitcast i8** %18 to i8*, !dbg !1859
  call void @llvm.x86.bndclrr(x86_bnd %mapfile.bnd, i8* %base.6), !dbg !1859
  call void @llvm.x86.bndcurm(x86_bnd %mapfile.bnd, i8* %base.6, i64 0, i8 1, i32 7), !dbg !1859
  store i8* %3, i8** %18, align 8, !dbg !1859, !tbaa !1854
  %19 = bitcast i8** %18 to i8*, !dbg !1860
  call void @llvm.x86.bndstx(i8* %19, i8* %3, i32 0, x86_bnd %4)
  %tablesize = getelementptr inbounds %class.MapFile, %class.MapFile* %mapfile, i64 0, i32 7, !dbg !1860
  %base.tablesize = bitcast %class.MapFile* %mapfile to i8*, !dbg !1861
  call void @llvm.x86.bndclrm(x86_bnd %mapfile.bnd, i8* %base.tablesize, i64 0, i8 1, i32 56), !dbg !1861
  call void @llvm.x86.bndcurm(x86_bnd %mapfile.bnd, i8* %base.tablesize, i64 0, i8 1, i32 59), !dbg !1861
  %20 = load i32, i32* %tablesize, align 8, !dbg !1861, !tbaa !1862
  %inc = add nsw i32 %20, 1, !dbg !1861
  %base.tablesize7 = bitcast %class.MapFile* %mapfile to i8*, !dbg !1861
  call void @llvm.x86.bndclrm(x86_bnd %mapfile.bnd, i8* %base.tablesize7, i64 0, i8 1, i32 56), !dbg !1861
  store i32 %inc, i32* %tablesize, align 8, !dbg !1861, !tbaa !1862
  %21 = bitcast i8* %call.i to i32*, !dbg !1863
  tail call void @llvm.dbg.value(metadata i32* %21, i64 0, metadata !1811, metadata !1520), !dbg !1864
  tail call void @llvm.dbg.value(metadata i32 0, i64 0, metadata !1813, metadata !1520), !dbg !1865
  tail call void @llvm.dbg.value(metadata i32 100000, i64 0, metadata !1814, metadata !1520), !dbg !1866
  tail call void @llvm.dbg.value(metadata i32 0, i64 0, metadata !1815, metadata !1520), !dbg !1867
  store i32 0, i32* @TRANSACTION_NO, align 4, !dbg !1868, !tbaa !1525
  %22 = load i32, i32* @ITEM_NO, align 4, !dbg !1869, !tbaa !1525
  %23 = sext i32 %22 to i64, !dbg !1870
  %24 = tail call { i64, i1 } @llvm.umul.with.overflow.i64(i64 %23, i64 4), !dbg !1870
  %25 = extractvalue { i64, i1 } %24, 1, !dbg !1870
  %26 = extractvalue { i64, i1 } %24, 0, !dbg !1870
  %27 = select i1 %25, i64 -1, i64 %26, !dbg !1870
  %call5 = tail call i8* @_Znam(i64 %27) #15, !dbg !1870
  %28 = bitcast i8* %call5 to i32*, !dbg !1870
  tail call void @llvm.dbg.value(metadata i32* %28, i64 0, metadata !1808, metadata !1520), !dbg !1871
  tail call void @llvm.dbg.value(metadata i32 0, i64 0, metadata !1820, metadata !1520), !dbg !1872
  tail call void @llvm.dbg.value(metadata i32 0, i64 0, metadata !1820, metadata !1520), !dbg !1872
  %cmp214 = icmp sgt i32 %22, 0, !dbg !1873
  br i1 %cmp214, label %for.body.lr.ph, label %while.cond.preheader, !dbg !1876

for.body.lr.ph:                                   ; preds = %entry
  %29 = add i32 %22, -1, !dbg !1876
  %30 = zext i32 %29 to i64, !dbg !1876
  %31 = shl nuw nsw i64 %30, 2, !dbg !1876
  %32 = add nuw nsw i64 %31, 4, !dbg !1876
  call void @llvm.memset.p0i8.i64(i8* nonnull %call5, i8 0, i64 %32, i32 4, i1 false), !dbg !1878
  br label %while.cond.preheader

while.cond.preheader:                             ; preds = %for.body.lr.ph, %entry
  %in = getelementptr inbounds %class.Data, %class.Data* %this, i64 0, i32 1
  br label %while.cond, !dbg !1871

while.cond:                                       ; preds = %while.cond.backedge, %while.cond.preheader
  %TransactionContent.0 = phi i32* [ %21, %while.cond.preheader ], [ %TransactionContent.0.be, %while.cond.backedge ]
  %bnd_phi.TransactionContent.0 = phi x86_bnd [ %inf_bnd, %while.cond.preheader ], [ %bnd_phi.TransactionContent.0.be, %while.cond.backedge ]
  %length.0 = phi i32 [ 0, %while.cond.preheader ], [ %length.0.be, %while.cond.backedge ]
  %current_mapfilenode.0 = phi %class.MapFileNode* [ %5, %while.cond.preheader ], [ %current_mapfilenode.0.be, %while.cond.backedge ]
  %bnd_phi.current_mapfilenode.0 = phi x86_bnd [ %4, %while.cond.preheader ], [ %bnd_phi.current_mapfilenode.0.be, %while.cond.backedge ]
  %net_itemno.0 = phi i32 [ 0, %while.cond.preheader ], [ %net_itemno.2, %while.cond.backedge ]
  %33 = phi i8* [ %call5, %while.cond.preheader ], [ %109, %while.cond.backedge ]
  %bnd_phi. = phi x86_bnd [ %inf_bnd, %while.cond.preheader ], [ %bnd_phi.8, %while.cond.backedge ]
  %34 = phi i8* [ %call5, %while.cond.preheader ], [ %110, %while.cond.backedge ]
  %bnd_phi.10 = phi x86_bnd [ %inf_bnd, %while.cond.preheader ], [ %bnd_phi.11, %while.cond.backedge ]
  %counts.0 = phi i32* [ %28, %while.cond.preheader ], [ %counts.2, %while.cond.backedge ]
  %bnd_phi.counts.0 = phi x86_bnd [ %inf_bnd, %while.cond.preheader ], [ %bnd_phi.counts.2, %while.cond.backedge ]
  tail call void @llvm.dbg.value(metadata i32* %counts.0, i64 0, metadata !1808, metadata !1520), !dbg !1871
  tail call void @llvm.dbg.value(metadata i32 %net_itemno.0, i64 0, metadata !1815, metadata !1520), !dbg !1867
  tail call void @llvm.dbg.value(metadata %class.MapFileNode* %current_mapfilenode.0, i64 0, metadata !1809, metadata !1520), !dbg !1832
  tail call void @llvm.dbg.value(metadata i32 %length.0, i64 0, metadata !1813, metadata !1520), !dbg !1865
  tail call void @llvm.dbg.value(metadata i32* %TransactionContent.0, i64 0, metadata !1811, metadata !1520), !dbg !1864
  tail call void @llvm.dbg.value(metadata i32 0, i64 0, metadata !1817, metadata !1520), !dbg !1879
  tail call void @llvm.dbg.value(metadata i32 0, i64 0, metadata !1818, metadata !1520), !dbg !1880
  %base.in = bitcast %class.Data* %this to i8*
  call void @llvm.x86.bndclrm(x86_bnd %this.bnd, i8* %base.in, i64 0, i8 1, i32 8)
  call void @llvm.x86.bndcurm(x86_bnd %this.bnd, i8* %base.in, i64 0, i8 1, i32 15)
  %35 = load %struct._IO_FILE*, %struct._IO_FILE** %in, align 8, !tbaa !1677
  %castptr.in = bitcast %struct._IO_FILE** %in to i8*, !dbg !1881
  %castptrval = bitcast %struct._IO_FILE* %35 to i8*, !dbg !1881
  %call16193 = tail call i32 @getc(%struct._IO_FILE* %35), !dbg !1881
  tail call void @llvm.dbg.value(metadata i32 0, i64 0, metadata !1818, metadata !1520), !dbg !1880
  tail call void @llvm.dbg.value(metadata i32 0, i64 0, metadata !1817, metadata !1520), !dbg !1879
  %sext194 = shl i32 %call16193, 24, !dbg !1883
  %conv9195 = ashr exact i32 %sext194, 24, !dbg !1883
  %sext.off196 = add i32 %sext194, -788529153, !dbg !1885
  %36 = icmp ult i32 %sext.off196, 184549375, !dbg !1885
  br i1 %36, label %while.body13.preheader, label %if.end72, !dbg !1885

while.body13.preheader:                           ; preds = %while.cond
  br label %while.body13, !dbg !1886

while.body13:                                     ; preds = %while.body13.preheader, %while.body13
  %conv9198 = phi i32 [ %conv9, %while.body13 ], [ %conv9195, %while.body13.preheader ]
  %item.0197 = phi i32 [ %add, %while.body13 ], [ 0, %while.body13.preheader ]
  %mul = mul nsw i32 %item.0197, 10, !dbg !1886
  tail call void @llvm.dbg.value(metadata i32 %mul, i64 0, metadata !1817, metadata !1520), !dbg !1879
  %sub = add i32 %mul, -48, !dbg !1887
  %add = add i32 %sub, %conv9198, !dbg !1888
  tail call void @llvm.dbg.value(metadata i32 %add, i64 0, metadata !1817, metadata !1520), !dbg !1879
  tail call void @llvm.dbg.value(metadata i32 1, i64 0, metadata !1818, metadata !1520), !dbg !1880
  %base.in13 = bitcast %class.Data* %this to i8*
  call void @llvm.x86.bndclrm(x86_bnd %this.bnd, i8* %base.in13, i64 0, i8 1, i32 8)
  call void @llvm.x86.bndcurm(x86_bnd %this.bnd, i8* %base.in13, i64 0, i8 1, i32 15)
  %37 = load %struct._IO_FILE*, %struct._IO_FILE** %in, align 8, !tbaa !1677
  %castptr.in14 = bitcast %struct._IO_FILE** %in to i8*, !dbg !1881
  %castptrval15 = bitcast %struct._IO_FILE* %37 to i8*, !dbg !1881
  %call16 = tail call i32 @getc(%struct._IO_FILE* %37), !dbg !1881
  tail call void @llvm.dbg.value(metadata i32 1, i64 0, metadata !1818, metadata !1520), !dbg !1880
  tail call void @llvm.dbg.value(metadata i32 %add, i64 0, metadata !1817, metadata !1520), !dbg !1879
  %sext = shl i32 %call16, 24, !dbg !1883
  %conv9 = ashr exact i32 %sext, 24, !dbg !1883
  %sext.off = add i32 %sext, -788529153, !dbg !1885
  %38 = icmp ult i32 %sext.off, 184549375, !dbg !1885
  br i1 %38, label %while.body13, label %if.then, !dbg !1885, !llvm.loop !1889

if.then:                                          ; preds = %while.body13
  %cmp18 = icmp eq i32 %length.0, 100000, !dbg !1892
  br i1 %cmp18, label %if.then19, label %if.end, !dbg !1894

if.then19:                                        ; preds = %if.then
  %39 = load %class.memory*, %class.memory** @database_buf, align 8, !dbg !1895, !tbaa !1536
  %40 = load x86_bnd, x86_bnd* bitcast ([2 x i64]* @llmpx_bnd_infinite to x86_bnd*), !dbg !1897
  %41 = call %0 @_ZN6memory6newbufEjj(%class.memory* %39, i32 1, i32 40, x86_bnd %40), !dbg !1897
  %42 = extractvalue %0 %41, 0
  %43 = extractvalue %0 %41, 1
  %44 = bitcast i8* %42 to %class.MapFileNode*, !dbg !1898
  tail call void @llvm.dbg.value(metadata %class.MapFileNode* %44, i64 0, metadata !1810, metadata !1520), !dbg !1899
  tail call void @llvm.dbg.value(metadata %class.MapFileNode* %44, i64 0, metadata !1833, metadata !1520), !dbg !1900
  tail call void @llvm.dbg.value(metadata i32 100000, i64 0, metadata !1836, metadata !1520), !dbg !1902
  tail call void @llvm.dbg.value(metadata i32 1, i64 0, metadata !1837, metadata !1520), !dbg !1903
  %size.i186 = getelementptr inbounds i8, i8* %42, i64 8, !dbg !1904
  %45 = bitcast i8* %size.i186 to i32*, !dbg !1904
  %base.16 = bitcast i32* %45 to i8*, !dbg !1905
  call void @llvm.x86.bndclrr(x86_bnd %43, i8* %base.16), !dbg !1905
  call void @llvm.x86.bndcurm(x86_bnd %43, i8* %base.16, i64 0, i8 1, i32 3), !dbg !1905
  store i32 100000, i32* %45, align 8, !dbg !1905, !tbaa !1844
  %46 = bitcast i32* %45 to i8*, !dbg !1906
  %call.i187 = tail call i8* @_Znam(i64 400000) #15, !dbg !1906
  %47 = bitcast i8* %42 to i8**, !dbg !1907
  %base.17 = bitcast i8** %47 to i8*, !dbg !1907
  call void @llvm.x86.bndclrr(x86_bnd %43, i8* %base.17), !dbg !1907
  store i8* %call.i187, i8** %47, align 8, !dbg !1907, !tbaa !1848
  %48 = bitcast i8** %47 to i8*, !dbg !1908
  %base.18 = bitcast i32* %45 to i8*, !dbg !1908
  call void @llvm.x86.bndclrr(x86_bnd %43, i8* %base.18), !dbg !1908
  call void @llvm.x86.bndcurm(x86_bnd %43, i8* %base.18, i64 0, i8 1, i32 3), !dbg !1908
  store i32 100000, i32* %45, align 8, !dbg !1908, !tbaa !1844
  %49 = bitcast i32* %45 to i8*, !dbg !1909
  %top.i188 = getelementptr inbounds i8, i8* %42, i64 12, !dbg !1909
  %50 = bitcast i8* %top.i188 to i32*, !dbg !1909
  %base.19 = bitcast i32* %50 to i8*, !dbg !1910
  call void @llvm.x86.bndclrr(x86_bnd %43, i8* %base.19), !dbg !1910
  call void @llvm.x86.bndcurm(x86_bnd %43, i8* %base.19, i64 0, i8 1, i32 3), !dbg !1910
  store i32 0, i32* %50, align 4, !dbg !1910, !tbaa !1852
  %51 = bitcast i32* %50 to i8*, !dbg !1911
  %next21 = getelementptr inbounds i8, i8* %42, i64 32, !dbg !1911
  %52 = bitcast i8* %next21 to %class.MapFileNode**, !dbg !1911
  %base.20 = bitcast %class.MapFileNode** %52 to i8*, !dbg !1912
  call void @llvm.x86.bndclrr(x86_bnd %43, i8* %base.20), !dbg !1912
  store %class.MapFileNode* %current_mapfilenode.0, %class.MapFileNode** %52, align 8, !dbg !1912, !tbaa !1858
  %53 = bitcast %class.MapFileNode** %52 to i8*, !dbg !1913
  %54 = bitcast %class.MapFileNode* %current_mapfilenode.0 to i8*, !dbg !1913
  call void @llvm.x86.bndstx(i8* %53, i8* %54, i32 0, x86_bnd %bnd_phi.current_mapfilenode.0)
  %base.21 = bitcast i8** %18 to i8*, !dbg !1913
  call void @llvm.x86.bndclrr(x86_bnd %mapfile.bnd, i8* %base.21), !dbg !1913
  call void @llvm.x86.bndcurm(x86_bnd %mapfile.bnd, i8* %base.21, i64 0, i8 1, i32 7), !dbg !1913
  store i8* %42, i8** %18, align 8, !dbg !1913, !tbaa !1854
  %55 = bitcast i8** %18 to i8*, !dbg !1914
  call void @llvm.x86.bndstx(i8* %55, i8* %42, i32 0, x86_bnd %43)
  %base.tablesize22 = bitcast %class.MapFile* %mapfile to i8*, !dbg !1914
  call void @llvm.x86.bndclrm(x86_bnd %mapfile.bnd, i8* %base.tablesize22, i64 0, i8 1, i32 56), !dbg !1914
  call void @llvm.x86.bndcurm(x86_bnd %mapfile.bnd, i8* %base.tablesize22, i64 0, i8 1, i32 59), !dbg !1914
  %56 = load i32, i32* %tablesize, align 8, !dbg !1914, !tbaa !1862
  %inc24 = add nsw i32 %56, 1, !dbg !1914
  %base.tablesize23 = bitcast %class.MapFile* %mapfile to i8*, !dbg !1914
  call void @llvm.x86.bndclrm(x86_bnd %mapfile.bnd, i8* %base.tablesize23, i64 0, i8 1, i32 56), !dbg !1914
  store i32 %inc24, i32* %tablesize, align 8, !dbg !1914, !tbaa !1862
  %57 = bitcast i8* %call.i187 to i32*, !dbg !1915
  tail call void @llvm.dbg.value(metadata i32* %57, i64 0, metadata !1812, metadata !1520), !dbg !1916
  store i32 -1, i32* %57, align 4, !dbg !1917, !tbaa !1525
  %58 = bitcast i32* %57 to i8*, !dbg !1918
  tail call void @llvm.dbg.value(metadata i32 1, i64 0, metadata !1819, metadata !1520), !dbg !1918
  tail call void @llvm.dbg.value(metadata i32 1, i64 0, metadata !1819, metadata !1520), !dbg !1918
  tail call void @llvm.dbg.value(metadata i32 99999, i64 0, metadata !1813, metadata !1520), !dbg !1865
  %arrayidx29203 = getelementptr inbounds i32, i32* %TransactionContent.0, i64 99999, !dbg !1919
  %base.arrayidx29203 = bitcast i32* %TransactionContent.0 to i8*, !dbg !1919
  call void @llvm.x86.bndclrm(x86_bnd %bnd_phi.TransactionContent.0, i8* %base.arrayidx29203, i64 0, i8 1, i32 399996), !dbg !1919
  %59 = load i32, i32* %arrayidx29203, align 4, !dbg !1919, !tbaa !1525
  %cmp30204 = icmp eq i32 %59, -1, !dbg !1921
  br i1 %cmp30204, label %while.end38, label %while.body31.preheader, !dbg !1922

while.body31.preheader:                           ; preds = %if.then19
  br label %while.body31, !dbg !1923

while.body31:                                     ; preds = %while.body31.preheader, %while.body31
  %indvars.iv217 = phi i64 [ %indvars.iv.next218, %while.body31 ], [ 1, %while.body31.preheader ]
  %indvars.iv = phi i64 [ %indvars.iv.next, %while.body31 ], [ 99999, %while.body31.preheader ]
  %60 = phi i32 [ %61, %while.body31 ], [ %59, %while.body31.preheader ]
  %arrayidx35 = getelementptr inbounds i32, i32* %57, i64 %indvars.iv217, !dbg !1923
  store i32 %60, i32* %arrayidx35, align 4, !dbg !1925, !tbaa !1525
  %indvars.iv.next218 = add nuw i64 %indvars.iv217, 1, !dbg !1926
  %indvars.iv.next = add i64 %indvars.iv, -1
  %arrayidx29 = getelementptr inbounds i32, i32* %TransactionContent.0, i64 %indvars.iv.next, !dbg !1919
  %base.arrayidx29 = bitcast i32* %arrayidx29 to i8*, !dbg !1919
  call void @llvm.x86.bndclrr(x86_bnd %bnd_phi.TransactionContent.0, i8* %base.arrayidx29), !dbg !1919
  call void @llvm.x86.bndcurm(x86_bnd %bnd_phi.TransactionContent.0, i8* %base.arrayidx29, i64 0, i8 1, i32 3), !dbg !1919
  %61 = load i32, i32* %arrayidx29, align 4, !dbg !1919, !tbaa !1525
  %cmp30 = icmp eq i32 %61, -1, !dbg !1921
  br i1 %cmp30, label %while.end38.loopexit, label %while.body31, !dbg !1922, !llvm.loop !1927

while.end38.loopexit:                             ; preds = %while.body31
  %62 = trunc i64 %indvars.iv.next218 to i32, !dbg !1930
  %63 = trunc i64 %indvars.iv to i32, !dbg !1930
  br label %while.end38, !dbg !1930

while.end38:                                      ; preds = %while.end38.loopexit, %if.then19
  %length.1.in.lcssa = phi i32 [ 100000, %if.then19 ], [ %63, %while.end38.loopexit ]
  %j.0.lcssa = phi i32 [ 1, %if.then19 ], [ %62, %while.end38.loopexit ]
  %top = getelementptr inbounds %class.MapFileNode, %class.MapFileNode* %current_mapfilenode.0, i64 0, i32 2, !dbg !1930
  %base.top = bitcast %class.MapFileNode* %current_mapfilenode.0 to i8*, !dbg !1931
  call void @llvm.x86.bndclrm(x86_bnd %bnd_phi.current_mapfilenode.0, i8* %base.top, i64 0, i8 1, i32 12), !dbg !1931
  call void @llvm.x86.bndcurm(x86_bnd %bnd_phi.current_mapfilenode.0, i8* %base.top, i64 0, i8 1, i32 15), !dbg !1931
  store i32 %length.1.in.lcssa, i32* %top, align 4, !dbg !1931, !tbaa !1852
  tail call void @llvm.dbg.value(metadata i32 undef, i64 0, metadata !1813, metadata !1520), !dbg !1865
  tail call void @llvm.dbg.value(metadata %class.MapFileNode* %44, i64 0, metadata !1809, metadata !1520), !dbg !1832
  tail call void @llvm.dbg.value(metadata i32* %57, i64 0, metadata !1811, metadata !1520), !dbg !1864
  br label %if.end, !dbg !1932

if.end:                                           ; preds = %while.end38, %if.then
  %TransactionContent.1 = phi i32* [ %57, %while.end38 ], [ %TransactionContent.0, %if.then ]
  %bnd_phi.TransactionContent.1 = phi x86_bnd [ %inf_bnd, %while.end38 ], [ %bnd_phi.TransactionContent.0, %if.then ]
  %length.2 = phi i32 [ %j.0.lcssa, %while.end38 ], [ %length.0, %if.then ]
  %current_mapfilenode.1 = phi %class.MapFileNode* [ %44, %while.end38 ], [ %current_mapfilenode.0, %if.then ]
  %bnd_phi.current_mapfilenode.1 = phi x86_bnd [ %43, %while.end38 ], [ %bnd_phi.current_mapfilenode.0, %if.then ]
  tail call void @llvm.dbg.value(metadata %class.MapFileNode* %current_mapfilenode.1, i64 0, metadata !1809, metadata !1520), !dbg !1832
  tail call void @llvm.dbg.value(metadata i32 %length.2, i64 0, metadata !1813, metadata !1520), !dbg !1865
  tail call void @llvm.dbg.value(metadata i32* %TransactionContent.1, i64 0, metadata !1811, metadata !1520), !dbg !1864
  %idxprom40 = sext i32 %length.2 to i64, !dbg !1933
  %arrayidx41 = getelementptr inbounds i32, i32* %TransactionContent.1, i64 %idxprom40, !dbg !1933
  %base.arrayidx41 = bitcast i32* %arrayidx41 to i8*, !dbg !1934
  call void @llvm.x86.bndclrr(x86_bnd %bnd_phi.TransactionContent.1, i8* %base.arrayidx41), !dbg !1934
  call void @llvm.x86.bndcurm(x86_bnd %bnd_phi.TransactionContent.1, i8* %base.arrayidx41, i64 0, i8 1, i32 3), !dbg !1934
  store i32 %add, i32* %arrayidx41, align 4, !dbg !1934, !tbaa !1525
  %inc42 = add nsw i32 %length.2, 1, !dbg !1935
  tail call void @llvm.dbg.value(metadata i32 %inc42, i64 0, metadata !1813, metadata !1520), !dbg !1865
  %64 = load i32, i32* @ITEM_NO, align 4, !dbg !1936, !tbaa !1525
  %cmp43 = icmp slt i32 %add, %64, !dbg !1937
  br i1 %cmp43, label %if.else, label %if.then44, !dbg !1938

if.then44:                                        ; preds = %if.end
  %mul45 = shl nsw i32 %add, 1, !dbg !1939
  store i32 %mul45, i32* @ITEM_NO, align 4, !dbg !1940, !tbaa !1525
  %65 = sext i32 %mul45 to i64, !dbg !1941
  %66 = tail call { i64, i1 } @llvm.umul.with.overflow.i64(i64 %65, i64 4), !dbg !1941
  %67 = extractvalue { i64, i1 } %66, 1, !dbg !1941
  %68 = extractvalue { i64, i1 } %66, 0, !dbg !1941
  %69 = select i1 %67, i64 -1, i64 %68, !dbg !1941
  %call46 = tail call i8* @_Znam(i64 %69) #15, !dbg !1941
  %70 = bitcast i8* %call46 to i32*, !dbg !1941
  tail call void @llvm.dbg.value(metadata i32* %70, i64 0, metadata !1822, metadata !1520), !dbg !1942
  tail call void @llvm.dbg.value(metadata i32 0, i64 0, metadata !1819, metadata !1520), !dbg !1918
  tail call void @llvm.dbg.value(metadata i32 0, i64 0, metadata !1819, metadata !1520), !dbg !1918
  %cmp48209 = icmp slt i32 %net_itemno.0, 0, !dbg !1943
  br i1 %cmp48209, label %for.cond57.preheader, label %for.body49.preheader, !dbg !1947

for.body49.preheader:                             ; preds = %if.then44
  %71 = add i32 %net_itemno.0, 1, !dbg !1949
  %wide.trip.count = zext i32 %71 to i64
  %min.iters.check = icmp ult i32 %71, 8, !dbg !1949
  br i1 %min.iters.check, label %for.body49.preheader234, label %min.iters.checked, !dbg !1949

for.body49.preheader234:                          ; preds = %middle.block, %vector.memcheck, %min.iters.checked, %for.body49.preheader
  %indvars.iv219.ph = phi i64 [ 0, %vector.memcheck ], [ 0, %min.iters.checked ], [ 0, %for.body49.preheader ], [ %n.vec, %middle.block ]
  %72 = sub nsw i64 %wide.trip.count, %indvars.iv219.ph, !dbg !1949
  %73 = add nsw i64 %wide.trip.count, -1, !dbg !1949
  %74 = sub nsw i64 %73, %indvars.iv219.ph, !dbg !1949
  %xtraiter = and i64 %72, 7, !dbg !1949
  %lcmp.mod = icmp eq i64 %xtraiter, 0, !dbg !1949
  br i1 %lcmp.mod, label %for.body49.prol.loopexit, label %for.body49.prol.preheader, !dbg !1949

for.body49.prol.preheader:                        ; preds = %for.body49.preheader234
  br label %for.body49.prol, !dbg !1949

for.body49.prol:                                  ; preds = %for.body49.prol, %for.body49.prol.preheader
  %indvars.iv219.prol = phi i64 [ %indvars.iv.next220.prol, %for.body49.prol ], [ %indvars.iv219.ph, %for.body49.prol.preheader ]
  %prol.iter = phi i64 [ %prol.iter.sub, %for.body49.prol ], [ %xtraiter, %for.body49.prol.preheader ]
  %arrayidx51.prol = getelementptr inbounds i32, i32* %counts.0, i64 %indvars.iv219.prol, !dbg !1949
  %base.arrayidx51.prol = bitcast i32* %arrayidx51.prol to i8*, !dbg !1949
  call void @llvm.x86.bndclrr(x86_bnd %bnd_phi.counts.0, i8* %base.arrayidx51.prol), !dbg !1949
  call void @llvm.x86.bndcurm(x86_bnd %bnd_phi.counts.0, i8* %base.arrayidx51.prol, i64 0, i8 1, i32 3), !dbg !1949
  %75 = load i32, i32* %arrayidx51.prol, align 4, !dbg !1949, !tbaa !1525
  %arrayidx53.prol = getelementptr inbounds i32, i32* %70, i64 %indvars.iv219.prol, !dbg !1950
  store i32 %75, i32* %arrayidx53.prol, align 4, !dbg !1951, !tbaa !1525
  %indvars.iv.next220.prol = add nuw nsw i64 %indvars.iv219.prol, 1, !dbg !1952
  %prol.iter.sub = add i64 %prol.iter, -1, !dbg !1947
  %prol.iter.cmp = icmp eq i64 %prol.iter.sub, 0, !dbg !1947
  br i1 %prol.iter.cmp, label %for.body49.prol.loopexit.unr-lcssa, label %for.body49.prol, !dbg !1947, !llvm.loop !1954

for.body49.prol.loopexit.unr-lcssa:               ; preds = %for.body49.prol
  br label %for.body49.prol.loopexit, !dbg !1949

for.body49.prol.loopexit:                         ; preds = %for.body49.preheader234, %for.body49.prol.loopexit.unr-lcssa
  %indvars.iv219.unr = phi i64 [ %indvars.iv219.ph, %for.body49.preheader234 ], [ %indvars.iv.next220.prol, %for.body49.prol.loopexit.unr-lcssa ]
  %76 = icmp ult i64 %74, 7, !dbg !1949
  br i1 %76, label %for.cond57.preheader.loopexit.loopexit, label %for.body49.preheader234.new, !dbg !1949

for.body49.preheader234.new:                      ; preds = %for.body49.prol.loopexit
  br label %for.body49, !dbg !1949

min.iters.checked:                                ; preds = %for.body49.preheader
  %77 = and i32 %71, 7, !dbg !1949
  %n.mod.vf = zext i32 %77 to i64, !dbg !1949
  %n.vec = sub nsw i64 %wide.trip.count, %n.mod.vf, !dbg !1949
  %cmp.zero = icmp eq i64 %n.vec, 0, !dbg !1949
  br i1 %cmp.zero, label %for.body49.preheader234, label %vector.memcheck, !dbg !1949

vector.memcheck:                                  ; preds = %min.iters.checked
  %78 = shl nuw nsw i64 %wide.trip.count, 2, !dbg !1949
  %scevgep228 = getelementptr i8, i8* %call46, i64 %78, !dbg !1949
  %scevgep230 = getelementptr i32, i32* %counts.0, i64 %wide.trip.count, !dbg !1949
  %scevgep230231 = bitcast i32* %scevgep230 to i8*
  %bound0 = icmp ult i8* %call46, %scevgep230231, !dbg !1949
  %bound1 = icmp ult i8* %34, %scevgep228, !dbg !1949
  %memcheck.conflict = and i1 %bound0, %bound1, !dbg !1949
  br i1 %memcheck.conflict, label %for.body49.preheader234, label %vector.body.preheader, !dbg !1949

vector.body.preheader:                            ; preds = %vector.memcheck
  br label %vector.body, !dbg !1949

vector.body:                                      ; preds = %vector.body.preheader, %vector.body
  %index = phi i64 [ %index.next, %vector.body ], [ 0, %vector.body.preheader ], !dbg !1952
  %79 = getelementptr inbounds i32, i32* %counts.0, i64 %index, !dbg !1949
  %80 = bitcast i32* %79 to <4 x i32>*, !dbg !1949
  %base.24 = bitcast <4 x i32>* %80 to i8*, !dbg !1949
  call void @llvm.x86.bndclrr(x86_bnd %bnd_phi.counts.0, i8* %base.24), !dbg !1949
  %wide.load = load <4 x i32>, <4 x i32>* %80, align 4, !dbg !1949, !tbaa !1525, !alias.scope !1956
  %81 = getelementptr i32, i32* %79, i64 4, !dbg !1949
  %82 = bitcast i32* %81 to <4 x i32>*, !dbg !1949
  %base.25 = bitcast <4 x i32>* %82 to i8*, !dbg !1949
  call void @llvm.x86.bndclrr(x86_bnd %bnd_phi.counts.0, i8* %base.25), !dbg !1949
  %wide.load233 = load <4 x i32>, <4 x i32>* %82, align 4, !dbg !1949, !tbaa !1525, !alias.scope !1956
  %83 = getelementptr inbounds i32, i32* %70, i64 %index, !dbg !1950
  %84 = bitcast i32* %83 to <4 x i32>*, !dbg !1951
  store <4 x i32> %wide.load, <4 x i32>* %84, align 4, !dbg !1951, !tbaa !1525, !alias.scope !1959, !noalias !1956
  %85 = getelementptr i32, i32* %83, i64 4, !dbg !1951
  %86 = bitcast i32* %85 to <4 x i32>*, !dbg !1951
  store <4 x i32> %wide.load233, <4 x i32>* %86, align 4, !dbg !1951, !tbaa !1525, !alias.scope !1959, !noalias !1956
  %index.next = add i64 %index, 8, !dbg !1952
  %87 = icmp eq i64 %index.next, %n.vec, !dbg !1952
  br i1 %87, label %middle.block, label %vector.body, !dbg !1952, !llvm.loop !1961

middle.block:                                     ; preds = %vector.body
  %cmp.n = icmp eq i32 %77, 0
  br i1 %cmp.n, label %for.cond57.preheader.loopexit, label %for.body49.preheader234, !dbg !1949

for.cond57.preheader.loopexit.loopexit.unr-lcssa: ; preds = %for.body49
  br label %for.cond57.preheader.loopexit.loopexit, !dbg !1949

for.cond57.preheader.loopexit.loopexit:           ; preds = %for.body49.prol.loopexit, %for.cond57.preheader.loopexit.loopexit.unr-lcssa
  br label %for.cond57.preheader.loopexit, !dbg !1949

for.cond57.preheader.loopexit:                    ; preds = %for.cond57.preheader.loopexit.loopexit, %middle.block
  %88 = add i32 %net_itemno.0, 1, !dbg !1949
  br label %for.cond57.preheader, !dbg !1918

for.cond57.preheader:                             ; preds = %for.cond57.preheader.loopexit, %if.then44
  %j.1.lcssa = phi i32 [ 0, %if.then44 ], [ %88, %for.cond57.preheader.loopexit ]
  tail call void @llvm.dbg.value(metadata i32 %j.1.lcssa, i64 0, metadata !1819, metadata !1520), !dbg !1918
  %cmp58212 = icmp slt i32 %j.1.lcssa, %mul45, !dbg !1966
  br i1 %cmp58212, label %for.body59.lr.ph, label %for.end64, !dbg !1970

for.body59.lr.ph:                                 ; preds = %for.cond57.preheader
  %89 = sext i32 %j.1.lcssa to i64, !dbg !1970
  %90 = shl nsw i64 %89, 2, !dbg !1970
  %scevgep = getelementptr i8, i8* %call46, i64 %90, !dbg !1970
  %91 = add i32 %j.1.lcssa, 1, !dbg !1970
  %92 = icmp sgt i32 %mul45, %91, !dbg !1970
  %smax = select i1 %92, i32 %mul45, i32 %91, !dbg !1970
  %93 = add i32 %smax, -1, !dbg !1970
  %94 = sub i32 %93, %j.1.lcssa, !dbg !1970
  %95 = zext i32 %94 to i64, !dbg !1970
  %96 = shl nuw nsw i64 %95, 2, !dbg !1970
  %97 = add nuw nsw i64 %96, 4, !dbg !1970
  call void @llvm.memset.p0i8.i64(i8* %scevgep, i8 0, i64 %97, i32 4, i1 false), !dbg !1972
  br label %for.end64, !dbg !1973

for.body49:                                       ; preds = %for.body49, %for.body49.preheader234.new
  %indvars.iv219 = phi i64 [ %indvars.iv219.unr, %for.body49.preheader234.new ], [ %indvars.iv.next220.7, %for.body49 ]
  %arrayidx51 = getelementptr inbounds i32, i32* %counts.0, i64 %indvars.iv219, !dbg !1949
  %base.arrayidx51 = bitcast i32* %arrayidx51 to i8*, !dbg !1949
  call void @llvm.x86.bndclrr(x86_bnd %bnd_phi.counts.0, i8* %base.arrayidx51), !dbg !1949
  %98 = load i32, i32* %arrayidx51, align 4, !dbg !1949, !tbaa !1525
  %arrayidx53 = getelementptr inbounds i32, i32* %70, i64 %indvars.iv219, !dbg !1950
  store i32 %98, i32* %arrayidx53, align 4, !dbg !1951, !tbaa !1525
  %indvars.iv.next220 = add nuw nsw i64 %indvars.iv219, 1, !dbg !1952
  %arrayidx51.1 = getelementptr inbounds i32, i32* %counts.0, i64 %indvars.iv.next220, !dbg !1949
  %base.arrayidx51.1 = bitcast i32* %arrayidx51.1 to i8*, !dbg !1949
  call void @llvm.x86.bndclrr(x86_bnd %bnd_phi.counts.0, i8* %base.arrayidx51.1), !dbg !1949
  call void @llvm.x86.bndcurm(x86_bnd %bnd_phi.counts.0, i8* %base.arrayidx51.1, i64 0, i8 1, i32 3), !dbg !1949
  %99 = load i32, i32* %arrayidx51.1, align 4, !dbg !1949, !tbaa !1525
  %arrayidx53.1 = getelementptr inbounds i32, i32* %70, i64 %indvars.iv.next220, !dbg !1950
  store i32 %99, i32* %arrayidx53.1, align 4, !dbg !1951, !tbaa !1525
  %indvars.iv.next220.1 = add nsw i64 %indvars.iv219, 2, !dbg !1952
  %arrayidx51.2 = getelementptr inbounds i32, i32* %counts.0, i64 %indvars.iv.next220.1, !dbg !1949
  %base.arrayidx51.2 = bitcast i32* %arrayidx51.2 to i8*, !dbg !1949
  call void @llvm.x86.bndclrr(x86_bnd %bnd_phi.counts.0, i8* %base.arrayidx51.2), !dbg !1949
  call void @llvm.x86.bndcurm(x86_bnd %bnd_phi.counts.0, i8* %base.arrayidx51.2, i64 0, i8 1, i32 3), !dbg !1949
  %100 = load i32, i32* %arrayidx51.2, align 4, !dbg !1949, !tbaa !1525
  %arrayidx53.2 = getelementptr inbounds i32, i32* %70, i64 %indvars.iv.next220.1, !dbg !1950
  store i32 %100, i32* %arrayidx53.2, align 4, !dbg !1951, !tbaa !1525
  %indvars.iv.next220.2 = add nsw i64 %indvars.iv219, 3, !dbg !1952
  %arrayidx51.3 = getelementptr inbounds i32, i32* %counts.0, i64 %indvars.iv.next220.2, !dbg !1949
  %base.arrayidx51.3 = bitcast i32* %arrayidx51.3 to i8*, !dbg !1949
  call void @llvm.x86.bndclrr(x86_bnd %bnd_phi.counts.0, i8* %base.arrayidx51.3), !dbg !1949
  call void @llvm.x86.bndcurm(x86_bnd %bnd_phi.counts.0, i8* %base.arrayidx51.3, i64 0, i8 1, i32 3), !dbg !1949
  %101 = load i32, i32* %arrayidx51.3, align 4, !dbg !1949, !tbaa !1525
  %arrayidx53.3 = getelementptr inbounds i32, i32* %70, i64 %indvars.iv.next220.2, !dbg !1950
  store i32 %101, i32* %arrayidx53.3, align 4, !dbg !1951, !tbaa !1525
  %indvars.iv.next220.3 = add nsw i64 %indvars.iv219, 4, !dbg !1952
  %arrayidx51.4 = getelementptr inbounds i32, i32* %counts.0, i64 %indvars.iv.next220.3, !dbg !1949
  %base.arrayidx51.4 = bitcast i32* %arrayidx51.4 to i8*, !dbg !1949
  call void @llvm.x86.bndclrr(x86_bnd %bnd_phi.counts.0, i8* %base.arrayidx51.4), !dbg !1949
  call void @llvm.x86.bndcurm(x86_bnd %bnd_phi.counts.0, i8* %base.arrayidx51.4, i64 0, i8 1, i32 3), !dbg !1949
  %102 = load i32, i32* %arrayidx51.4, align 4, !dbg !1949, !tbaa !1525
  %arrayidx53.4 = getelementptr inbounds i32, i32* %70, i64 %indvars.iv.next220.3, !dbg !1950
  store i32 %102, i32* %arrayidx53.4, align 4, !dbg !1951, !tbaa !1525
  %indvars.iv.next220.4 = add nsw i64 %indvars.iv219, 5, !dbg !1952
  %arrayidx51.5 = getelementptr inbounds i32, i32* %counts.0, i64 %indvars.iv.next220.4, !dbg !1949
  %base.arrayidx51.5 = bitcast i32* %arrayidx51.5 to i8*, !dbg !1949
  call void @llvm.x86.bndclrr(x86_bnd %bnd_phi.counts.0, i8* %base.arrayidx51.5), !dbg !1949
  call void @llvm.x86.bndcurm(x86_bnd %bnd_phi.counts.0, i8* %base.arrayidx51.5, i64 0, i8 1, i32 3), !dbg !1949
  %103 = load i32, i32* %arrayidx51.5, align 4, !dbg !1949, !tbaa !1525
  %arrayidx53.5 = getelementptr inbounds i32, i32* %70, i64 %indvars.iv.next220.4, !dbg !1950
  store i32 %103, i32* %arrayidx53.5, align 4, !dbg !1951, !tbaa !1525
  %indvars.iv.next220.5 = add nsw i64 %indvars.iv219, 6, !dbg !1952
  %arrayidx51.6 = getelementptr inbounds i32, i32* %counts.0, i64 %indvars.iv.next220.5, !dbg !1949
  %base.arrayidx51.6 = bitcast i32* %arrayidx51.6 to i8*, !dbg !1949
  call void @llvm.x86.bndclrr(x86_bnd %bnd_phi.counts.0, i8* %base.arrayidx51.6), !dbg !1949
  call void @llvm.x86.bndcurm(x86_bnd %bnd_phi.counts.0, i8* %base.arrayidx51.6, i64 0, i8 1, i32 3), !dbg !1949
  %104 = load i32, i32* %arrayidx51.6, align 4, !dbg !1949, !tbaa !1525
  %arrayidx53.6 = getelementptr inbounds i32, i32* %70, i64 %indvars.iv.next220.5, !dbg !1950
  store i32 %104, i32* %arrayidx53.6, align 4, !dbg !1951, !tbaa !1525
  %indvars.iv.next220.6 = add nsw i64 %indvars.iv219, 7, !dbg !1952
  %arrayidx51.7 = getelementptr inbounds i32, i32* %counts.0, i64 %indvars.iv.next220.6, !dbg !1949
  %base.arrayidx51.7 = bitcast i32* %arrayidx51.7 to i8*, !dbg !1949
  call void @llvm.x86.bndclrr(x86_bnd %bnd_phi.counts.0, i8* %base.arrayidx51.7), !dbg !1949
  %105 = load i32, i32* %arrayidx51.7, align 4, !dbg !1949, !tbaa !1525
  %arrayidx53.7 = getelementptr inbounds i32, i32* %70, i64 %indvars.iv.next220.6, !dbg !1950
  store i32 %105, i32* %arrayidx53.7, align 4, !dbg !1951, !tbaa !1525
  %indvars.iv.next220.7 = add nsw i64 %indvars.iv219, 8, !dbg !1952
  %exitcond.7 = icmp eq i64 %indvars.iv.next220.7, %wide.trip.count, !dbg !1943
  br i1 %exitcond.7, label %for.cond57.preheader.loopexit.loopexit.unr-lcssa, label %for.body49, !dbg !1947, !llvm.loop !1974

for.end64:                                        ; preds = %for.body59.lr.ph, %for.cond57.preheader
  %isnull = icmp eq i32* %counts.0, null, !dbg !1973
  br i1 %isnull, label %if.end68, label %delete.notnull, !dbg !1973

delete.notnull:                                   ; preds = %for.end64
  tail call void @_ZdaPv(i8* %33) #16, !dbg !1975
  br label %if.end68, !dbg !1975

if.else:                                          ; preds = %if.end
  %cmp65 = icmp slt i32 %net_itemno.0, %add, !dbg !1977
  tail call void @llvm.dbg.value(metadata i32 undef, i64 0, metadata !1815, metadata !1520), !dbg !1867
  %item.0.net_itemno.0 = select i1 %cmp65, i32 %add, i32 %net_itemno.0, !dbg !1979
  br label %if.end68, !dbg !1979

if.end68:                                         ; preds = %if.else, %for.end64, %delete.notnull
  %net_itemno.1 = phi i32 [ %add, %delete.notnull ], [ %add, %for.end64 ], [ %item.0.net_itemno.0, %if.else ]
  %106 = phi i8* [ %call46, %delete.notnull ], [ %call46, %for.end64 ], [ %33, %if.else ]
  %bnd_phi.9 = phi x86_bnd [ %inf_bnd, %delete.notnull ], [ %inf_bnd, %for.end64 ], [ %bnd_phi., %if.else ]
  %107 = phi i8* [ %call46, %delete.notnull ], [ %call46, %for.end64 ], [ %34, %if.else ]
  %bnd_phi.12 = phi x86_bnd [ %inf_bnd, %delete.notnull ], [ %inf_bnd, %for.end64 ], [ %bnd_phi.10, %if.else ]
  %counts.1 = phi i32* [ %70, %delete.notnull ], [ %70, %for.end64 ], [ %counts.0, %if.else ]
  %bnd_phi.counts.1 = phi x86_bnd [ %inf_bnd, %delete.notnull ], [ %inf_bnd, %for.end64 ], [ %bnd_phi.counts.0, %if.else ]
  tail call void @llvm.dbg.value(metadata i32* %counts.1, i64 0, metadata !1808, metadata !1520), !dbg !1871
  tail call void @llvm.dbg.value(metadata i32 %net_itemno.1, i64 0, metadata !1815, metadata !1520), !dbg !1867
  %idxprom69 = sext i32 %add to i64, !dbg !1980
  %arrayidx70 = getelementptr inbounds i32, i32* %counts.1, i64 %idxprom69, !dbg !1980
  %base.arrayidx70 = bitcast i32* %arrayidx70 to i8*, !dbg !1981
  call void @llvm.x86.bndclrr(x86_bnd %bnd_phi.counts.1, i8* %base.arrayidx70), !dbg !1981
  call void @llvm.x86.bndcurm(x86_bnd %bnd_phi.counts.1, i8* %base.arrayidx70, i64 0, i8 1, i32 3), !dbg !1981
  %108 = load i32, i32* %arrayidx70, align 4, !dbg !1981, !tbaa !1525
  %inc71 = add nsw i32 %108, 1, !dbg !1981
  %base.arrayidx7026 = bitcast i32* %arrayidx70 to i8*, !dbg !1981
  call void @llvm.x86.bndclrr(x86_bnd %bnd_phi.counts.1, i8* %base.arrayidx7026), !dbg !1981
  store i32 %inc71, i32* %arrayidx70, align 4, !dbg !1981, !tbaa !1525
  br label %if.end72, !dbg !1982

if.end72:                                         ; preds = %while.cond, %if.end68
  %conv9.lcssa227 = phi i32 [ %conv9, %if.end68 ], [ %conv9195, %while.cond ]
  %TransactionContent.2 = phi i32* [ %TransactionContent.1, %if.end68 ], [ %TransactionContent.0, %while.cond ]
  %bnd_phi.TransactionContent.2 = phi x86_bnd [ %bnd_phi.TransactionContent.1, %if.end68 ], [ %bnd_phi.TransactionContent.0, %while.cond ]
  %length.3 = phi i32 [ %inc42, %if.end68 ], [ %length.0, %while.cond ]
  %current_mapfilenode.2 = phi %class.MapFileNode* [ %current_mapfilenode.1, %if.end68 ], [ %current_mapfilenode.0, %while.cond ]
  %bnd_phi.current_mapfilenode.2 = phi x86_bnd [ %bnd_phi.current_mapfilenode.1, %if.end68 ], [ %bnd_phi.current_mapfilenode.0, %while.cond ]
  %net_itemno.2 = phi i32 [ %net_itemno.1, %if.end68 ], [ %net_itemno.0, %while.cond ]
  %109 = phi i8* [ %106, %if.end68 ], [ %33, %while.cond ]
  %bnd_phi.8 = phi x86_bnd [ %bnd_phi.9, %if.end68 ], [ %bnd_phi., %while.cond ]
  %110 = phi i8* [ %107, %if.end68 ], [ %34, %while.cond ]
  %bnd_phi.11 = phi x86_bnd [ %bnd_phi.12, %if.end68 ], [ %bnd_phi.10, %while.cond ]
  %counts.2 = phi i32* [ %counts.1, %if.end68 ], [ %counts.0, %while.cond ]
  %bnd_phi.counts.2 = phi x86_bnd [ %bnd_phi.counts.1, %if.end68 ], [ %bnd_phi.counts.0, %while.cond ]
  tail call void @llvm.dbg.value(metadata i32* %counts.2, i64 0, metadata !1808, metadata !1520), !dbg !1871
  tail call void @llvm.dbg.value(metadata i32 %net_itemno.2, i64 0, metadata !1815, metadata !1520), !dbg !1867
  tail call void @llvm.dbg.value(metadata %class.MapFileNode* %current_mapfilenode.2, i64 0, metadata !1809, metadata !1520), !dbg !1832
  tail call void @llvm.dbg.value(metadata i32 %length.3, i64 0, metadata !1813, metadata !1520), !dbg !1865
  tail call void @llvm.dbg.value(metadata i32* %TransactionContent.2, i64 0, metadata !1811, metadata !1520), !dbg !1864
  %cmp74 = icmp eq i32 %conv9.lcssa227, 10, !dbg !1983
  br i1 %cmp74, label %if.then75, label %if.else91, !dbg !1985

if.then75:                                        ; preds = %if.end72
  %cmp76 = icmp eq i32 %length.3, 100000, !dbg !1986
  br i1 %cmp76, label %if.then77, label %if.end86, !dbg !1989

if.then77:                                        ; preds = %if.then75
  %top78 = getelementptr inbounds %class.MapFileNode, %class.MapFileNode* %current_mapfilenode.2, i64 0, i32 2, !dbg !1990
  %base.top78 = bitcast %class.MapFileNode* %current_mapfilenode.2 to i8*, !dbg !1992
  call void @llvm.x86.bndclrm(x86_bnd %bnd_phi.current_mapfilenode.2, i8* %base.top78, i64 0, i8 1, i32 12), !dbg !1992
  store i32 100000, i32* %top78, align 4, !dbg !1992, !tbaa !1852
  %111 = load %class.memory*, %class.memory** @database_buf, align 8, !dbg !1993, !tbaa !1536
  %112 = load x86_bnd, x86_bnd* bitcast ([2 x i64]* @llmpx_bnd_infinite to x86_bnd*), !dbg !1994
  %113 = call %0 @_ZN6memory6newbufEjj(%class.memory* %111, i32 1, i32 40, x86_bnd %112), !dbg !1994
  %114 = extractvalue %0 %113, 0
  %115 = extractvalue %0 %113, 1
  %116 = bitcast i8* %114 to %class.MapFileNode*, !dbg !1995
  tail call void @llvm.dbg.value(metadata %class.MapFileNode* %116, i64 0, metadata !1809, metadata !1520), !dbg !1832
  tail call void @llvm.dbg.value(metadata %class.MapFileNode* %116, i64 0, metadata !1833, metadata !1520), !dbg !1996
  tail call void @llvm.dbg.value(metadata i32 100000, i64 0, metadata !1836, metadata !1520), !dbg !1998
  tail call void @llvm.dbg.value(metadata i32 1, i64 0, metadata !1837, metadata !1520), !dbg !1999
  %size.i189 = getelementptr inbounds i8, i8* %114, i64 8, !dbg !2000
  %117 = bitcast i8* %size.i189 to i32*, !dbg !2000
  %base.27 = bitcast i32* %117 to i8*, !dbg !2001
  call void @llvm.x86.bndclrr(x86_bnd %115, i8* %base.27), !dbg !2001
  call void @llvm.x86.bndcurm(x86_bnd %115, i8* %base.27, i64 0, i8 1, i32 3), !dbg !2001
  store i32 100000, i32* %117, align 8, !dbg !2001, !tbaa !1844
  %118 = bitcast i32* %117 to i8*, !dbg !2002
  %call.i190 = tail call i8* @_Znam(i64 400000) #15, !dbg !2002
  %119 = bitcast i8* %114 to i8**, !dbg !2003
  %base.28 = bitcast i8** %119 to i8*, !dbg !2003
  call void @llvm.x86.bndclrr(x86_bnd %115, i8* %base.28), !dbg !2003
  store i8* %call.i190, i8** %119, align 8, !dbg !2003, !tbaa !1848
  %120 = bitcast i8** %119 to i8*, !dbg !2004
  %base.29 = bitcast i32* %117 to i8*, !dbg !2004
  call void @llvm.x86.bndclrr(x86_bnd %115, i8* %base.29), !dbg !2004
  call void @llvm.x86.bndcurm(x86_bnd %115, i8* %base.29, i64 0, i8 1, i32 3), !dbg !2004
  store i32 100000, i32* %117, align 8, !dbg !2004, !tbaa !1844
  %121 = bitcast i32* %117 to i8*, !dbg !2005
  %top.i191 = getelementptr inbounds i8, i8* %114, i64 12, !dbg !2005
  %122 = bitcast i8* %top.i191 to i32*, !dbg !2005
  %base.30 = bitcast i32* %122 to i8*, !dbg !2006
  call void @llvm.x86.bndclrr(x86_bnd %115, i8* %base.30), !dbg !2006
  call void @llvm.x86.bndcurm(x86_bnd %115, i8* %base.30, i64 0, i8 1, i32 3), !dbg !2006
  store i32 0, i32* %122, align 4, !dbg !2006, !tbaa !1852
  %123 = bitcast i32* %122 to i8*, !dbg !2007
  %base.31 = bitcast i64* %13 to i8*, !dbg !2007
  call void @llvm.x86.bndclrr(x86_bnd %mapfile.bnd, i8* %base.31), !dbg !2007
  call void @llvm.x86.bndcurm(x86_bnd %mapfile.bnd, i8* %base.31, i64 0, i8 1, i32 7), !dbg !2007
  %124 = load i64, i64* %13, align 8, !dbg !2007, !tbaa !1854
  %next81 = getelementptr inbounds i8, i8* %114, i64 32, !dbg !2008
  %125 = bitcast i8* %next81 to i64*, !dbg !2009
  %base.32 = bitcast i64* %125 to i8*, !dbg !2009
  call void @llvm.x86.bndclrr(x86_bnd %115, i8* %base.32), !dbg !2009
  store i64 %124, i64* %125, align 8, !dbg !2009, !tbaa !1858
  %126 = bitcast i64* %125 to i8*, !dbg !2010
  %127 = inttoptr i64 %124 to i8*, !dbg !2010
  %base.33 = bitcast i8** %18 to i8*, !dbg !2010
  call void @llvm.x86.bndclrr(x86_bnd %mapfile.bnd, i8* %base.33), !dbg !2010
  call void @llvm.x86.bndcurm(x86_bnd %mapfile.bnd, i8* %base.33, i64 0, i8 1, i32 7), !dbg !2010
  store i8* %114, i8** %18, align 8, !dbg !2010, !tbaa !1854
  %128 = bitcast i8** %18 to i8*, !dbg !2011
  call void @llvm.x86.bndstx(i8* %128, i8* %114, i32 0, x86_bnd %115)
  %base.tablesize34 = bitcast %class.MapFile* %mapfile to i8*, !dbg !2011
  call void @llvm.x86.bndclrm(x86_bnd %mapfile.bnd, i8* %base.tablesize34, i64 0, i8 1, i32 56), !dbg !2011
  call void @llvm.x86.bndcurm(x86_bnd %mapfile.bnd, i8* %base.tablesize34, i64 0, i8 1, i32 59), !dbg !2011
  %129 = load i32, i32* %tablesize, align 8, !dbg !2011, !tbaa !1862
  %inc84 = add nsw i32 %129, 1, !dbg !2011
  %base.tablesize35 = bitcast %class.MapFile* %mapfile to i8*, !dbg !2011
  call void @llvm.x86.bndclrm(x86_bnd %mapfile.bnd, i8* %base.tablesize35, i64 0, i8 1, i32 56), !dbg !2011
  store i32 %inc84, i32* %tablesize, align 8, !dbg !2011, !tbaa !1862
  %130 = bitcast i8* %call.i190 to i32*, !dbg !2012
  tail call void @llvm.dbg.value(metadata i32* %130, i64 0, metadata !1811, metadata !1520), !dbg !1864
  tail call void @llvm.dbg.value(metadata i32 0, i64 0, metadata !1813, metadata !1520), !dbg !1865
  br label %if.end86, !dbg !2013

if.end86:                                         ; preds = %if.then77, %if.then75
  %TransactionContent.3 = phi i32* [ %130, %if.then77 ], [ %TransactionContent.2, %if.then75 ]
  %bnd_phi.TransactionContent.3 = phi x86_bnd [ %inf_bnd, %if.then77 ], [ %bnd_phi.TransactionContent.2, %if.then75 ]
  %length.4 = phi i32 [ 0, %if.then77 ], [ %length.3, %if.then75 ]
  %current_mapfilenode.3 = phi %class.MapFileNode* [ %116, %if.then77 ], [ %current_mapfilenode.2, %if.then75 ]
  %bnd_phi.current_mapfilenode.3 = phi x86_bnd [ %115, %if.then77 ], [ %bnd_phi.current_mapfilenode.2, %if.then75 ]
  tail call void @llvm.dbg.value(metadata %class.MapFileNode* %current_mapfilenode.3, i64 0, metadata !1809, metadata !1520), !dbg !1832
  tail call void @llvm.dbg.value(metadata i32 %length.4, i64 0, metadata !1813, metadata !1520), !dbg !1865
  tail call void @llvm.dbg.value(metadata i32* %TransactionContent.3, i64 0, metadata !1811, metadata !1520), !dbg !1864
  %idxprom87 = sext i32 %length.4 to i64, !dbg !2014
  %arrayidx88 = getelementptr inbounds i32, i32* %TransactionContent.3, i64 %idxprom87, !dbg !2014
  %base.arrayidx88 = bitcast i32* %arrayidx88 to i8*, !dbg !2015
  call void @llvm.x86.bndclrr(x86_bnd %bnd_phi.TransactionContent.3, i8* %base.arrayidx88), !dbg !2015
  call void @llvm.x86.bndcurm(x86_bnd %bnd_phi.TransactionContent.3, i8* %base.arrayidx88, i64 0, i8 1, i32 3), !dbg !2015
  store i32 -1, i32* %arrayidx88, align 4, !dbg !2015, !tbaa !1525
  %inc89 = add nsw i32 %length.4, 1, !dbg !2016
  tail call void @llvm.dbg.value(metadata i32 %inc89, i64 0, metadata !1813, metadata !1520), !dbg !1865
  %131 = load i32, i32* @TRANSACTION_NO, align 4, !dbg !2017, !tbaa !1525
  %inc90 = add nsw i32 %131, 1, !dbg !2017
  store i32 %inc90, i32* @TRANSACTION_NO, align 4, !dbg !2017, !tbaa !1525
  br label %while.cond.backedge, !dbg !2018

while.cond.backedge:                              ; preds = %if.end86, %if.else91
  %TransactionContent.0.be = phi i32* [ %TransactionContent.3, %if.end86 ], [ %TransactionContent.2, %if.else91 ]
  %bnd_phi.TransactionContent.0.be = phi x86_bnd [ %bnd_phi.TransactionContent.3, %if.end86 ], [ %bnd_phi.TransactionContent.2, %if.else91 ]
  %length.0.be = phi i32 [ %inc89, %if.end86 ], [ %length.3, %if.else91 ]
  %current_mapfilenode.0.be = phi %class.MapFileNode* [ %current_mapfilenode.3, %if.end86 ], [ %current_mapfilenode.2, %if.else91 ]
  %bnd_phi.current_mapfilenode.0.be = phi x86_bnd [ %bnd_phi.current_mapfilenode.3, %if.end86 ], [ %bnd_phi.current_mapfilenode.2, %if.else91 ]
  br label %while.cond, !dbg !1871, !llvm.loop !2019

if.else91:                                        ; preds = %if.end72
  %base.in36 = bitcast %class.Data* %this to i8*, !dbg !2022
  call void @llvm.x86.bndclrm(x86_bnd %this.bnd, i8* %base.in36, i64 0, i8 1, i32 8), !dbg !2022
  call void @llvm.x86.bndcurm(x86_bnd %this.bnd, i8* %base.in36, i64 0, i8 1, i32 15), !dbg !2022
  %132 = load %struct._IO_FILE*, %struct._IO_FILE** %in, align 8, !dbg !2022, !tbaa !1677
  %castptr.in37 = bitcast %struct._IO_FILE** %in to i8*, !dbg !2024
  %castptrval38 = bitcast %struct._IO_FILE* %132 to i8*, !dbg !2024
  %call93 = tail call i32 @feof(%struct._IO_FILE* %132) #2, !dbg !2024
  %tobool94 = icmp eq i32 %call93, 0, !dbg !2024
  br i1 %tobool94, label %while.cond.backedge, label %if.then95, !dbg !2025

if.then95:                                        ; preds = %if.else91
  %base.in39 = bitcast %class.Data* %this to i8*, !dbg !2026
  call void @llvm.x86.bndclrm(x86_bnd %this.bnd, i8* %base.in39, i64 0, i8 1, i32 8), !dbg !2026
  call void @llvm.x86.bndcurm(x86_bnd %this.bnd, i8* %base.in39, i64 0, i8 1, i32 15), !dbg !2026
  %133 = load %struct._IO_FILE*, %struct._IO_FILE** %in, align 8, !dbg !2026, !tbaa !1677
  %castptr.in40 = bitcast %struct._IO_FILE** %in to i8*, !dbg !2028
  %castptrval41 = bitcast %struct._IO_FILE* %133 to i8*, !dbg !2028
  tail call void @rewind(%struct._IO_FILE* %133), !dbg !2028
  %134 = load i32, i32* @TRANSACTION_NO, align 4, !dbg !2029, !tbaa !1525
  %135 = getelementptr [26 x i8], [26 x i8]* @.str.1.4, i64 0, i64 0
  %call97 = tail call i32 (i8*, ...) @printf(i8* %135, i32 %134), !dbg !2030
  %top98 = getelementptr inbounds %class.MapFileNode, %class.MapFileNode* %current_mapfilenode.2, i64 0, i32 2, !dbg !2031
  %base.top98 = bitcast %class.MapFileNode* %current_mapfilenode.2 to i8*, !dbg !2032
  call void @llvm.x86.bndclrm(x86_bnd %bnd_phi.current_mapfilenode.2, i8* %base.top98, i64 0, i8 1, i32 12), !dbg !2032
  call void @llvm.x86.bndcurm(x86_bnd %bnd_phi.current_mapfilenode.2, i8* %base.top98, i64 0, i8 1, i32 15), !dbg !2032
  store i32 %length.3, i32* %top98, align 4, !dbg !2032, !tbaa !1852
  %add99 = add nsw i32 %net_itemno.2, 1, !dbg !2033
  store i32 %add99, i32* @ITEM_NO, align 4, !dbg !2034, !tbaa !1525
  %mrv = insertvalue %1 undef, i32* %counts.2, 0
  %mrv42 = insertvalue %1 %mrv, x86_bnd %bnd_phi.counts.2, 1
  ret %1 %mrv42
}

; Function Attrs: nounwind readnone
declare { i64, i1 } @llvm.umul.with.overflow.i64(i64, i64) #4

; Function Attrs: argmemonly nounwind
declare void @llvm.memset.p0i8.i64(i8* nocapture writeonly, i8, i64, i32, i1) #7

; Function Attrs: nounwind
declare i32 @getc(%struct._IO_FILE* nocapture) local_unnamed_addr #5

; Function Attrs: nounwind
declare i32 @feof(%struct._IO_FILE* nocapture) local_unnamed_addr #5

; Function Attrs: nounwind
declare void @rewind(%struct._IO_FILE* nocapture) local_unnamed_addr #5

define void @_ZN11MapFileNode4initEii(%class.MapFileNode* nocapture %this, i32 %SIZE, i32 %mul, x86_bnd %this.bnd) local_unnamed_addr align 2 {
entry:
  tail call void @llvm.dbg.value(metadata !1120, i64 0, metadata !1833, metadata !1520), !dbg !2035
  tail call void @llvm.dbg.value(metadata !1120, i64 0, metadata !1836, metadata !1520), !dbg !2036
  tail call void @llvm.dbg.value(metadata !1120, i64 0, metadata !1837, metadata !1520), !dbg !2037
  %size = getelementptr inbounds %class.MapFileNode, %class.MapFileNode* %this, i64 0, i32 1, !dbg !2038
  %base.size = bitcast %class.MapFileNode* %this to i8*, !dbg !2039
  call void @llvm.x86.bndclrm(x86_bnd %this.bnd, i8* %base.size, i64 0, i8 1, i32 8), !dbg !2039
  call void @llvm.x86.bndcurm(x86_bnd %this.bnd, i8* %base.size, i64 0, i8 1, i32 11), !dbg !2039
  store i32 %SIZE, i32* %size, align 8, !dbg !2039, !tbaa !1844
  %0 = sext i32 %SIZE to i64, !dbg !2040
  %1 = tail call { i64, i1 } @llvm.umul.with.overflow.i64(i64 %0, i64 4), !dbg !2040
  %2 = extractvalue { i64, i1 } %1, 1, !dbg !2040
  %3 = extractvalue { i64, i1 } %1, 0, !dbg !2040
  %4 = select i1 %2, i64 -1, i64 %3, !dbg !2040
  %call = tail call i8* @_Znam(i64 %4) #15, !dbg !2040
  %5 = bitcast %class.MapFileNode* %this to i8**, !dbg !2041
  %base. = bitcast i8** %5 to i8*, !dbg !2041
  call void @llvm.x86.bndclrr(x86_bnd %this.bnd, i8* %base.), !dbg !2041
  call void @llvm.x86.bndcurm(x86_bnd %this.bnd, i8* %base., i64 0, i8 1, i32 7), !dbg !2041
  store i8* %call, i8** %5, align 8, !dbg !2041, !tbaa !1848
  %6 = bitcast i8** %5 to i8*, !dbg !2042
  %mul4 = mul nsw i32 %SIZE, %mul, !dbg !2042
  %base.size1 = bitcast %class.MapFileNode* %this to i8*, !dbg !2042
  call void @llvm.x86.bndclrm(x86_bnd %this.bnd, i8* %base.size1, i64 0, i8 1, i32 8), !dbg !2042
  call void @llvm.x86.bndcurm(x86_bnd %this.bnd, i8* %base.size1, i64 0, i8 1, i32 11), !dbg !2042
  store i32 %mul4, i32* %size, align 8, !dbg !2042, !tbaa !1844
  %top = getelementptr inbounds %class.MapFileNode, %class.MapFileNode* %this, i64 0, i32 2, !dbg !2043
  %base.top = bitcast %class.MapFileNode* %this to i8*, !dbg !2044
  call void @llvm.x86.bndclrm(x86_bnd %this.bnd, i8* %base.top, i64 0, i8 1, i32 12), !dbg !2044
  store i32 0, i32* %top, align 4, !dbg !2044, !tbaa !1852
  ret void, !dbg !2045
}

define void @_ZN11MapFileNode8finalizeEv(%class.MapFileNode* nocapture readonly %this, x86_bnd %this.bnd) local_unnamed_addr align 2 {
entry:
  tail call void @llvm.dbg.value(metadata !1120, i64 0, metadata !2046, metadata !1520), !dbg !2049
  %TransactionContent = getelementptr inbounds %class.MapFileNode, %class.MapFileNode* %this, i64 0, i32 0, !dbg !2050
  %base.TransactionContent = bitcast %class.MapFileNode* %this to i8*, !dbg !2050
  call void @llvm.x86.bndclrm(x86_bnd %this.bnd, i8* %base.TransactionContent, i64 0, i8 1, i32 0), !dbg !2050
  call void @llvm.x86.bndcurm(x86_bnd %this.bnd, i8* %base.TransactionContent, i64 0, i8 1, i32 7), !dbg !2050
  %0 = load i32*, i32** %TransactionContent, align 8, !dbg !2050, !tbaa !1848
  %castptr.TransactionContent = bitcast i32** %TransactionContent to i8*, !dbg !2051
  %castptrval = bitcast i32* %0 to i8*, !dbg !2051
  %isnull = icmp eq i32* %0, null, !dbg !2051
  br i1 %isnull, label %delete.end, label %delete.notnull, !dbg !2051

delete.notnull:                                   ; preds = %entry
  %1 = bitcast i32* %0 to i8*, !dbg !2052
  tail call void @_ZdaPv(i8* %1) #16, !dbg !2052
  br label %delete.end, !dbg !2052

delete.end:                                       ; preds = %delete.notnull, %entry
  ret void, !dbg !2054
}

define void @_ZN7MapFile4initEv(%class.MapFile* nocapture %this, x86_bnd %this.bnd) local_unnamed_addr align 2 {
entry:
  tail call void @llvm.dbg.value(metadata !1120, i64 0, metadata !2055, metadata !1520), !dbg !2058
  %first = getelementptr inbounds %class.MapFile, %class.MapFile* %this, i64 0, i32 0, !dbg !2059
  %base.first = bitcast %class.MapFile* %this to i8*, !dbg !2060
  call void @llvm.x86.bndclrm(x86_bnd %this.bnd, i8* %base.first, i64 0, i8 1, i32 0), !dbg !2060
  call void @llvm.x86.bndcurm(x86_bnd %this.bnd, i8* %base.first, i64 0, i8 1, i32 7), !dbg !2060
  store %class.MapFileNode* null, %class.MapFileNode** %first, align 8, !dbg !2060, !tbaa !1854
  %0 = bitcast %class.MapFileNode** %first to i8*, !dbg !2061
  %tablesize = getelementptr inbounds %class.MapFile, %class.MapFile* %this, i64 0, i32 7, !dbg !2061
  %base.tablesize = bitcast %class.MapFile* %this to i8*, !dbg !2062
  call void @llvm.x86.bndclrm(x86_bnd %this.bnd, i8* %base.tablesize, i64 0, i8 1, i32 56), !dbg !2062
  store i32 0, i32* %tablesize, align 8, !dbg !2062, !tbaa !1862
  ret void, !dbg !2063
}

define void @_ZN7MapFile20transform_list_tableEv(%class.MapFile* nocapture %this, x86_bnd %this.bnd) local_unnamed_addr align 2 {
entry:
  tail call void @llvm.dbg.value(metadata !1120, i64 0, metadata !2064, metadata !1520), !dbg !2069
  %0 = load %class.memory*, %class.memory** @database_buf, align 8, !dbg !2070, !tbaa !1536
  %1 = load x86_bnd, x86_bnd* bitcast ([2 x i64]* @llmpx_bnd_infinite to x86_bnd*), !dbg !2071
  %tablesize = getelementptr inbounds %class.MapFile, %class.MapFile* %this, i64 0, i32 7, !dbg !2071
  %base.tablesize = bitcast %class.MapFile* %this to i8*, !dbg !2071
  call void @llvm.x86.bndclrm(x86_bnd %this.bnd, i8* %base.tablesize, i64 0, i8 1, i32 56), !dbg !2071
  call void @llvm.x86.bndcurm(x86_bnd %this.bnd, i8* %base.tablesize, i64 0, i8 1, i32 59), !dbg !2071
  %2 = load i32, i32* %tablesize, align 8, !dbg !2071, !tbaa !1862
  %mul = shl i32 %2, 3, !dbg !2072
  %3 = call %0 @_ZN6memory6newbufEjj(%class.memory* %0, i32 1, i32 %mul, x86_bnd %1), !dbg !2073
  %4 = extractvalue %0 %3, 0
  %5 = extractvalue %0 %3, 1
  %table = getelementptr inbounds %class.MapFile, %class.MapFile* %this, i64 0, i32 1, !dbg !2074
  %6 = bitcast %class.MapFileNode*** %table to i8**, !dbg !2075
  %base. = bitcast i8** %6 to i8*, !dbg !2075
  call void @llvm.x86.bndclrr(x86_bnd %this.bnd, i8* %base.), !dbg !2075
  store i8* %4, i8** %6, align 8, !dbg !2075, !tbaa !2076
  %7 = bitcast i8** %6 to i8*, !dbg !2077
  call void @llvm.x86.bndstx(i8* %7, i8* %4, i32 0, x86_bnd %5)
  tail call void @llvm.dbg.value(metadata i32 0, i64 0, metadata !2068, metadata !1520), !dbg !2077
  %first = getelementptr inbounds %class.MapFile, %class.MapFile* %this, i64 0, i32 0, !dbg !2078
  %base.first = bitcast %class.MapFile* %this to i8*
  call void @llvm.x86.bndclrm(x86_bnd %this.bnd, i8* %base.first, i64 0, i8 1, i32 0)
  %current_node.09 = load %class.MapFileNode*, %class.MapFileNode** %first, align 8, !tbaa !1536
  %castptr.first = bitcast %class.MapFileNode** %first to i8*, !dbg !2077
  %castptrval.current_node.09 = bitcast %class.MapFileNode* %current_node.09 to i8*, !dbg !2077
  %8 = call x86_bnd @llvm.x86.bndldx(i8* %castptr.first, i8* %castptrval.current_node.09, i32 0)
  tail call void @llvm.dbg.value(metadata i32 0, i64 0, metadata !2068, metadata !1520), !dbg !2077
  tail call void @llvm.dbg.value(metadata %class.MapFileNode* %current_node.09, i64 0, metadata !2067, metadata !1520), !dbg !2079
  %tobool10 = icmp eq %class.MapFileNode* %current_node.09, null, !dbg !2080
  br i1 %tobool10, label %while.end, label %while.body.preheader, !dbg !2082

while.body.preheader:                             ; preds = %entry
  %9 = bitcast i8* %4 to %class.MapFileNode**, !dbg !2082
  %base.1 = bitcast %class.MapFileNode** %9 to i8*, !dbg !2083
  call void @llvm.x86.bndclrr(x86_bnd %5, i8* %base.1), !dbg !2083
  call void @llvm.x86.bndcurm(x86_bnd %5, i8* %base.1, i64 0, i8 1, i32 7), !dbg !2083
  store %class.MapFileNode* %current_node.09, %class.MapFileNode** %9, align 8, !dbg !2083, !tbaa !1536
  %10 = bitcast %class.MapFileNode** %9 to i8*, !dbg !2085
  %11 = bitcast %class.MapFileNode* %current_node.09 to i8*, !dbg !2085
  call void @llvm.x86.bndstx(i8* %10, i8* %11, i32 0, x86_bnd %8)
  %next13 = getelementptr inbounds %class.MapFileNode, %class.MapFileNode* %current_node.09, i64 0, i32 6, !dbg !2085
  %base.next13 = bitcast %class.MapFileNode* %current_node.09 to i8*
  call void @llvm.x86.bndclrm(x86_bnd %8, i8* %base.next13, i64 0, i8 1, i32 32)
  call void @llvm.x86.bndcurm(x86_bnd %8, i8* %base.next13, i64 0, i8 1, i32 39)
  %current_node.014 = load %class.MapFileNode*, %class.MapFileNode** %next13, align 8, !tbaa !1536
  %castptr.next13 = bitcast %class.MapFileNode** %next13 to i8*, !dbg !2079
  %castptrval.current_node.014 = bitcast %class.MapFileNode* %current_node.014 to i8*, !dbg !2079
  %12 = call x86_bnd @llvm.x86.bndldx(i8* %castptr.next13, i8* %castptrval.current_node.014, i32 0)
  tail call void @llvm.dbg.value(metadata %class.MapFileNode* %current_node.014, i64 0, metadata !2067, metadata !1520), !dbg !2079
  %tobool15 = icmp eq %class.MapFileNode* %current_node.014, null, !dbg !2080
  br i1 %tobool15, label %while.end, label %while.body.while.body_crit_edge.preheader, !dbg !2082, !llvm.loop !2086

while.body.while.body_crit_edge.preheader:        ; preds = %while.body.preheader
  br label %while.body.while.body_crit_edge, !dbg !2089

while.body.while.body_crit_edge:                  ; preds = %while.body.while.body_crit_edge.preheader, %while.body.while.body_crit_edge
  %current_node.017 = phi %class.MapFileNode* [ %current_node.0, %while.body.while.body_crit_edge ], [ %current_node.014, %while.body.while.body_crit_edge.preheader ]
  %bnd_phi.current_node.017 = phi x86_bnd [ %16, %while.body.while.body_crit_edge ], [ %12, %while.body.while.body_crit_edge.preheader ]
  %indvars.iv16 = phi i64 [ %indvars.iv.next, %while.body.while.body_crit_edge ], [ 0, %while.body.while.body_crit_edge.preheader ]
  %indvars.iv.next = add nuw i64 %indvars.iv16, 1, !dbg !2089
  %base.table = bitcast %class.MapFile* %this to i8*
  call void @llvm.x86.bndclrm(x86_bnd %this.bnd, i8* %base.table, i64 0, i8 1, i32 8)
  call void @llvm.x86.bndcurm(x86_bnd %this.bnd, i8* %base.table, i64 0, i8 1, i32 15)
  %.pre = load %class.MapFileNode**, %class.MapFileNode*** %table, align 8, !tbaa !2076
  %castptr.table = bitcast %class.MapFileNode*** %table to i8*, !dbg !2090
  %castptrval..pre = bitcast %class.MapFileNode** %.pre to i8*, !dbg !2090
  %13 = call x86_bnd @llvm.x86.bndldx(i8* %castptr.table, i8* %castptrval..pre, i32 0)
  %arrayidx = getelementptr inbounds %class.MapFileNode*, %class.MapFileNode** %.pre, i64 %indvars.iv.next, !dbg !2090
  %base.arrayidx = bitcast %class.MapFileNode** %arrayidx to i8*, !dbg !2083
  call void @llvm.x86.bndclrr(x86_bnd %13, i8* %base.arrayidx), !dbg !2083
  call void @llvm.x86.bndcurm(x86_bnd %13, i8* %base.arrayidx, i64 0, i8 1, i32 7), !dbg !2083
  store %class.MapFileNode* %current_node.017, %class.MapFileNode** %arrayidx, align 8, !dbg !2083, !tbaa !1536
  %14 = bitcast %class.MapFileNode** %arrayidx to i8*, !dbg !2085
  %15 = bitcast %class.MapFileNode* %current_node.017 to i8*, !dbg !2085
  call void @llvm.x86.bndstx(i8* %14, i8* %15, i32 0, x86_bnd %bnd_phi.current_node.017)
  %next = getelementptr inbounds %class.MapFileNode, %class.MapFileNode* %current_node.017, i64 0, i32 6, !dbg !2085
  %base.next = bitcast %class.MapFileNode* %current_node.017 to i8*
  call void @llvm.x86.bndclrm(x86_bnd %bnd_phi.current_node.017, i8* %base.next, i64 0, i8 1, i32 32)
  call void @llvm.x86.bndcurm(x86_bnd %bnd_phi.current_node.017, i8* %base.next, i64 0, i8 1, i32 39)
  %current_node.0 = load %class.MapFileNode*, %class.MapFileNode** %next, align 8, !tbaa !1536
  %castptr.next = bitcast %class.MapFileNode** %next to i8*, !dbg !2079
  %castptrval.current_node.0 = bitcast %class.MapFileNode* %current_node.0 to i8*, !dbg !2079
  %16 = call x86_bnd @llvm.x86.bndldx(i8* %castptr.next, i8* %castptrval.current_node.0, i32 0)
  tail call void @llvm.dbg.value(metadata %class.MapFileNode* %current_node.0, i64 0, metadata !2067, metadata !1520), !dbg !2079
  %tobool = icmp eq %class.MapFileNode* %current_node.0, null, !dbg !2080
  br i1 %tobool, label %while.end.loopexit, label %while.body.while.body_crit_edge, !dbg !2082, !llvm.loop !2086

while.end.loopexit:                               ; preds = %while.body.while.body_crit_edge
  br label %while.end, !dbg !2091

while.end:                                        ; preds = %while.end.loopexit, %while.body.preheader, %entry
  ret void, !dbg !2091
}

define void @_ZN7MapFile26alloc_work_between_threadsEi(%class.MapFile* nocapture %this, i32 %workingthread, x86_bnd %this.bnd) local_unnamed_addr align 2 {
entry:
  tail call void @llvm.dbg.value(metadata !1120, i64 0, metadata !2092, metadata !1520), !dbg !2105
  tail call void @llvm.dbg.value(metadata !1120, i64 0, metadata !2095, metadata !1520), !dbg !2106
  %tablesize = getelementptr inbounds %class.MapFile, %class.MapFile* %this, i64 0, i32 7, !dbg !2107
  %base.tablesize = bitcast %class.MapFile* %this to i8*, !dbg !2107
  call void @llvm.x86.bndclrm(x86_bnd %this.bnd, i8* %base.tablesize, i64 0, i8 1, i32 56), !dbg !2107
  call void @llvm.x86.bndcurm(x86_bnd %this.bnd, i8* %base.tablesize, i64 0, i8 1, i32 59), !dbg !2107
  %0 = load i32, i32* %tablesize, align 8, !dbg !2107, !tbaa !1862
  %1 = sext i32 %0 to i64, !dbg !2108
  %2 = tail call { i64, i1 } @llvm.umul.with.overflow.i64(i64 %1, i64 4), !dbg !2108
  %3 = extractvalue { i64, i1 } %2, 1, !dbg !2108
  %4 = extractvalue { i64, i1 } %2, 0, !dbg !2108
  %5 = select i1 %3, i64 -1, i64 %4, !dbg !2108
  %call = tail call i8* @_Znam(i64 %5) #15, !dbg !2108
  %6 = bitcast i8* %call to i32*, !dbg !2108
  tail call void @llvm.dbg.value(metadata i32* %6, i64 0, metadata !2104, metadata !1520), !dbg !2109
  %7 = load %class.memory*, %class.memory** @database_buf, align 8, !dbg !2110, !tbaa !1536
  %8 = load x86_bnd, x86_bnd* bitcast ([2 x i64]* @llmpx_bnd_infinite to x86_bnd*), !dbg !2111
  %shl = shl i32 %workingthread, 4, !dbg !2111
  %add = add nsw i32 %0, %shl, !dbg !2112
  %9 = call %0 @_ZN6memory6newbufEjj(%class.memory* %7, i32 1, i32 %add, x86_bnd %8), !dbg !2113
  %10 = extractvalue %0 %9, 0
  %11 = extractvalue %0 %9, 1
  %12 = bitcast i8* %10 to i32*, !dbg !2114
  %nodebegin = getelementptr inbounds %class.MapFile, %class.MapFile* %this, i64 0, i32 2, !dbg !2115
  %13 = bitcast i32** %nodebegin to i8**, !dbg !2116
  %base. = bitcast i8** %13 to i8*, !dbg !2116
  call void @llvm.x86.bndclrr(x86_bnd %this.bnd, i8* %base.), !dbg !2116
  call void @llvm.x86.bndcurm(x86_bnd %this.bnd, i8* %base., i64 0, i8 1, i32 7), !dbg !2116
  store i8* %10, i8** %13, align 8, !dbg !2116, !tbaa !2117
  %14 = bitcast i8** %13 to i8*, !dbg !2118
  call void @llvm.x86.bndstx(i8* %14, i8* %10, i32 0, x86_bnd %11)
  %idx.ext = sext i32 %workingthread to i64, !dbg !2118
  %add.ptr = getelementptr inbounds i32, i32* %12, i64 %idx.ext, !dbg !2118
  %nodeend = getelementptr inbounds %class.MapFile, %class.MapFile* %this, i64 0, i32 3, !dbg !2119
  %base.nodeend = bitcast %class.MapFile* %this to i8*, !dbg !2120
  call void @llvm.x86.bndclrm(x86_bnd %this.bnd, i8* %base.nodeend, i64 0, i8 1, i32 24), !dbg !2120
  call void @llvm.x86.bndcurm(x86_bnd %this.bnd, i8* %base.nodeend, i64 0, i8 1, i32 31), !dbg !2120
  store i32* %add.ptr, i32** %nodeend, align 8, !dbg !2120, !tbaa !2121
  %15 = bitcast i32** %nodeend to i8*, !dbg !2122
  %16 = bitcast i32* %add.ptr to i8*, !dbg !2122
  call void @llvm.x86.bndstx(i8* %15, i8* %16, i32 0, x86_bnd %11)
  %add.ptr7 = getelementptr inbounds i32, i32* %add.ptr, i64 %idx.ext, !dbg !2122
  %posbegin = getelementptr inbounds %class.MapFile, %class.MapFile* %this, i64 0, i32 4, !dbg !2123
  %base.posbegin = bitcast %class.MapFile* %this to i8*, !dbg !2124
  call void @llvm.x86.bndclrm(x86_bnd %this.bnd, i8* %base.posbegin, i64 0, i8 1, i32 32), !dbg !2124
  call void @llvm.x86.bndcurm(x86_bnd %this.bnd, i8* %base.posbegin, i64 0, i8 1, i32 39), !dbg !2124
  store i32* %add.ptr7, i32** %posbegin, align 8, !dbg !2124, !tbaa !2125
  %17 = bitcast i32** %posbegin to i8*, !dbg !2126
  %18 = bitcast i32* %add.ptr7 to i8*, !dbg !2126
  call void @llvm.x86.bndstx(i8* %17, i8* %18, i32 0, x86_bnd %11)
  %add.ptr10 = getelementptr inbounds i32, i32* %add.ptr7, i64 %idx.ext, !dbg !2126
  %posend = getelementptr inbounds %class.MapFile, %class.MapFile* %this, i64 0, i32 5, !dbg !2127
  %base.posend = bitcast %class.MapFile* %this to i8*, !dbg !2128
  call void @llvm.x86.bndclrm(x86_bnd %this.bnd, i8* %base.posend, i64 0, i8 1, i32 40), !dbg !2128
  call void @llvm.x86.bndcurm(x86_bnd %this.bnd, i8* %base.posend, i64 0, i8 1, i32 47), !dbg !2128
  store i32* %add.ptr10, i32** %posend, align 8, !dbg !2128, !tbaa !2129
  %19 = bitcast i32** %posend to i8*, !dbg !2130
  %20 = bitcast i32* %add.ptr10 to i8*, !dbg !2130
  call void @llvm.x86.bndstx(i8* %19, i8* %20, i32 0, x86_bnd %11)
  %add.ptr13 = getelementptr inbounds i32, i32* %add.ptr10, i64 %idx.ext, !dbg !2130
  %shareinfomap = getelementptr inbounds %class.MapFile, %class.MapFile* %this, i64 0, i32 6, !dbg !2131
  %21 = bitcast i8** %shareinfomap to i32**, !dbg !2132
  %base.1 = bitcast i32** %21 to i8*, !dbg !2132
  call void @llvm.x86.bndclrr(x86_bnd %this.bnd, i8* %base.1), !dbg !2132
  store i32* %add.ptr13, i32** %21, align 8, !dbg !2132, !tbaa !2133
  %22 = bitcast i32** %21 to i8*, !dbg !2134
  %23 = bitcast i32* %add.ptr13 to i8*, !dbg !2134
  call void @llvm.x86.bndstx(i8* %22, i8* %23, i32 0, x86_bnd %11)
  tail call void @llvm.dbg.value(metadata i32 0, i64 0, metadata !2097, metadata !1520), !dbg !2134
  tail call void @llvm.dbg.value(metadata i32 0, i64 0, metadata !2099, metadata !1520), !dbg !2135
  tail call void @llvm.dbg.value(metadata i32 0, i64 0, metadata !2097, metadata !1520), !dbg !2134
  tail call void @llvm.dbg.value(metadata i32 0, i64 0, metadata !2099, metadata !1520), !dbg !2135
  %base.tablesize2 = bitcast %class.MapFile* %this to i8*, !dbg !2136
  call void @llvm.x86.bndclrm(x86_bnd %this.bnd, i8* %base.tablesize2, i64 0, i8 1, i32 56), !dbg !2136
  %24 = load i32, i32* %tablesize, align 8, !dbg !2136, !tbaa !1862
  %cmp224 = icmp sgt i32 %24, 0, !dbg !2140
  br i1 %cmp224, label %for.body.lr.ph, label %entry.for.end_crit_edge, !dbg !2141

entry.for.end_crit_edge:                          ; preds = %entry
  %25 = bitcast i8* %10 to i32*, !dbg !2141
  %.pre235 = getelementptr inbounds %class.MapFile, %class.MapFile* %this, i64 0, i32 1, !dbg !2143
  br label %for.end, !dbg !2141

for.body.lr.ph:                                   ; preds = %entry
  %26 = bitcast i32* %add.ptr13 to i8*, !dbg !2141
  %table = getelementptr inbounds %class.MapFile, %class.MapFile* %this, i64 0, i32 1
  %base.table = bitcast %class.MapFile* %this to i8*, !dbg !2144
  call void @llvm.x86.bndclrm(x86_bnd %this.bnd, i8* %base.table, i64 0, i8 1, i32 8), !dbg !2144
  call void @llvm.x86.bndcurm(x86_bnd %this.bnd, i8* %base.table, i64 0, i8 1, i32 15), !dbg !2144
  %27 = load %class.MapFileNode**, %class.MapFileNode*** %table, align 8, !dbg !2144, !tbaa !2076
  %castptr.table = bitcast %class.MapFileNode*** %table to i8*, !dbg !2144
  %castptrval = bitcast %class.MapFileNode** %27 to i8*, !dbg !2144
  %28 = call x86_bnd @llvm.x86.bndldx(i8* %castptr.table, i8* %castptrval, i32 0)
  %base.3 = bitcast %class.MapFileNode** %27 to i8*, !dbg !2144
  call void @llvm.x86.bndclrr(x86_bnd %28, i8* %base.3), !dbg !2144
  %29 = load %class.MapFileNode*, %class.MapFileNode** %27, align 8, !dbg !2144, !tbaa !1536
  %castptr = bitcast %class.MapFileNode** %27 to i8*, !dbg !2146
  %castptrval4 = bitcast %class.MapFileNode* %29 to i8*, !dbg !2146
  %30 = call x86_bnd @llvm.x86.bndldx(i8* %castptr, i8* %castptrval4, i32 0)
  %top236 = getelementptr inbounds %class.MapFileNode, %class.MapFileNode* %29, i64 0, i32 2, !dbg !2146
  %base.top236 = bitcast %class.MapFileNode* %29 to i8*, !dbg !2146
  call void @llvm.x86.bndclrm(x86_bnd %30, i8* %base.top236, i64 0, i8 1, i32 12), !dbg !2146
  %31 = load i32, i32* %top236, align 4, !dbg !2146, !tbaa !1852
  tail call void @llvm.dbg.value(metadata i32 %31, i64 0, metadata !2097, metadata !1520), !dbg !2134
  store i32 %31, i32* %6, align 4, !dbg !2147, !tbaa !1525
  %32 = bitcast i32* %6 to i8*, !dbg !2148
  %33 = inttoptr i32 %31 to i8*, !dbg !2148
  call void @llvm.x86.bndclrr(x86_bnd %11, i8* %26), !dbg !2148
  store i8 0, i8* %26, align 1, !dbg !2148, !tbaa !2149
  tail call void @llvm.dbg.value(metadata i32 %31, i64 0, metadata !2097, metadata !1520), !dbg !2134
  %base.tablesize5 = bitcast %class.MapFile* %this to i8*, !dbg !2136
  call void @llvm.x86.bndclrm(x86_bnd %this.bnd, i8* %base.tablesize5, i64 0, i8 1, i32 56), !dbg !2136
  %34 = load i32, i32* %tablesize, align 8, !dbg !2136, !tbaa !1862
  %cmp237 = icmp sgt i32 %34, 1, !dbg !2140
  br i1 %cmp237, label %for.body.for.body_crit_edge.preheader, label %for.end.loopexit, !dbg !2141, !llvm.loop !2150

for.body.for.body_crit_edge.preheader:            ; preds = %for.body.lr.ph
  br label %for.body.for.body_crit_edge

for.body.for.body_crit_edge:                      ; preds = %for.body.for.body_crit_edge.preheader, %for.body.for.body_crit_edge
  %indvars.iv.next232239 = phi i64 [ %indvars.iv.next232, %for.body.for.body_crit_edge ], [ 1, %for.body.for.body_crit_edge.preheader ]
  %add15238 = phi i32 [ %add15, %for.body.for.body_crit_edge ], [ %31, %for.body.for.body_crit_edge.preheader ]
  %base.shareinfomap = bitcast %class.MapFile* %this to i8*
  call void @llvm.x86.bndclrm(x86_bnd %this.bnd, i8* %base.shareinfomap, i64 0, i8 1, i32 48)
  call void @llvm.x86.bndcurm(x86_bnd %this.bnd, i8* %base.shareinfomap, i64 0, i8 1, i32 55)
  %.pre = load i8*, i8** %shareinfomap, align 8, !tbaa !2133
  %castptr.shareinfomap = bitcast i8** %shareinfomap to i8*, !dbg !2144
  %35 = call x86_bnd @llvm.x86.bndldx(i8* %castptr.shareinfomap, i8* %.pre, i32 0)
  %base.table6 = bitcast %class.MapFile* %this to i8*, !dbg !2144
  call void @llvm.x86.bndclrm(x86_bnd %this.bnd, i8* %base.table6, i64 0, i8 1, i32 8), !dbg !2144
  call void @llvm.x86.bndcurm(x86_bnd %this.bnd, i8* %base.table6, i64 0, i8 1, i32 15), !dbg !2144
  %36 = load %class.MapFileNode**, %class.MapFileNode*** %table, align 8, !dbg !2144, !tbaa !2076
  %castptr.table7 = bitcast %class.MapFileNode*** %table to i8*, !dbg !2144
  %castptrval8 = bitcast %class.MapFileNode** %36 to i8*, !dbg !2144
  %37 = call x86_bnd @llvm.x86.bndldx(i8* %castptr.table7, i8* %castptrval8, i32 0)
  %arrayidx = getelementptr inbounds %class.MapFileNode*, %class.MapFileNode** %36, i64 %indvars.iv.next232239, !dbg !2144
  %base.arrayidx = bitcast %class.MapFileNode** %arrayidx to i8*, !dbg !2144
  call void @llvm.x86.bndclrr(x86_bnd %37, i8* %base.arrayidx), !dbg !2144
  %38 = load %class.MapFileNode*, %class.MapFileNode** %arrayidx, align 8, !dbg !2144, !tbaa !1536
  %castptr.arrayidx = bitcast %class.MapFileNode** %arrayidx to i8*, !dbg !2146
  %castptrval9 = bitcast %class.MapFileNode* %38 to i8*, !dbg !2146
  %39 = call x86_bnd @llvm.x86.bndldx(i8* %castptr.arrayidx, i8* %castptrval9, i32 0)
  %top = getelementptr inbounds %class.MapFileNode, %class.MapFileNode* %38, i64 0, i32 2, !dbg !2146
  %base.top = bitcast %class.MapFileNode* %38 to i8*, !dbg !2146
  call void @llvm.x86.bndclrm(x86_bnd %39, i8* %base.top, i64 0, i8 1, i32 12), !dbg !2146
  %40 = load i32, i32* %top, align 4, !dbg !2146, !tbaa !1852
  %add15 = add nsw i32 %40, %add15238, !dbg !2153
  tail call void @llvm.dbg.value(metadata i32 %add15, i64 0, metadata !2097, metadata !1520), !dbg !2134
  %arrayidx21 = getelementptr inbounds i32, i32* %6, i64 %indvars.iv.next232239, !dbg !2154
  store i32 %40, i32* %arrayidx21, align 4, !dbg !2147, !tbaa !1525
  %arrayidx24 = getelementptr inbounds i8, i8* %.pre, i64 %indvars.iv.next232239, !dbg !2155
  call void @llvm.x86.bndclrr(x86_bnd %35, i8* %arrayidx24), !dbg !2148
  store i8 0, i8* %arrayidx24, align 1, !dbg !2148, !tbaa !2149
  %indvars.iv.next232 = add nuw nsw i64 %indvars.iv.next232239, 1, !dbg !2156
  tail call void @llvm.dbg.value(metadata i32 %add15, i64 0, metadata !2097, metadata !1520), !dbg !2134
  %base.tablesize10 = bitcast %class.MapFile* %this to i8*, !dbg !2136
  call void @llvm.x86.bndclrm(x86_bnd %this.bnd, i8* %base.tablesize10, i64 0, i8 1, i32 56), !dbg !2136
  %41 = load i32, i32* %tablesize, align 8, !dbg !2136, !tbaa !1862
  %42 = sext i32 %41 to i64, !dbg !2140
  %cmp = icmp slt i64 %indvars.iv.next232, %42, !dbg !2140
  br i1 %cmp, label %for.body.for.body_crit_edge, label %for.end.loopexit.loopexit, !dbg !2141, !llvm.loop !2150

for.end.loopexit.loopexit:                        ; preds = %for.body.for.body_crit_edge
  br label %for.end.loopexit

for.end.loopexit:                                 ; preds = %for.end.loopexit.loopexit, %for.body.lr.ph
  %add15.lcssa = phi i32 [ %31, %for.body.lr.ph ], [ %add15, %for.end.loopexit.loopexit ]
  %base.posbegin11 = bitcast %class.MapFile* %this to i8*
  call void @llvm.x86.bndclrm(x86_bnd %this.bnd, i8* %base.posbegin11, i64 0, i8 1, i32 32)
  call void @llvm.x86.bndcurm(x86_bnd %this.bnd, i8* %base.posbegin11, i64 0, i8 1, i32 39)
  %.pre233 = load i32*, i32** %posbegin, align 8, !tbaa !2125
  %castptr.posbegin = bitcast i32** %posbegin to i8*
  %castptrval..pre233 = bitcast i32* %.pre233 to i8*
  %43 = call x86_bnd @llvm.x86.bndldx(i8* %castptr.posbegin, i8* %castptrval..pre233, i32 0)
  %base.nodebegin = bitcast %class.MapFile* %this to i8*
  call void @llvm.x86.bndclrm(x86_bnd %this.bnd, i8* %base.nodebegin, i64 0, i8 1, i32 16)
  %.pre234 = load i32*, i32** %nodebegin, align 8, !tbaa !2117
  %castptr.nodebegin = bitcast i32** %nodebegin to i8*, !dbg !2158
  %castptrval..pre234 = bitcast i32* %.pre234 to i8*, !dbg !2158
  %44 = call x86_bnd @llvm.x86.bndldx(i8* %castptr.nodebegin, i8* %castptrval..pre234, i32 0)
  br label %for.end, !dbg !2158

for.end:                                          ; preds = %entry.for.end_crit_edge, %for.end.loopexit
  %table25.pre-phi = phi %class.MapFileNode*** [ %.pre235, %entry.for.end_crit_edge ], [ %table, %for.end.loopexit ], !dbg !2143
  %bnd_phi.table25.pre-phi = phi x86_bnd [ %this.bnd, %entry.for.end_crit_edge ], [ %this.bnd, %for.end.loopexit ]
  %45 = phi i32* [ %25, %entry.for.end_crit_edge ], [ %.pre234, %for.end.loopexit ], !dbg !2159
  %bnd_phi. = phi x86_bnd [ %11, %entry.for.end_crit_edge ], [ %44, %for.end.loopexit ]
  %46 = phi i32* [ %add.ptr7, %entry.for.end_crit_edge ], [ %.pre233, %for.end.loopexit ], !dbg !2160
  %bnd_phi.12 = phi x86_bnd [ %11, %entry.for.end_crit_edge ], [ %43, %for.end.loopexit ]
  %sumwork.0.lcssa = phi i32 [ 0, %entry.for.end_crit_edge ], [ %add15.lcssa, %for.end.loopexit ]
  %div = sdiv i32 %sumwork.0.lcssa, %workingthread, !dbg !2158
  tail call void @llvm.dbg.value(metadata i32 %div, i64 0, metadata !2098, metadata !1520), !dbg !2161
  tail call void @llvm.dbg.value(metadata i32 0, i64 0, metadata !2097, metadata !1520), !dbg !2134
  tail call void @llvm.dbg.value(metadata i32 0, i64 0, metadata !2100, metadata !1520), !dbg !2162
  %base.table25.pre-phi = bitcast %class.MapFileNode*** %table25.pre-phi to i8*, !dbg !2143
  call void @llvm.x86.bndclrr(x86_bnd %bnd_phi.table25.pre-phi, i8* %base.table25.pre-phi), !dbg !2143
  call void @llvm.x86.bndcurm(x86_bnd %bnd_phi.table25.pre-phi, i8* %base.table25.pre-phi, i64 0, i8 1, i32 7), !dbg !2143
  %47 = load %class.MapFileNode**, %class.MapFileNode*** %table25.pre-phi, align 8, !dbg !2143, !tbaa !2076
  %castptr.table25.pre-phi = bitcast %class.MapFileNode*** %table25.pre-phi to i8*, !dbg !2143
  %castptrval13 = bitcast %class.MapFileNode** %47 to i8*, !dbg !2143
  %48 = call x86_bnd @llvm.x86.bndldx(i8* %castptr.table25.pre-phi, i8* %castptrval13, i32 0)
  %base.14 = bitcast %class.MapFileNode** %47 to i8*, !dbg !2143
  call void @llvm.x86.bndclrr(x86_bnd %48, i8* %base.14), !dbg !2143
  call void @llvm.x86.bndcurm(x86_bnd %48, i8* %base.14, i64 0, i8 1, i32 7), !dbg !2143
  %49 = load %class.MapFileNode*, %class.MapFileNode** %47, align 8, !dbg !2143, !tbaa !1536
  %castptr15 = bitcast %class.MapFileNode** %47 to i8*, !dbg !2163
  %castptrval16 = bitcast %class.MapFileNode* %49 to i8*, !dbg !2163
  %50 = call x86_bnd @llvm.x86.bndldx(i8* %castptr15, i8* %castptrval16, i32 0)
  %top27 = getelementptr inbounds %class.MapFileNode, %class.MapFileNode* %49, i64 0, i32 2, !dbg !2163
  %base.top27 = bitcast %class.MapFileNode* %49 to i8*, !dbg !2163
  call void @llvm.x86.bndclrm(x86_bnd %50, i8* %base.top27, i64 0, i8 1, i32 12), !dbg !2163
  call void @llvm.x86.bndcurm(x86_bnd %50, i8* %base.top27, i64 0, i8 1, i32 15), !dbg !2163
  %51 = load i32, i32* %top27, align 4, !dbg !2163, !tbaa !1852
  %sub = add nsw i32 %51, -1, !dbg !2164
  %base.17 = bitcast i32* %46 to i8*, !dbg !2165
  call void @llvm.x86.bndclrr(x86_bnd %bnd_phi.12, i8* %base.17), !dbg !2165
  call void @llvm.x86.bndcurm(x86_bnd %bnd_phi.12, i8* %base.17, i64 0, i8 1, i32 3), !dbg !2165
  store i32 %sub, i32* %46, align 4, !dbg !2165, !tbaa !1525
  %base.18 = bitcast i32* %45 to i8*, !dbg !2166
  call void @llvm.x86.bndclrr(x86_bnd %bnd_phi., i8* %base.18), !dbg !2166
  call void @llvm.x86.bndcurm(x86_bnd %bnd_phi., i8* %base.18, i64 0, i8 1, i32 3), !dbg !2166
  store i32 0, i32* %45, align 4, !dbg !2166, !tbaa !1525
  tail call void @llvm.dbg.value(metadata i32 0, i64 0, metadata !2099, metadata !1520), !dbg !2135
  tail call void @llvm.dbg.value(metadata i32 0, i64 0, metadata !2097, metadata !1520), !dbg !2134
  tail call void @llvm.dbg.value(metadata i32 0, i64 0, metadata !2100, metadata !1520), !dbg !2162
  tail call void @llvm.dbg.value(metadata i32 0, i64 0, metadata !2099, metadata !1520), !dbg !2135
  %base.tablesize19 = bitcast %class.MapFile* %this to i8*, !dbg !2167
  call void @llvm.x86.bndclrm(x86_bnd %this.bnd, i8* %base.tablesize19, i64 0, i8 1, i32 56), !dbg !2167
  call void @llvm.x86.bndcurm(x86_bnd %this.bnd, i8* %base.tablesize19, i64 0, i8 1, i32 59), !dbg !2167
  %52 = load i32, i32* %tablesize, align 8, !dbg !2167, !tbaa !1862
  %cmp34220 = icmp sgt i32 %52, 0, !dbg !2171
  br i1 %cmp34220, label %for.body35.lr.ph, label %delete.notnull, !dbg !2172

for.body35.lr.ph:                                 ; preds = %for.end
  %sub120 = add nsw i32 %workingthread, -1
  br label %for.body35, !dbg !2172

for.cond32:                                       ; preds = %if.end119
  tail call void @llvm.dbg.value(metadata i32 %sumwork.2, i64 0, metadata !2097, metadata !1520), !dbg !2134
  tail call void @llvm.dbg.value(metadata i32 %j.1, i64 0, metadata !2100, metadata !1520), !dbg !2162
  tail call void @llvm.dbg.value(metadata i32 %inc133, i64 0, metadata !2099, metadata !1520), !dbg !2135
  %base.tablesize20 = bitcast %class.MapFile* %this to i8*, !dbg !2167
  call void @llvm.x86.bndclrm(x86_bnd %this.bnd, i8* %base.tablesize20, i64 0, i8 1, i32 56), !dbg !2167
  call void @llvm.x86.bndcurm(x86_bnd %this.bnd, i8* %base.tablesize20, i64 0, i8 1, i32 59), !dbg !2167
  %53 = load i32, i32* %tablesize, align 8, !dbg !2167, !tbaa !1862
  %cmp34 = icmp slt i32 %inc133, %53, !dbg !2171
  br i1 %cmp34, label %for.body35, label %delete.notnull.loopexit, !dbg !2172, !llvm.loop !2174

for.body35:                                       ; preds = %for.body35.lr.ph, %for.cond32
  %sumwork.1223 = phi i32 [ 0, %for.body35.lr.ph ], [ %sumwork.2, %for.cond32 ]
  %j.0222 = phi i32 [ 0, %for.body35.lr.ph ], [ %j.1, %for.cond32 ]
  %i.1221 = phi i32 [ 0, %for.body35.lr.ph ], [ %inc133, %for.cond32 ]
  %idxprom36 = sext i32 %i.1221 to i64, !dbg !2177
  %arrayidx37 = getelementptr inbounds i32, i32* %6, i64 %idxprom36, !dbg !2177
  %54 = load i32, i32* %arrayidx37, align 4, !dbg !2177, !tbaa !1525
  %add38 = add nsw i32 %54, %sumwork.1223, !dbg !2180
  %cmp39 = icmp sgt i32 %add38, %div, !dbg !2181
  br i1 %cmp39, label %if.then, label %if.else113, !dbg !2182

if.then:                                          ; preds = %for.body35
  %sub42211 = sub i32 %sumwork.1223, %div, !dbg !2183
  %sub43 = add i32 %54, %sub42211, !dbg !2183
  tail call void @llvm.dbg.value(metadata i32 %sub43, i64 0, metadata !2101, metadata !1520), !dbg !2185
  %base.table25.pre-phi21 = bitcast %class.MapFileNode*** %table25.pre-phi to i8*, !dbg !2186
  call void @llvm.x86.bndclrr(x86_bnd %bnd_phi.table25.pre-phi, i8* %base.table25.pre-phi21), !dbg !2186
  call void @llvm.x86.bndcurm(x86_bnd %bnd_phi.table25.pre-phi, i8* %base.table25.pre-phi21, i64 0, i8 1, i32 7), !dbg !2186
  %55 = load %class.MapFileNode**, %class.MapFileNode*** %table25.pre-phi, align 8, !dbg !2186, !tbaa !2076
  %castptr.table25.pre-phi22 = bitcast %class.MapFileNode*** %table25.pre-phi to i8*, !dbg !2186
  %castptrval23 = bitcast %class.MapFileNode** %55 to i8*, !dbg !2186
  %56 = call x86_bnd @llvm.x86.bndldx(i8* %castptr.table25.pre-phi22, i8* %castptrval23, i32 0)
  %arrayidx46 = getelementptr inbounds %class.MapFileNode*, %class.MapFileNode** %55, i64 %idxprom36, !dbg !2186
  %base.arrayidx46 = bitcast %class.MapFileNode** %arrayidx46 to i8*, !dbg !2186
  call void @llvm.x86.bndclrr(x86_bnd %56, i8* %base.arrayidx46), !dbg !2186
  call void @llvm.x86.bndcurm(x86_bnd %56, i8* %base.arrayidx46, i64 0, i8 1, i32 7), !dbg !2186
  %57 = load %class.MapFileNode*, %class.MapFileNode** %arrayidx46, align 8, !dbg !2186, !tbaa !1536
  %castptr.arrayidx46 = bitcast %class.MapFileNode** %arrayidx46 to i8*, !dbg !2187
  %castptrval24 = bitcast %class.MapFileNode* %57 to i8*, !dbg !2187
  %58 = call x86_bnd @llvm.x86.bndldx(i8* %castptr.arrayidx46, i8* %castptrval24, i32 0)
  %TransactionContent = getelementptr inbounds %class.MapFileNode, %class.MapFileNode* %57, i64 0, i32 0, !dbg !2187
  %base.TransactionContent = bitcast %class.MapFileNode* %57 to i8*, !dbg !2187
  call void @llvm.x86.bndclrm(x86_bnd %58, i8* %base.TransactionContent, i64 0, i8 1, i32 0), !dbg !2187
  call void @llvm.x86.bndcurm(x86_bnd %58, i8* %base.TransactionContent, i64 0, i8 1, i32 7), !dbg !2187
  %59 = load i32*, i32** %TransactionContent, align 8, !dbg !2187, !tbaa !1848
  %castptr.TransactionContent = bitcast i32** %TransactionContent to i8*, !dbg !2188
  %castptrval25 = bitcast i32* %59 to i8*, !dbg !2188
  %60 = call x86_bnd @llvm.x86.bndldx(i8* %castptr.TransactionContent, i8* %castptrval25, i32 0)
  tail call void @llvm.dbg.value(metadata i32* %59, i64 0, metadata !2096, metadata !1520), !dbg !2188
  tail call void @llvm.dbg.value(metadata i32 %sub43, i64 0, metadata !2102, metadata !1520), !dbg !2189
  tail call void @llvm.dbg.value(metadata i32 %sub43, i64 0, metadata !2102, metadata !1520), !dbg !2189
  %cmp49213 = icmp sgt i32 %sub43, %54, !dbg !2190
  br i1 %cmp49213, label %while.cond54.preheader, label %land.rhs.preheader, !dbg !2192

land.rhs.preheader:                               ; preds = %if.then
  %61 = sext i32 %sub43 to i64, !dbg !2193
  %62 = sext i32 %54 to i64
  br label %land.rhs, !dbg !2193

while.cond54.preheader.loopexit:                  ; preds = %land.rhs, %while.body
  %pos2.0.lcssa.ph = phi i32 [ %65, %land.rhs ], [ %inc53, %while.body ]
  br label %while.cond54.preheader, !dbg !2195

while.cond54.preheader:                           ; preds = %while.cond54.preheader.loopexit, %if.then
  %pos2.0.lcssa = phi i32 [ %sub43, %if.then ], [ %pos2.0.lcssa.ph, %while.cond54.preheader.loopexit ]
  tail call void @llvm.dbg.value(metadata i32 %sub43, i64 0, metadata !2103, metadata !1520), !dbg !2195
  %cmp55216 = icmp sgt i32 %sub43, -1, !dbg !2196
  br i1 %cmp55216, label %land.rhs56.preheader, label %while.end62, !dbg !2197

land.rhs56.preheader:                             ; preds = %while.cond54.preheader
  %63 = sext i32 %sub43 to i64, !dbg !2198
  br label %land.rhs56, !dbg !2198

land.rhs:                                         ; preds = %land.rhs.preheader, %while.body
  %indvars.iv = phi i64 [ %61, %land.rhs.preheader ], [ %indvars.iv.next, %while.body ]
  %pos2.0214 = phi i32 [ %sub43, %land.rhs.preheader ], [ %inc53, %while.body ]
  %arrayidx51 = getelementptr inbounds i32, i32* %59, i64 %indvars.iv, !dbg !2193
  %base.arrayidx51 = bitcast i32* %arrayidx51 to i8*, !dbg !2193
  call void @llvm.x86.bndclrr(x86_bnd %60, i8* %base.arrayidx51), !dbg !2193
  call void @llvm.x86.bndcurm(x86_bnd %60, i8* %base.arrayidx51, i64 0, i8 1, i32 3), !dbg !2193
  %64 = load i32, i32* %arrayidx51, align 4, !dbg !2193, !tbaa !1525
  %cmp52 = icmp eq i32 %64, -1, !dbg !2199
  %65 = trunc i64 %indvars.iv to i32, !dbg !2200
  br i1 %cmp52, label %while.cond54.preheader.loopexit, label %while.body, !dbg !2200

while.body:                                       ; preds = %land.rhs
  %indvars.iv.next = add i64 %indvars.iv, 1, !dbg !2202
  %inc53 = add nsw i32 %pos2.0214, 1, !dbg !2202
  tail call void @llvm.dbg.value(metadata i32 %inc53, i64 0, metadata !2102, metadata !1520), !dbg !2189
  tail call void @llvm.dbg.value(metadata i32 %inc53, i64 0, metadata !2102, metadata !1520), !dbg !2189
  %cmp49 = icmp slt i64 %indvars.iv, %62, !dbg !2190
  br i1 %cmp49, label %land.rhs, label %while.cond54.preheader.loopexit, !dbg !2192, !llvm.loop !2203

land.rhs56:                                       ; preds = %land.rhs56.preheader, %while.body61
  %indvars.iv229 = phi i64 [ %63, %land.rhs56.preheader ], [ %indvars.iv.next230, %while.body61 ]
  %pos3.0217 = phi i32 [ %sub43, %land.rhs56.preheader ], [ %dec, %while.body61 ]
  %arrayidx58 = getelementptr inbounds i32, i32* %59, i64 %indvars.iv229, !dbg !2198
  %base.arrayidx58 = bitcast i32* %arrayidx58 to i8*, !dbg !2198
  call void @llvm.x86.bndclrr(x86_bnd %60, i8* %base.arrayidx58), !dbg !2198
  call void @llvm.x86.bndcurm(x86_bnd %60, i8* %base.arrayidx58, i64 0, i8 1, i32 3), !dbg !2198
  %66 = load i32, i32* %arrayidx58, align 4, !dbg !2198, !tbaa !1525
  %cmp59 = icmp eq i32 %66, -1, !dbg !2205
  %67 = trunc i64 %indvars.iv229 to i32, !dbg !2206
  br i1 %cmp59, label %while.end62.loopexit, label %while.body61, !dbg !2206

while.body61:                                     ; preds = %land.rhs56
  %indvars.iv.next230 = add nsw i64 %indvars.iv229, -1, !dbg !2207
  %dec = add nsw i32 %pos3.0217, -1, !dbg !2207
  tail call void @llvm.dbg.value(metadata i32 %dec, i64 0, metadata !2103, metadata !1520), !dbg !2195
  tail call void @llvm.dbg.value(metadata i32 %dec, i64 0, metadata !2103, metadata !1520), !dbg !2195
  %cmp55 = icmp sgt i64 %indvars.iv229, 0, !dbg !2196
  br i1 %cmp55, label %land.rhs56, label %while.end62.loopexit, !dbg !2197, !llvm.loop !2208

while.end62.loopexit:                             ; preds = %land.rhs56, %while.body61
  %pos3.0.lcssa.ph = phi i32 [ %67, %land.rhs56 ], [ %dec, %while.body61 ]
  br label %while.end62, !dbg !2210

while.end62:                                      ; preds = %while.end62.loopexit, %while.cond54.preheader
  %pos3.0.lcssa = phi i32 [ %sub43, %while.cond54.preheader ], [ %pos3.0.lcssa.ph, %while.end62.loopexit ]
  %sub63 = sub nsw i32 %pos2.0.lcssa, %sub43, !dbg !2210
  %sub64 = sub nsw i32 %sub43, %pos3.0.lcssa, !dbg !2212
  %cmp65 = icmp sgt i32 %sub63, %sub64, !dbg !2213
  %pos3.0.pos2.0 = select i1 %cmp65, i32 %pos3.0.lcssa, i32 %pos2.0.lcssa, !dbg !2214
  tail call void @llvm.dbg.value(metadata i32 %pos3.0.pos2.0, i64 0, metadata !2101, metadata !1520), !dbg !2185
  %sub67 = add nsw i32 %pos3.0.pos2.0, -1, !dbg !2215
  tail call void @llvm.dbg.value(metadata i32 %sub67, i64 0, metadata !2102, metadata !1520), !dbg !2189
  %idxprom68 = sext i32 %pos3.0.pos2.0 to i64, !dbg !2216
  %arrayidx69 = getelementptr inbounds i32, i32* %59, i64 %idxprom68, !dbg !2216
  %base.arrayidx69 = bitcast i32* %arrayidx69 to i8*, !dbg !2216
  call void @llvm.x86.bndclrr(x86_bnd %60, i8* %base.arrayidx69), !dbg !2216
  %68 = load i32, i32* %arrayidx69, align 4, !dbg !2216, !tbaa !1525
  %cmp70 = icmp eq i32 %68, -1, !dbg !2218
  %inc72 = zext i1 %cmp70 to i32, !dbg !2219
  %pos1.1 = add nsw i32 %inc72, %pos3.0.pos2.0, !dbg !2219
  tail call void @llvm.dbg.value(metadata i32 %pos1.1, i64 0, metadata !2101, metadata !1520), !dbg !2185
  %top77 = getelementptr inbounds %class.MapFileNode, %class.MapFileNode* %57, i64 0, i32 2, !dbg !2220
  %base.top77 = bitcast %class.MapFileNode* %57 to i8*, !dbg !2220
  call void @llvm.x86.bndclrm(x86_bnd %58, i8* %base.top77, i64 0, i8 1, i32 12), !dbg !2220
  %69 = load i32, i32* %top77, align 4, !dbg !2220, !tbaa !1852
  %cmp78 = icmp slt i32 %pos1.1, %69, !dbg !2222
  %sub80 = add nsw i32 %i.1221, -1, !dbg !2223
  %i.1.sink = select i1 %cmp78, i32 %i.1221, i32 %sub80, !dbg !2225
  %.sink = select i1 %cmp78, i32 %pos1.1, i32 0, !dbg !2225
  %base.nodeend26 = bitcast %class.MapFile* %this to i8*
  call void @llvm.x86.bndclrm(x86_bnd %this.bnd, i8* %base.nodeend26, i64 0, i8 1, i32 24)
  call void @llvm.x86.bndcurm(x86_bnd %this.bnd, i8* %base.nodeend26, i64 0, i8 1, i32 31)
  %70 = load i32*, i32** %nodeend, align 8, !tbaa !2121
  %castptr.nodeend = bitcast i32** %nodeend to i8*
  %castptrval27 = bitcast i32* %70 to i8*
  %71 = call x86_bnd @llvm.x86.bndldx(i8* %castptr.nodeend, i8* %castptrval27, i32 0)
  %idxprom89 = sext i32 %j.0222 to i64
  %arrayidx90 = getelementptr inbounds i32, i32* %70, i64 %idxprom89
  %base.arrayidx90 = bitcast i32* %arrayidx90 to i8*
  call void @llvm.x86.bndclrr(x86_bnd %71, i8* %base.arrayidx90)
  store i32 %i.1.sink, i32* %arrayidx90, align 4, !tbaa !1525
  %base.posend28 = bitcast %class.MapFile* %this to i8*
  call void @llvm.x86.bndclrm(x86_bnd %this.bnd, i8* %base.posend28, i64 0, i8 1, i32 40)
  call void @llvm.x86.bndcurm(x86_bnd %this.bnd, i8* %base.posend28, i64 0, i8 1, i32 47)
  %.sink135 = load i32*, i32** %posend, align 8, !tbaa !2129
  %castptr.posend = bitcast i32** %posend to i8*
  %castptrval..sink135 = bitcast i32* %.sink135 to i8*
  %72 = call x86_bnd @llvm.x86.bndldx(i8* %castptr.posend, i8* %castptrval..sink135, i32 0)
  %arrayidx93 = getelementptr inbounds i32, i32* %.sink135, i64 %idxprom89
  %base.arrayidx93 = bitcast i32* %arrayidx93 to i8*
  call void @llvm.x86.bndclrr(x86_bnd %72, i8* %base.arrayidx93)
  store i32 %.sink, i32* %arrayidx93, align 4, !tbaa !1525
  %inc95 = add nsw i32 %j.0222, 1, !dbg !2226
  tail call void @llvm.dbg.value(metadata i32 %inc95, i64 0, metadata !2100, metadata !1520), !dbg !2162
  %base.nodebegin29 = bitcast %class.MapFile* %this to i8*, !dbg !2227
  call void @llvm.x86.bndclrm(x86_bnd %this.bnd, i8* %base.nodebegin29, i64 0, i8 1, i32 16), !dbg !2227
  call void @llvm.x86.bndcurm(x86_bnd %this.bnd, i8* %base.nodebegin29, i64 0, i8 1, i32 23), !dbg !2227
  %73 = load i32*, i32** %nodebegin, align 8, !dbg !2227, !tbaa !2117
  %castptr.nodebegin30 = bitcast i32** %nodebegin to i8*, !dbg !2227
  %castptrval31 = bitcast i32* %73 to i8*, !dbg !2227
  %74 = call x86_bnd @llvm.x86.bndldx(i8* %castptr.nodebegin30, i8* %castptrval31, i32 0)
  %idxprom97 = sext i32 %inc95 to i64, !dbg !2227
  %arrayidx98 = getelementptr inbounds i32, i32* %73, i64 %idxprom97, !dbg !2227
  %base.arrayidx98 = bitcast i32* %arrayidx98 to i8*, !dbg !2228
  call void @llvm.x86.bndclrr(x86_bnd %74, i8* %base.arrayidx98), !dbg !2228
  store i32 %i.1221, i32* %arrayidx98, align 4, !dbg !2228, !tbaa !1525
  %base.posbegin32 = bitcast %class.MapFile* %this to i8*, !dbg !2229
  call void @llvm.x86.bndclrm(x86_bnd %this.bnd, i8* %base.posbegin32, i64 0, i8 1, i32 32), !dbg !2229
  call void @llvm.x86.bndcurm(x86_bnd %this.bnd, i8* %base.posbegin32, i64 0, i8 1, i32 39), !dbg !2229
  %75 = load i32*, i32** %posbegin, align 8, !dbg !2229, !tbaa !2125
  %castptr.posbegin33 = bitcast i32** %posbegin to i8*, !dbg !2229
  %castptrval34 = bitcast i32* %75 to i8*, !dbg !2229
  %76 = call x86_bnd @llvm.x86.bndldx(i8* %castptr.posbegin33, i8* %castptrval34, i32 0)
  %arrayidx101 = getelementptr inbounds i32, i32* %75, i64 %idxprom97, !dbg !2229
  %base.arrayidx101 = bitcast i32* %arrayidx101 to i8*, !dbg !2230
  call void @llvm.x86.bndclrr(x86_bnd %76, i8* %base.arrayidx101), !dbg !2230
  store i32 %sub67, i32* %arrayidx101, align 4, !dbg !2230, !tbaa !1525
  %base.shareinfomap35 = bitcast %class.MapFile* %this to i8*, !dbg !2231
  call void @llvm.x86.bndclrm(x86_bnd %this.bnd, i8* %base.shareinfomap35, i64 0, i8 1, i32 48), !dbg !2231
  %77 = load i8*, i8** %shareinfomap, align 8, !dbg !2231, !tbaa !2133
  %castptr.shareinfomap36 = bitcast i8** %shareinfomap to i8*, !dbg !2231
  %78 = call x86_bnd @llvm.x86.bndldx(i8* %castptr.shareinfomap36, i8* %77, i32 0)
  %arrayidx104 = getelementptr inbounds i8, i8* %77, i64 %idxprom36, !dbg !2231
  call void @llvm.x86.bndclrr(x86_bnd %78, i8* %arrayidx104), !dbg !2232
  store i8 1, i8* %arrayidx104, align 1, !dbg !2232, !tbaa !2149
  %cmp105 = icmp sgt i32 %sub67, %div, !dbg !2233
  br i1 %cmp105, label %if.then106, label %if.end119, !dbg !2235

if.then106:                                       ; preds = %while.end62
  store i32 %sub67, i32* %arrayidx37, align 4, !dbg !2236, !tbaa !1525
  tail call void @llvm.dbg.value(metadata i32 0, i64 0, metadata !2097, metadata !1520), !dbg !2134
  tail call void @llvm.dbg.value(metadata i32 %sub80, i64 0, metadata !2099, metadata !1520), !dbg !2135
  br label %if.end119, !dbg !2238

if.else113:                                       ; preds = %for.body35
  %base.table25.pre-phi37 = bitcast %class.MapFileNode*** %table25.pre-phi to i8*, !dbg !2239
  call void @llvm.x86.bndclrr(x86_bnd %bnd_phi.table25.pre-phi, i8* %base.table25.pre-phi37), !dbg !2239
  call void @llvm.x86.bndcurm(x86_bnd %bnd_phi.table25.pre-phi, i8* %base.table25.pre-phi37, i64 0, i8 1, i32 7), !dbg !2239
  %79 = load %class.MapFileNode**, %class.MapFileNode*** %table25.pre-phi, align 8, !dbg !2239, !tbaa !2076
  %castptr.table25.pre-phi38 = bitcast %class.MapFileNode*** %table25.pre-phi to i8*, !dbg !2239
  %castptrval39 = bitcast %class.MapFileNode** %79 to i8*, !dbg !2239
  %80 = call x86_bnd @llvm.x86.bndldx(i8* %castptr.table25.pre-phi38, i8* %castptrval39, i32 0)
  %arrayidx116 = getelementptr inbounds %class.MapFileNode*, %class.MapFileNode** %79, i64 %idxprom36, !dbg !2239
  %base.arrayidx116 = bitcast %class.MapFileNode** %arrayidx116 to i8*, !dbg !2239
  call void @llvm.x86.bndclrr(x86_bnd %80, i8* %base.arrayidx116), !dbg !2239
  call void @llvm.x86.bndcurm(x86_bnd %80, i8* %base.arrayidx116, i64 0, i8 1, i32 7), !dbg !2239
  %81 = load %class.MapFileNode*, %class.MapFileNode** %arrayidx116, align 8, !dbg !2239, !tbaa !1536
  %castptr.arrayidx116 = bitcast %class.MapFileNode** %arrayidx116 to i8*, !dbg !2240
  %castptrval40 = bitcast %class.MapFileNode* %81 to i8*, !dbg !2240
  %82 = call x86_bnd @llvm.x86.bndldx(i8* %castptr.arrayidx116, i8* %castptrval40, i32 0)
  %top117 = getelementptr inbounds %class.MapFileNode, %class.MapFileNode* %81, i64 0, i32 2, !dbg !2240
  %base.top117 = bitcast %class.MapFileNode* %81 to i8*, !dbg !2240
  call void @llvm.x86.bndclrm(x86_bnd %82, i8* %base.top117, i64 0, i8 1, i32 12), !dbg !2240
  call void @llvm.x86.bndcurm(x86_bnd %82, i8* %base.top117, i64 0, i8 1, i32 15), !dbg !2240
  %83 = load i32, i32* %top117, align 4, !dbg !2240, !tbaa !1852
  %add118 = add nsw i32 %83, %sumwork.1223, !dbg !2241
  tail call void @llvm.dbg.value(metadata i32 %add118, i64 0, metadata !2097, metadata !1520), !dbg !2134
  br label %if.end119

if.end119:                                        ; preds = %while.end62, %if.then106, %if.else113
  %i.2 = phi i32 [ %sub80, %if.then106 ], [ %i.1221, %if.else113 ], [ %i.1221, %while.end62 ]
  %j.1 = phi i32 [ %inc95, %if.then106 ], [ %j.0222, %if.else113 ], [ %inc95, %while.end62 ]
  %sumwork.2 = phi i32 [ 0, %if.then106 ], [ %add118, %if.else113 ], [ %pos3.0.pos2.0, %while.end62 ]
  tail call void @llvm.dbg.value(metadata i32 %sumwork.2, i64 0, metadata !2097, metadata !1520), !dbg !2134
  tail call void @llvm.dbg.value(metadata i32 %j.1, i64 0, metadata !2100, metadata !1520), !dbg !2162
  tail call void @llvm.dbg.value(metadata i32 %i.2, i64 0, metadata !2099, metadata !1520), !dbg !2135
  %cmp121 = icmp eq i32 %j.1, %sub120, !dbg !2242
  %inc133 = add nsw i32 %i.2, 1, !dbg !2244
  tail call void @llvm.dbg.value(metadata i32 %inc133, i64 0, metadata !2099, metadata !1520), !dbg !2135
  br i1 %cmp121, label %if.then122, label %for.cond32, !dbg !2246

if.then122:                                       ; preds = %if.end119
  %base.posend41 = bitcast %class.MapFile* %this to i8*, !dbg !2247
  call void @llvm.x86.bndclrm(x86_bnd %this.bnd, i8* %base.posend41, i64 0, i8 1, i32 40), !dbg !2247
  call void @llvm.x86.bndcurm(x86_bnd %this.bnd, i8* %base.posend41, i64 0, i8 1, i32 47), !dbg !2247
  %84 = load i32*, i32** %posend, align 8, !dbg !2247, !tbaa !2129
  %castptr.posend42 = bitcast i32** %posend to i8*, !dbg !2247
  %castptrval43 = bitcast i32* %84 to i8*, !dbg !2247
  %85 = call x86_bnd @llvm.x86.bndldx(i8* %castptr.posend42, i8* %castptrval43, i32 0)
  %idxprom124 = sext i32 %sub120 to i64, !dbg !2247
  %arrayidx125 = getelementptr inbounds i32, i32* %84, i64 %idxprom124, !dbg !2247
  %base.arrayidx125 = bitcast i32* %arrayidx125 to i8*, !dbg !2249
  call void @llvm.x86.bndclrr(x86_bnd %85, i8* %base.arrayidx125), !dbg !2249
  store i32 0, i32* %arrayidx125, align 4, !dbg !2249, !tbaa !1525
  %base.tablesize44 = bitcast %class.MapFile* %this to i8*, !dbg !2250
  call void @llvm.x86.bndclrm(x86_bnd %this.bnd, i8* %base.tablesize44, i64 0, i8 1, i32 56), !dbg !2250
  call void @llvm.x86.bndcurm(x86_bnd %this.bnd, i8* %base.tablesize44, i64 0, i8 1, i32 59), !dbg !2250
  %86 = load i32, i32* %tablesize, align 8, !dbg !2250, !tbaa !1862
  %sub127 = add nsw i32 %86, -1, !dbg !2251
  %base.nodeend45 = bitcast %class.MapFile* %this to i8*, !dbg !2252
  call void @llvm.x86.bndclrm(x86_bnd %this.bnd, i8* %base.nodeend45, i64 0, i8 1, i32 24), !dbg !2252
  %87 = load i32*, i32** %nodeend, align 8, !dbg !2252, !tbaa !2121
  %castptr.nodeend46 = bitcast i32** %nodeend to i8*, !dbg !2252
  %castptrval47 = bitcast i32* %87 to i8*, !dbg !2252
  %88 = call x86_bnd @llvm.x86.bndldx(i8* %castptr.nodeend46, i8* %castptrval47, i32 0)
  %arrayidx130 = getelementptr inbounds i32, i32* %87, i64 %idxprom124, !dbg !2252
  %base.arrayidx130 = bitcast i32* %arrayidx130 to i8*, !dbg !2253
  call void @llvm.x86.bndclrr(x86_bnd %88, i8* %base.arrayidx130), !dbg !2253
  store i32 %sub127, i32* %arrayidx130, align 4, !dbg !2253, !tbaa !1525
  br label %delete.notnull, !dbg !2254

delete.notnull.loopexit:                          ; preds = %for.cond32
  br label %delete.notnull, !dbg !2255

delete.notnull:                                   ; preds = %delete.notnull.loopexit, %for.end, %if.then122
  tail call void @_ZdaPv(i8* nonnull %call) #16, !dbg !2255
  ret void, !dbg !2257
}

define i32 @_Z9findpivotRKiS0_(i32* nocapture readonly dereferenceable(4) %i, i32* nocapture readonly dereferenceable(4) %j, x86_bnd %i.bnd, x86_bnd %j.bnd) local_unnamed_addr {
entry:
  tail call void @llvm.dbg.value(metadata !1120, i64 0, metadata !2258, metadata !1520), !dbg !2265
  tail call void @llvm.dbg.value(metadata !1120, i64 0, metadata !2264, metadata !1520), !dbg !2266
  %base.i = bitcast i32* %i to i8*, !dbg !2267
  call void @llvm.x86.bndclrr(x86_bnd %i.bnd, i8* %base.i), !dbg !2267
  call void @llvm.x86.bndcurm(x86_bnd %i.bnd, i8* %base.i, i64 0, i8 1, i32 3), !dbg !2267
  %0 = load i32, i32* %i, align 4, !dbg !2267, !tbaa !1525
  %base.j = bitcast i32* %j to i8*, !dbg !2268
  call void @llvm.x86.bndclrr(x86_bnd %j.bnd, i8* %base.j), !dbg !2268
  call void @llvm.x86.bndcurm(x86_bnd %j.bnd, i8* %base.j, i64 0, i8 1, i32 3), !dbg !2268
  %1 = load i32, i32* %j, align 4, !dbg !2268, !tbaa !1525
  %add = add nsw i32 %1, %0, !dbg !2269
  %div = sdiv i32 %add, 2, !dbg !2270
  ret i32 %div, !dbg !2271
}

define i32 @_Z9partitionPiS_iii(i32* nocapture %array, i32* nocapture %temp, i32 %l, i32 %r, i32 %pivot, x86_bnd %array.bnd, x86_bnd %temp.bnd) local_unnamed_addr {
entry:
  tail call void @llvm.dbg.value(metadata !1120, i64 0, metadata !2272, metadata !1520), !dbg !2281
  tail call void @llvm.dbg.value(metadata !1120, i64 0, metadata !2277, metadata !1520), !dbg !2282
  tail call void @llvm.dbg.value(metadata !1120, i64 0, metadata !2278, metadata !1520), !dbg !2283
  tail call void @llvm.dbg.value(metadata !1120, i64 0, metadata !2279, metadata !1520), !dbg !2284
  tail call void @llvm.dbg.value(metadata !1120, i64 0, metadata !2280, metadata !1520), !dbg !2285
  br label %do.body, !dbg !2286, !llvm.loop !2287

do.body:                                          ; preds = %while.end6, %entry
  %r.addr.0 = phi i32 [ %r, %entry ], [ %r.addr.2, %while.end6 ]
  %l.addr.0 = phi i32 [ %l, %entry ], [ %2, %while.end6 ]
  tail call void @llvm.dbg.value(metadata i32 %l.addr.0, i64 0, metadata !2278, metadata !1520), !dbg !2283
  tail call void @llvm.dbg.value(metadata i32 %r.addr.0, i64 0, metadata !2279, metadata !1520), !dbg !2284
  %0 = sext i32 %l.addr.0 to i64, !dbg !2289
  br label %while.cond, !dbg !2289

while.cond:                                       ; preds = %while.cond, %do.body
  %indvars.iv = phi i64 [ %indvars.iv.next, %while.cond ], [ %0, %do.body ]
  tail call void @llvm.dbg.value(metadata i32 undef, i64 0, metadata !2278, metadata !1520), !dbg !2283
  %indvars.iv.next = add nsw i64 %indvars.iv, 1, !dbg !2291
  %arrayidx = getelementptr inbounds i32, i32* %array, i64 %indvars.iv.next, !dbg !2293
  %base.arrayidx = bitcast i32* %arrayidx to i8*, !dbg !2293
  call void @llvm.x86.bndclrr(x86_bnd %array.bnd, i8* %base.arrayidx), !dbg !2293
  call void @llvm.x86.bndcurm(x86_bnd %array.bnd, i8* %base.arrayidx, i64 0, i8 1, i32 3), !dbg !2293
  %1 = load i32, i32* %arrayidx, align 4, !dbg !2293, !tbaa !1525
  %cmp = icmp sgt i32 %1, %pivot, !dbg !2294
  br i1 %cmp, label %while.cond, label %while.cond1, !dbg !2295, !llvm.loop !2296

while.cond1:                                      ; preds = %while.cond
  %2 = trunc i64 %indvars.iv.next to i32, !dbg !2298
  %tobool.old = icmp eq i32 %r.addr.0, 0, !dbg !2298
  br i1 %tobool.old, label %while.end6, label %land.rhs.preheader, !dbg !2299

land.rhs.preheader:                               ; preds = %while.cond1
  %3 = sext i32 %r.addr.0 to i64, !dbg !2284
  br label %land.rhs, !dbg !2284

land.rhs:                                         ; preds = %land.rhs.preheader, %land.rhs
  %indvars.iv44 = phi i64 [ %3, %land.rhs.preheader ], [ %indvars.iv.next45, %land.rhs ]
  tail call void @llvm.dbg.value(metadata i32 undef, i64 0, metadata !2279, metadata !1520), !dbg !2284
  %indvars.iv.next45 = add nsw i64 %indvars.iv44, -1, !dbg !2300
  %arrayidx3 = getelementptr inbounds i32, i32* %array, i64 %indvars.iv.next45, !dbg !2302
  %base.arrayidx3 = bitcast i32* %arrayidx3 to i8*, !dbg !2302
  call void @llvm.x86.bndclrr(x86_bnd %array.bnd, i8* %base.arrayidx3), !dbg !2302
  call void @llvm.x86.bndcurm(x86_bnd %array.bnd, i8* %base.arrayidx3, i64 0, i8 1, i32 3), !dbg !2302
  %4 = load i32, i32* %arrayidx3, align 4, !dbg !2302, !tbaa !1525
  %cmp4 = icmp slt i32 %4, %pivot, !dbg !2303
  %5 = trunc i64 %indvars.iv.next45 to i32, !dbg !2298
  %tobool = icmp ne i32 %5, 0, !dbg !2298
  %or.cond = and i1 %cmp4, %tobool, !dbg !2304
  br i1 %or.cond, label %land.rhs, label %while.end6.loopexit, !dbg !2304, !llvm.loop !2306

while.end6.loopexit:                              ; preds = %land.rhs
  br label %while.end6, !dbg !2284

while.end6:                                       ; preds = %while.end6.loopexit, %while.cond1
  %r.addr.2 = phi i32 [ 0, %while.cond1 ], [ %5, %while.end6.loopexit ]
  tail call void @llvm.dbg.value(metadata i32 %r.addr.2, i64 0, metadata !2279, metadata !1520), !dbg !2284
  %idx.ext7 = sext i32 %r.addr.2 to i64, !dbg !2309
  %add.ptr8 = getelementptr inbounds i32, i32* %array, i64 %idx.ext7, !dbg !2309
  tail call void @llvm.dbg.value(metadata i32* %arrayidx, i64 0, metadata !2310, metadata !1520), !dbg !2319
  tail call void @llvm.dbg.value(metadata i32* %add.ptr8, i64 0, metadata !2317, metadata !1520), !dbg !2321
  %base.add.ptr8 = bitcast i32* %add.ptr8 to i8*, !dbg !2322
  call void @llvm.x86.bndclrr(x86_bnd %array.bnd, i8* %base.add.ptr8), !dbg !2322
  call void @llvm.x86.bndcurm(x86_bnd %array.bnd, i8* %base.add.ptr8, i64 0, i8 1, i32 3), !dbg !2322
  %6 = load i32, i32* %add.ptr8, align 4, !dbg !2322, !tbaa !1525
  tail call void @llvm.dbg.value(metadata i32 %6, i64 0, metadata !2318, metadata !1520), !dbg !2323
  %base.add.ptr81 = bitcast i32* %add.ptr8 to i8*, !dbg !2324
  call void @llvm.x86.bndclrr(x86_bnd %array.bnd, i8* %base.add.ptr81), !dbg !2324
  store i32 %1, i32* %add.ptr8, align 4, !dbg !2324, !tbaa !1525
  %base.arrayidx2 = bitcast i32* %arrayidx to i8*, !dbg !2325
  call void @llvm.x86.bndclrr(x86_bnd %array.bnd, i8* %base.arrayidx2), !dbg !2325
  call void @llvm.x86.bndcurm(x86_bnd %array.bnd, i8* %base.arrayidx2, i64 0, i8 1, i32 3), !dbg !2325
  store i32 %6, i32* %arrayidx, align 4, !dbg !2325, !tbaa !1525
  %add.ptr10 = getelementptr inbounds i32, i32* %temp, i64 %indvars.iv.next, !dbg !2326
  %add.ptr12 = getelementptr inbounds i32, i32* %temp, i64 %idx.ext7, !dbg !2327
  tail call void @llvm.dbg.value(metadata i32* %add.ptr10, i64 0, metadata !2310, metadata !1520), !dbg !2328
  tail call void @llvm.dbg.value(metadata i32* %add.ptr12, i64 0, metadata !2317, metadata !1520), !dbg !2330
  %base.add.ptr12 = bitcast i32* %add.ptr12 to i8*, !dbg !2331
  call void @llvm.x86.bndclrr(x86_bnd %temp.bnd, i8* %base.add.ptr12), !dbg !2331
  call void @llvm.x86.bndcurm(x86_bnd %temp.bnd, i8* %base.add.ptr12, i64 0, i8 1, i32 3), !dbg !2331
  %7 = load i32, i32* %add.ptr12, align 4, !dbg !2331, !tbaa !1525
  tail call void @llvm.dbg.value(metadata i32 %7, i64 0, metadata !2318, metadata !1520), !dbg !2332
  %base.add.ptr10 = bitcast i32* %add.ptr10 to i8*, !dbg !2333
  call void @llvm.x86.bndclrr(x86_bnd %temp.bnd, i8* %base.add.ptr10), !dbg !2333
  call void @llvm.x86.bndcurm(x86_bnd %temp.bnd, i8* %base.add.ptr10, i64 0, i8 1, i32 3), !dbg !2333
  %8 = load i32, i32* %add.ptr10, align 4, !dbg !2333, !tbaa !1525
  %base.add.ptr123 = bitcast i32* %add.ptr12 to i8*, !dbg !2334
  call void @llvm.x86.bndclrr(x86_bnd %temp.bnd, i8* %base.add.ptr123), !dbg !2334
  store i32 %8, i32* %add.ptr12, align 4, !dbg !2334, !tbaa !1525
  %base.add.ptr104 = bitcast i32* %add.ptr10 to i8*, !dbg !2335
  call void @llvm.x86.bndclrr(x86_bnd %temp.bnd, i8* %base.add.ptr104), !dbg !2335
  call void @llvm.x86.bndcurm(x86_bnd %temp.bnd, i8* %base.add.ptr104, i64 0, i8 1, i32 3), !dbg !2335
  store i32 %7, i32* %add.ptr10, align 4, !dbg !2335, !tbaa !1525
  %cmp13 = icmp slt i32 %2, %r.addr.2, !dbg !2336
  br i1 %cmp13, label %do.body, label %do.end, !dbg !2338, !llvm.loop !2287

do.end:                                           ; preds = %while.end6
  tail call void @llvm.dbg.value(metadata i32* %arrayidx, i64 0, metadata !2310, metadata !1520), !dbg !2339
  tail call void @llvm.dbg.value(metadata i32* %add.ptr8, i64 0, metadata !2317, metadata !1520), !dbg !2341
  %base.add.ptr85 = bitcast i32* %add.ptr8 to i8*, !dbg !2342
  call void @llvm.x86.bndclrr(x86_bnd %array.bnd, i8* %base.add.ptr85), !dbg !2342
  call void @llvm.x86.bndcurm(x86_bnd %array.bnd, i8* %base.add.ptr85, i64 0, i8 1, i32 3), !dbg !2342
  %9 = load i32, i32* %add.ptr8, align 4, !dbg !2342, !tbaa !1525
  tail call void @llvm.dbg.value(metadata i32 %9, i64 0, metadata !2318, metadata !1520), !dbg !2343
  %base.arrayidx6 = bitcast i32* %arrayidx to i8*, !dbg !2344
  call void @llvm.x86.bndclrr(x86_bnd %array.bnd, i8* %base.arrayidx6), !dbg !2344
  call void @llvm.x86.bndcurm(x86_bnd %array.bnd, i8* %base.arrayidx6, i64 0, i8 1, i32 3), !dbg !2344
  %10 = load i32, i32* %arrayidx, align 4, !dbg !2344, !tbaa !1525
  %base.add.ptr87 = bitcast i32* %add.ptr8 to i8*, !dbg !2345
  call void @llvm.x86.bndclrr(x86_bnd %array.bnd, i8* %base.add.ptr87), !dbg !2345
  store i32 %10, i32* %add.ptr8, align 4, !dbg !2345, !tbaa !1525
  %base.arrayidx8 = bitcast i32* %arrayidx to i8*, !dbg !2346
  call void @llvm.x86.bndclrr(x86_bnd %array.bnd, i8* %base.arrayidx8), !dbg !2346
  call void @llvm.x86.bndcurm(x86_bnd %array.bnd, i8* %base.arrayidx8, i64 0, i8 1, i32 3), !dbg !2346
  store i32 %9, i32* %arrayidx, align 4, !dbg !2346, !tbaa !1525
  tail call void @llvm.dbg.value(metadata i32* %add.ptr10, i64 0, metadata !2310, metadata !1520), !dbg !2347
  tail call void @llvm.dbg.value(metadata i32* %add.ptr12, i64 0, metadata !2317, metadata !1520), !dbg !2349
  %base.add.ptr129 = bitcast i32* %add.ptr12 to i8*, !dbg !2350
  call void @llvm.x86.bndclrr(x86_bnd %temp.bnd, i8* %base.add.ptr129), !dbg !2350
  call void @llvm.x86.bndcurm(x86_bnd %temp.bnd, i8* %base.add.ptr129, i64 0, i8 1, i32 3), !dbg !2350
  %11 = load i32, i32* %add.ptr12, align 4, !dbg !2350, !tbaa !1525
  tail call void @llvm.dbg.value(metadata i32 %11, i64 0, metadata !2318, metadata !1520), !dbg !2351
  %base.add.ptr1010 = bitcast i32* %add.ptr10 to i8*, !dbg !2352
  call void @llvm.x86.bndclrr(x86_bnd %temp.bnd, i8* %base.add.ptr1010), !dbg !2352
  call void @llvm.x86.bndcurm(x86_bnd %temp.bnd, i8* %base.add.ptr1010, i64 0, i8 1, i32 3), !dbg !2352
  %12 = load i32, i32* %add.ptr10, align 4, !dbg !2352, !tbaa !1525
  %base.add.ptr1211 = bitcast i32* %add.ptr12 to i8*, !dbg !2353
  call void @llvm.x86.bndclrr(x86_bnd %temp.bnd, i8* %base.add.ptr1211), !dbg !2353
  store i32 %12, i32* %add.ptr12, align 4, !dbg !2353, !tbaa !1525
  %base.add.ptr1012 = bitcast i32* %add.ptr10 to i8*, !dbg !2354
  call void @llvm.x86.bndclrr(x86_bnd %temp.bnd, i8* %base.add.ptr1012), !dbg !2354
  call void @llvm.x86.bndcurm(x86_bnd %temp.bnd, i8* %base.add.ptr1012, i64 0, i8 1, i32 3), !dbg !2354
  store i32 %11, i32* %add.ptr10, align 4, !dbg !2354, !tbaa !1525
  ret i32 %2, !dbg !2355
}

define void @_Z7inssortPiS_ii(i32* nocapture %array, i32* nocapture %temp, i32 %i, i32 %j, x86_bnd %array.bnd, x86_bnd %temp.bnd) local_unnamed_addr {
entry:
  tail call void @llvm.dbg.value(metadata !1120, i64 0, metadata !2356, metadata !1520), !dbg !2369
  tail call void @llvm.dbg.value(metadata !1120, i64 0, metadata !2361, metadata !1520), !dbg !2370
  tail call void @llvm.dbg.value(metadata !1120, i64 0, metadata !2362, metadata !1520), !dbg !2371
  tail call void @llvm.dbg.value(metadata !1120, i64 0, metadata !2363, metadata !1520), !dbg !2372
  %cmp37 = icmp slt i32 %i, %j, !dbg !2373
  br i1 %cmp37, label %for.cond1.preheader.preheader, label %for.cond.cleanup, !dbg !2375

for.cond1.preheader.preheader:                    ; preds = %entry
  %0 = sext i32 %i to i64
  br label %for.cond1.preheader

for.cond.loopexit.loopexit:                       ; preds = %for.body7, %land.rhs
  br label %for.cond.loopexit, !dbg !2373

for.cond.loopexit:                                ; preds = %for.cond.loopexit.loopexit, %for.cond1.preheader
  %exitcond = icmp eq i32 %k.038, %j, !dbg !2373
  br i1 %exitcond, label %for.cond.cleanup.loopexit, label %for.cond1.preheader, !dbg !2375

for.cond1.preheader:                              ; preds = %for.cond.loopexit, %for.cond1.preheader.preheader
  %indvars.iv.in = phi i64 [ %0, %for.cond1.preheader.preheader ], [ %indvars.iv, %for.cond.loopexit ]
  %k.038.in = phi i32 [ %i, %for.cond1.preheader.preheader ], [ %k.038, %for.cond.loopexit ]
  %indvars.iv = add i64 %indvars.iv.in, 1
  %k.038 = add nsw i32 %k.038.in, 1
  tail call void @llvm.dbg.value(metadata i32 %k.038, i64 0, metadata !2366, metadata !1520), !dbg !2377
  %cmp234 = icmp slt i32 %k.038.in, %i, !dbg !2378
  br i1 %cmp234, label %for.cond.loopexit, label %land.rhs.preheader, !dbg !2381, !llvm.loop !2382

land.rhs.preheader:                               ; preds = %for.cond1.preheader
  br label %land.rhs, !dbg !2385

for.cond.cleanup.loopexit:                        ; preds = %for.cond.loopexit
  br label %for.cond.cleanup, !dbg !2387

for.cond.cleanup:                                 ; preds = %for.cond.cleanup.loopexit, %entry
  ret void, !dbg !2387

land.rhs:                                         ; preds = %land.rhs.preheader, %for.body7
  %indvars.iv39 = phi i64 [ %indvars.iv.next40, %for.body7 ], [ %indvars.iv, %land.rhs.preheader ]
  %arrayidx = getelementptr inbounds i32, i32* %array, i64 %indvars.iv39, !dbg !2385
  %base.arrayidx = bitcast i32* %arrayidx to i8*, !dbg !2385
  call void @llvm.x86.bndclrr(x86_bnd %array.bnd, i8* %base.arrayidx), !dbg !2385
  %1 = load i32, i32* %arrayidx, align 4, !dbg !2385, !tbaa !1525
  %indvars.iv.next40 = add nsw i64 %indvars.iv39, -1, !dbg !2388
  %arrayidx4 = getelementptr inbounds i32, i32* %array, i64 %indvars.iv.next40, !dbg !2389
  %base.arrayidx4 = bitcast i32* %arrayidx4 to i8*, !dbg !2389
  call void @llvm.x86.bndclrr(x86_bnd %array.bnd, i8* %base.arrayidx4), !dbg !2389
  %2 = load i32, i32* %arrayidx4, align 4, !dbg !2389, !tbaa !1525
  %cmp5 = icmp sgt i32 %1, %2, !dbg !2390
  br i1 %cmp5, label %for.body7, label %for.cond.loopexit.loopexit, !dbg !2391, !llvm.loop !2382

for.body7:                                        ; preds = %land.rhs
  %add.ptr10 = getelementptr inbounds i32, i32* %arrayidx, i64 -1, !dbg !2393
  tail call void @llvm.dbg.value(metadata i32* %arrayidx, i64 0, metadata !2310, metadata !1520), !dbg !2395
  tail call void @llvm.dbg.value(metadata i32* %add.ptr10, i64 0, metadata !2317, metadata !1520), !dbg !2397
  tail call void @llvm.dbg.value(metadata i32 %2, i64 0, metadata !2318, metadata !1520), !dbg !2398
  %base.add.ptr10 = bitcast i32* %arrayidx to i8*, !dbg !2399
  call void @llvm.x86.bndclrm(x86_bnd %array.bnd, i8* %base.add.ptr10, i64 0, i8 1, i32 -4), !dbg !2399
  call void @llvm.x86.bndcurm(x86_bnd %array.bnd, i8* %base.add.ptr10, i64 0, i8 1, i32 -1), !dbg !2399
  store i32 %1, i32* %add.ptr10, align 4, !dbg !2399, !tbaa !1525
  %base.arrayidx1 = bitcast i32* %arrayidx to i8*, !dbg !2400
  call void @llvm.x86.bndclrr(x86_bnd %array.bnd, i8* %base.arrayidx1), !dbg !2400
  store i32 %2, i32* %arrayidx, align 4, !dbg !2400, !tbaa !1525
  %add.ptr12 = getelementptr inbounds i32, i32* %temp, i64 %indvars.iv39, !dbg !2401
  %add.ptr15 = getelementptr inbounds i32, i32* %add.ptr12, i64 -1, !dbg !2402
  tail call void @llvm.dbg.value(metadata i32* %add.ptr12, i64 0, metadata !2310, metadata !1520), !dbg !2403
  tail call void @llvm.dbg.value(metadata i32* %add.ptr15, i64 0, metadata !2317, metadata !1520), !dbg !2405
  %base.add.ptr15 = bitcast i32* %add.ptr12 to i8*, !dbg !2406
  call void @llvm.x86.bndclrm(x86_bnd %temp.bnd, i8* %base.add.ptr15, i64 0, i8 1, i32 -4), !dbg !2406
  call void @llvm.x86.bndcurm(x86_bnd %temp.bnd, i8* %base.add.ptr15, i64 0, i8 1, i32 -1), !dbg !2406
  %3 = load i32, i32* %add.ptr15, align 4, !dbg !2406, !tbaa !1525
  tail call void @llvm.dbg.value(metadata i32 %3, i64 0, metadata !2318, metadata !1520), !dbg !2407
  %base.add.ptr12 = bitcast i32* %add.ptr12 to i8*, !dbg !2408
  call void @llvm.x86.bndclrr(x86_bnd %temp.bnd, i8* %base.add.ptr12), !dbg !2408
  call void @llvm.x86.bndcurm(x86_bnd %temp.bnd, i8* %base.add.ptr12, i64 0, i8 1, i32 3), !dbg !2408
  %4 = load i32, i32* %add.ptr12, align 4, !dbg !2408, !tbaa !1525
  %base.add.ptr152 = bitcast i32* %add.ptr12 to i8*, !dbg !2409
  call void @llvm.x86.bndclrm(x86_bnd %temp.bnd, i8* %base.add.ptr152, i64 0, i8 1, i32 -4), !dbg !2409
  call void @llvm.x86.bndcurm(x86_bnd %temp.bnd, i8* %base.add.ptr152, i64 0, i8 1, i32 -1), !dbg !2409
  store i32 %4, i32* %add.ptr15, align 4, !dbg !2409, !tbaa !1525
  %base.add.ptr123 = bitcast i32* %add.ptr12 to i8*, !dbg !2410
  call void @llvm.x86.bndclrr(x86_bnd %temp.bnd, i8* %base.add.ptr123), !dbg !2410
  store i32 %3, i32* %add.ptr12, align 4, !dbg !2410, !tbaa !1525
  %cmp2 = icmp sgt i64 %indvars.iv.next40, %0, !dbg !2378
  br i1 %cmp2, label %land.rhs, label %for.cond.loopexit.loopexit, !dbg !2381, !llvm.loop !2411
}

define void @_Z4sortPiS_ii(i32* %array, i32* %temp, i32 %i, i32 %j, x86_bnd %array.bnd, x86_bnd %temp.bnd) local_unnamed_addr {
entry:
  tail call void @llvm.dbg.value(metadata !1120, i64 0, metadata !2414, metadata !1520), !dbg !2424
  tail call void @llvm.dbg.value(metadata !1120, i64 0, metadata !2417, metadata !1520), !dbg !2425
  tail call void @llvm.dbg.value(metadata !1120, i64 0, metadata !2418, metadata !1520), !dbg !2426
  tail call void @llvm.dbg.value(metadata !1120, i64 0, metadata !2419, metadata !1520), !dbg !2427
  tail call void @llvm.dbg.value(metadata !1120, i64 0, metadata !2418, metadata !1520), !dbg !2426
  %sub66 = sub nsw i32 %j, %i, !dbg !2428
  %cmp67 = icmp slt i32 %sub66, 9, !dbg !2429
  br i1 %cmp67, label %if.then, label %if.else.lr.ph, !dbg !2430

if.else.lr.ph:                                    ; preds = %entry
  %idx.ext1 = sext i32 %j to i64
  %add.ptr2 = getelementptr inbounds i32, i32* %array, i64 %idx.ext1
  %add.ptr6 = getelementptr inbounds i32, i32* %temp, i64 %idx.ext1
  br label %if.else, !dbg !2430

tailrecurse:                                      ; preds = %if.end
  tail call void @llvm.dbg.value(metadata !1120, i64 0, metadata !2414, metadata !1520), !dbg !2424
  tail call void @llvm.dbg.value(metadata !1120, i64 0, metadata !2417, metadata !1520), !dbg !2425
  tail call void @llvm.dbg.value(metadata i32 %add, i64 0, metadata !2418, metadata !1520), !dbg !2426
  tail call void @llvm.dbg.value(metadata !1120, i64 0, metadata !2419, metadata !1520), !dbg !2427
  tail call void @llvm.dbg.value(metadata i32 %add, i64 0, metadata !2418, metadata !1520), !dbg !2426
  %sub = sub nsw i32 %j, %add, !dbg !2428
  %cmp = icmp slt i32 %sub, 9, !dbg !2429
  br i1 %cmp, label %if.then.loopexit, label %if.else, !dbg !2430

if.then.loopexit:                                 ; preds = %tailrecurse
  br label %if.then, !dbg !2431

if.then:                                          ; preds = %if.then.loopexit, %entry
  %i.tr.lcssa = phi i32 [ %i, %entry ], [ %add, %if.then.loopexit ]
  tail call void @llvm.dbg.value(metadata !1120, i64 0, metadata !2356, metadata !1520), !dbg !2431
  tail call void @llvm.dbg.value(metadata !1120, i64 0, metadata !2361, metadata !1520), !dbg !2434
  tail call void @llvm.dbg.value(metadata i32 undef, i64 0, metadata !2362, metadata !1520), !dbg !2435
  tail call void @llvm.dbg.value(metadata !1120, i64 0, metadata !2363, metadata !1520), !dbg !2436
  %cmp37.i = icmp slt i32 %i.tr.lcssa, %j, !dbg !2437
  br i1 %cmp37.i, label %for.cond1.preheader.preheader.i, label %if.end25, !dbg !2438

for.cond1.preheader.preheader.i:                  ; preds = %if.then
  %0 = sext i32 %i.tr.lcssa to i64
  br label %for.cond1.preheader.i

for.cond.loopexit.i.loopexit:                     ; preds = %land.rhs.i, %for.body7.i
  br label %for.cond.loopexit.i, !dbg !2437

for.cond.loopexit.i:                              ; preds = %for.cond.loopexit.i.loopexit, %for.cond1.preheader.i
  %exitcond.i = icmp eq i32 %k.038.i, %j, !dbg !2437
  br i1 %exitcond.i, label %if.end25.loopexit, label %for.cond1.preheader.i, !dbg !2438

for.cond1.preheader.i:                            ; preds = %for.cond.loopexit.i, %for.cond1.preheader.preheader.i
  %indvars.iv.in.i = phi i64 [ %0, %for.cond1.preheader.preheader.i ], [ %indvars.iv.i, %for.cond.loopexit.i ]
  %k.038.in.i = phi i32 [ %i.tr.lcssa, %for.cond1.preheader.preheader.i ], [ %k.038.i, %for.cond.loopexit.i ]
  %indvars.iv.i = add nsw i64 %indvars.iv.in.i, 1
  %k.038.i = add nsw i32 %k.038.in.i, 1
  tail call void @llvm.dbg.value(metadata i32 %k.038.i, i64 0, metadata !2366, metadata !1520), !dbg !2439
  %cmp234.i = icmp slt i32 %k.038.in.i, %i.tr.lcssa, !dbg !2440
  br i1 %cmp234.i, label %for.cond.loopexit.i, label %land.rhs.i.preheader, !dbg !2441, !llvm.loop !2382

land.rhs.i.preheader:                             ; preds = %for.cond1.preheader.i
  br label %land.rhs.i, !dbg !2442

land.rhs.i:                                       ; preds = %land.rhs.i.preheader, %for.body7.i
  %indvars.iv39.i = phi i64 [ %indvars.iv.next40.i, %for.body7.i ], [ %indvars.iv.i, %land.rhs.i.preheader ]
  %arrayidx.i = getelementptr inbounds i32, i32* %array, i64 %indvars.iv39.i, !dbg !2442
  %base.arrayidx.i = bitcast i32* %arrayidx.i to i8*, !dbg !2442
  call void @llvm.x86.bndclrr(x86_bnd %array.bnd, i8* %base.arrayidx.i), !dbg !2442
  %1 = load i32, i32* %arrayidx.i, align 4, !dbg !2442, !tbaa !1525
  %indvars.iv.next40.i = add nsw i64 %indvars.iv39.i, -1, !dbg !2443
  %arrayidx4.i = getelementptr inbounds i32, i32* %array, i64 %indvars.iv.next40.i, !dbg !2444
  %base.arrayidx4.i = bitcast i32* %arrayidx4.i to i8*, !dbg !2444
  call void @llvm.x86.bndclrr(x86_bnd %array.bnd, i8* %base.arrayidx4.i), !dbg !2444
  %2 = load i32, i32* %arrayidx4.i, align 4, !dbg !2444, !tbaa !1525
  %cmp5.i = icmp sgt i32 %1, %2, !dbg !2445
  br i1 %cmp5.i, label %for.body7.i, label %for.cond.loopexit.i.loopexit, !dbg !2446, !llvm.loop !2382

for.body7.i:                                      ; preds = %land.rhs.i
  %add.ptr10.i = getelementptr inbounds i32, i32* %arrayidx.i, i64 -1, !dbg !2447
  tail call void @llvm.dbg.value(metadata i32* %arrayidx.i, i64 0, metadata !2310, metadata !1520), !dbg !2448
  tail call void @llvm.dbg.value(metadata i32* %add.ptr10.i, i64 0, metadata !2317, metadata !1520), !dbg !2450
  tail call void @llvm.dbg.value(metadata i32 %2, i64 0, metadata !2318, metadata !1520), !dbg !2451
  %base.add.ptr10.i = bitcast i32* %arrayidx.i to i8*, !dbg !2452
  call void @llvm.x86.bndclrm(x86_bnd %array.bnd, i8* %base.add.ptr10.i, i64 0, i8 1, i32 -4), !dbg !2452
  call void @llvm.x86.bndcurm(x86_bnd %array.bnd, i8* %base.add.ptr10.i, i64 0, i8 1, i32 -1), !dbg !2452
  store i32 %1, i32* %add.ptr10.i, align 4, !dbg !2452, !tbaa !1525
  %base.arrayidx.i1 = bitcast i32* %arrayidx.i to i8*, !dbg !2453
  call void @llvm.x86.bndclrr(x86_bnd %array.bnd, i8* %base.arrayidx.i1), !dbg !2453
  store i32 %2, i32* %arrayidx.i, align 4, !dbg !2453, !tbaa !1525
  %add.ptr12.i = getelementptr inbounds i32, i32* %temp, i64 %indvars.iv39.i, !dbg !2454
  %add.ptr15.i = getelementptr inbounds i32, i32* %add.ptr12.i, i64 -1, !dbg !2455
  tail call void @llvm.dbg.value(metadata i32* %add.ptr12.i, i64 0, metadata !2310, metadata !1520), !dbg !2456
  tail call void @llvm.dbg.value(metadata i32* %add.ptr15.i, i64 0, metadata !2317, metadata !1520), !dbg !2458
  %base.add.ptr15.i = bitcast i32* %add.ptr12.i to i8*, !dbg !2459
  call void @llvm.x86.bndclrm(x86_bnd %temp.bnd, i8* %base.add.ptr15.i, i64 0, i8 1, i32 -4), !dbg !2459
  call void @llvm.x86.bndcurm(x86_bnd %temp.bnd, i8* %base.add.ptr15.i, i64 0, i8 1, i32 -1), !dbg !2459
  %3 = load i32, i32* %add.ptr15.i, align 4, !dbg !2459, !tbaa !1525
  tail call void @llvm.dbg.value(metadata i32 %3, i64 0, metadata !2318, metadata !1520), !dbg !2460
  %base.add.ptr12.i = bitcast i32* %add.ptr12.i to i8*, !dbg !2461
  call void @llvm.x86.bndclrr(x86_bnd %temp.bnd, i8* %base.add.ptr12.i), !dbg !2461
  call void @llvm.x86.bndcurm(x86_bnd %temp.bnd, i8* %base.add.ptr12.i, i64 0, i8 1, i32 3), !dbg !2461
  %4 = load i32, i32* %add.ptr12.i, align 4, !dbg !2461, !tbaa !1525
  %base.add.ptr15.i2 = bitcast i32* %add.ptr12.i to i8*, !dbg !2462
  call void @llvm.x86.bndclrm(x86_bnd %temp.bnd, i8* %base.add.ptr15.i2, i64 0, i8 1, i32 -4), !dbg !2462
  call void @llvm.x86.bndcurm(x86_bnd %temp.bnd, i8* %base.add.ptr15.i2, i64 0, i8 1, i32 -1), !dbg !2462
  store i32 %4, i32* %add.ptr15.i, align 4, !dbg !2462, !tbaa !1525
  %base.add.ptr12.i3 = bitcast i32* %add.ptr12.i to i8*, !dbg !2463
  call void @llvm.x86.bndclrr(x86_bnd %temp.bnd, i8* %base.add.ptr12.i3), !dbg !2463
  store i32 %3, i32* %add.ptr12.i, align 4, !dbg !2463, !tbaa !1525
  %cmp2.i = icmp sgt i64 %indvars.iv.next40.i, %0, !dbg !2440
  br i1 %cmp2.i, label %land.rhs.i, label %for.cond.loopexit.i.loopexit, !dbg !2441, !llvm.loop !2411

if.else:                                          ; preds = %if.else.lr.ph, %tailrecurse
  %i.tr68 = phi i32 [ %i, %if.else.lr.ph ], [ %add, %tailrecurse ]
  %add.i = add nsw i32 %i.tr68, %j, !dbg !2464
  %div.i = sdiv i32 %add.i, 2, !dbg !2466
  tail call void @llvm.dbg.value(metadata i32 %div.i, i64 0, metadata !2420, metadata !1520), !dbg !2467
  %idx.ext = sext i32 %div.i to i64, !dbg !2468
  %add.ptr = getelementptr inbounds i32, i32* %array, i64 %idx.ext, !dbg !2468
  tail call void @llvm.dbg.value(metadata !1120, i64 0, metadata !2419, metadata !1520), !dbg !2427
  tail call void @llvm.dbg.value(metadata i32* %add.ptr, i64 0, metadata !2310, metadata !1520), !dbg !2469
  tail call void @llvm.dbg.value(metadata i32* %add.ptr2, i64 0, metadata !2317, metadata !1520), !dbg !2471
  %base.add.ptr2 = bitcast i32* %add.ptr2 to i8*, !dbg !2472
  call void @llvm.x86.bndclrr(x86_bnd %array.bnd, i8* %base.add.ptr2), !dbg !2472
  call void @llvm.x86.bndcurm(x86_bnd %array.bnd, i8* %base.add.ptr2, i64 0, i8 1, i32 3), !dbg !2472
  %5 = load i32, i32* %add.ptr2, align 4, !dbg !2472, !tbaa !1525
  tail call void @llvm.dbg.value(metadata i32 %5, i64 0, metadata !2318, metadata !1520), !dbg !2473
  %base.add.ptr = bitcast i32* %add.ptr to i8*, !dbg !2474
  call void @llvm.x86.bndclrr(x86_bnd %array.bnd, i8* %base.add.ptr), !dbg !2474
  call void @llvm.x86.bndcurm(x86_bnd %array.bnd, i8* %base.add.ptr, i64 0, i8 1, i32 3), !dbg !2474
  %6 = load i32, i32* %add.ptr, align 4, !dbg !2474, !tbaa !1525
  %base.add.ptr24 = bitcast i32* %add.ptr2 to i8*, !dbg !2475
  call void @llvm.x86.bndclrr(x86_bnd %array.bnd, i8* %base.add.ptr24), !dbg !2475
  call void @llvm.x86.bndcurm(x86_bnd %array.bnd, i8* %base.add.ptr24, i64 0, i8 1, i32 3), !dbg !2475
  store i32 %6, i32* %add.ptr2, align 4, !dbg !2475, !tbaa !1525
  %base.add.ptr5 = bitcast i32* %add.ptr to i8*, !dbg !2476
  call void @llvm.x86.bndclrr(x86_bnd %array.bnd, i8* %base.add.ptr5), !dbg !2476
  call void @llvm.x86.bndcurm(x86_bnd %array.bnd, i8* %base.add.ptr5, i64 0, i8 1, i32 3), !dbg !2476
  store i32 %5, i32* %add.ptr, align 4, !dbg !2476, !tbaa !1525
  %add.ptr4 = getelementptr inbounds i32, i32* %temp, i64 %idx.ext, !dbg !2477
  tail call void @llvm.dbg.value(metadata !1120, i64 0, metadata !2419, metadata !1520), !dbg !2427
  tail call void @llvm.dbg.value(metadata i32* %add.ptr4, i64 0, metadata !2310, metadata !1520), !dbg !2478
  tail call void @llvm.dbg.value(metadata i32* %add.ptr6, i64 0, metadata !2317, metadata !1520), !dbg !2480
  %base.add.ptr6 = bitcast i32* %add.ptr6 to i8*, !dbg !2481
  call void @llvm.x86.bndclrr(x86_bnd %temp.bnd, i8* %base.add.ptr6), !dbg !2481
  call void @llvm.x86.bndcurm(x86_bnd %temp.bnd, i8* %base.add.ptr6, i64 0, i8 1, i32 3), !dbg !2481
  %7 = load i32, i32* %add.ptr6, align 4, !dbg !2481, !tbaa !1525
  tail call void @llvm.dbg.value(metadata i32 %7, i64 0, metadata !2318, metadata !1520), !dbg !2482
  %base.add.ptr4 = bitcast i32* %add.ptr4 to i8*, !dbg !2483
  call void @llvm.x86.bndclrr(x86_bnd %temp.bnd, i8* %base.add.ptr4), !dbg !2483
  call void @llvm.x86.bndcurm(x86_bnd %temp.bnd, i8* %base.add.ptr4, i64 0, i8 1, i32 3), !dbg !2483
  %8 = load i32, i32* %add.ptr4, align 4, !dbg !2483, !tbaa !1525
  %base.add.ptr66 = bitcast i32* %add.ptr6 to i8*, !dbg !2484
  call void @llvm.x86.bndclrr(x86_bnd %temp.bnd, i8* %base.add.ptr66), !dbg !2484
  store i32 %8, i32* %add.ptr6, align 4, !dbg !2484, !tbaa !1525
  %base.add.ptr47 = bitcast i32* %add.ptr4 to i8*, !dbg !2485
  call void @llvm.x86.bndclrr(x86_bnd %temp.bnd, i8* %base.add.ptr47), !dbg !2485
  call void @llvm.x86.bndcurm(x86_bnd %temp.bnd, i8* %base.add.ptr47, i64 0, i8 1, i32 3), !dbg !2485
  store i32 %7, i32* %add.ptr4, align 4, !dbg !2485, !tbaa !1525
  tail call void @llvm.dbg.value(metadata i32 %i.tr68, i64 0, metadata !2418, metadata !1520), !dbg !2426
  %sub7 = add nsw i32 %i.tr68, -1, !dbg !2486
  tail call void @llvm.dbg.value(metadata !1120, i64 0, metadata !2419, metadata !1520), !dbg !2427
  %base.add.ptr28 = bitcast i32* %add.ptr2 to i8*, !dbg !2487
  call void @llvm.x86.bndclrr(x86_bnd %array.bnd, i8* %base.add.ptr28), !dbg !2487
  %9 = load i32, i32* %add.ptr2, align 4, !dbg !2487, !tbaa !1525
  tail call void @llvm.dbg.value(metadata !1120, i64 0, metadata !2272, metadata !1520), !dbg !2488
  tail call void @llvm.dbg.value(metadata !1120, i64 0, metadata !2277, metadata !1520), !dbg !2490
  tail call void @llvm.dbg.value(metadata i32 %sub7, i64 0, metadata !2278, metadata !1520), !dbg !2491
  tail call void @llvm.dbg.value(metadata !1120, i64 0, metadata !2279, metadata !1520), !dbg !2492
  tail call void @llvm.dbg.value(metadata i32 %9, i64 0, metadata !2280, metadata !1520), !dbg !2493
  br label %do.body.i, !dbg !2494, !llvm.loop !2287

do.body.i:                                        ; preds = %while.end6.i, %if.else
  %r.addr.0.i = phi i32 [ %j, %if.else ], [ %r.addr.2.i, %while.end6.i ]
  %l.addr.0.i = phi i32 [ %sub7, %if.else ], [ %12, %while.end6.i ]
  tail call void @llvm.dbg.value(metadata i32 %l.addr.0.i, i64 0, metadata !2278, metadata !1520), !dbg !2491
  tail call void @llvm.dbg.value(metadata i32 %r.addr.0.i, i64 0, metadata !2279, metadata !1520), !dbg !2492
  %10 = sext i32 %l.addr.0.i to i64, !dbg !2495
  br label %while.cond.i, !dbg !2495

while.cond.i:                                     ; preds = %while.cond.i, %do.body.i
  %indvars.iv.i49 = phi i64 [ %indvars.iv.next.i, %while.cond.i ], [ %10, %do.body.i ]
  tail call void @llvm.dbg.value(metadata i32 undef, i64 0, metadata !2278, metadata !1520), !dbg !2491
  %indvars.iv.next.i = add nsw i64 %indvars.iv.i49, 1, !dbg !2496
  %arrayidx.i50 = getelementptr inbounds i32, i32* %array, i64 %indvars.iv.next.i, !dbg !2497
  %base.arrayidx.i50 = bitcast i32* %arrayidx.i50 to i8*, !dbg !2497
  call void @llvm.x86.bndclrr(x86_bnd %array.bnd, i8* %base.arrayidx.i50), !dbg !2497
  call void @llvm.x86.bndcurm(x86_bnd %array.bnd, i8* %base.arrayidx.i50, i64 0, i8 1, i32 3), !dbg !2497
  %11 = load i32, i32* %arrayidx.i50, align 4, !dbg !2497, !tbaa !1525
  %cmp.i = icmp sgt i32 %11, %9, !dbg !2498
  br i1 %cmp.i, label %while.cond.i, label %while.cond1.i, !dbg !2499, !llvm.loop !2296

while.cond1.i:                                    ; preds = %while.cond.i
  %12 = trunc i64 %indvars.iv.next.i to i32, !dbg !2500
  %tobool.old.i = icmp eq i32 %r.addr.0.i, 0, !dbg !2500
  br i1 %tobool.old.i, label %while.end6.i, label %land.rhs.preheader.i, !dbg !2501

land.rhs.preheader.i:                             ; preds = %while.cond1.i
  %13 = sext i32 %r.addr.0.i to i64, !dbg !2492
  br label %land.rhs.i51, !dbg !2492

land.rhs.i51:                                     ; preds = %land.rhs.i51, %land.rhs.preheader.i
  %indvars.iv44.i = phi i64 [ %13, %land.rhs.preheader.i ], [ %indvars.iv.next45.i, %land.rhs.i51 ]
  tail call void @llvm.dbg.value(metadata i32 undef, i64 0, metadata !2279, metadata !1520), !dbg !2492
  %indvars.iv.next45.i = add nsw i64 %indvars.iv44.i, -1, !dbg !2502
  %arrayidx3.i = getelementptr inbounds i32, i32* %array, i64 %indvars.iv.next45.i, !dbg !2503
  %base.arrayidx3.i = bitcast i32* %arrayidx3.i to i8*, !dbg !2503
  call void @llvm.x86.bndclrr(x86_bnd %array.bnd, i8* %base.arrayidx3.i), !dbg !2503
  call void @llvm.x86.bndcurm(x86_bnd %array.bnd, i8* %base.arrayidx3.i, i64 0, i8 1, i32 3), !dbg !2503
  %14 = load i32, i32* %arrayidx3.i, align 4, !dbg !2503, !tbaa !1525
  %cmp4.i = icmp slt i32 %14, %9, !dbg !2504
  %15 = trunc i64 %indvars.iv.next45.i to i32, !dbg !2500
  %tobool.i = icmp ne i32 %15, 0, !dbg !2500
  %or.cond.i = and i1 %cmp4.i, %tobool.i, !dbg !2505
  br i1 %or.cond.i, label %land.rhs.i51, label %while.end6.i.loopexit, !dbg !2505, !llvm.loop !2306

while.end6.i.loopexit:                            ; preds = %land.rhs.i51
  br label %while.end6.i, !dbg !2492

while.end6.i:                                     ; preds = %while.end6.i.loopexit, %while.cond1.i
  %r.addr.2.i = phi i32 [ 0, %while.cond1.i ], [ %15, %while.end6.i.loopexit ]
  tail call void @llvm.dbg.value(metadata i32 %r.addr.2.i, i64 0, metadata !2279, metadata !1520), !dbg !2492
  %idx.ext7.i = sext i32 %r.addr.2.i to i64, !dbg !2506
  %add.ptr8.i = getelementptr inbounds i32, i32* %array, i64 %idx.ext7.i, !dbg !2506
  tail call void @llvm.dbg.value(metadata i32* %arrayidx.i50, i64 0, metadata !2310, metadata !1520), !dbg !2507
  tail call void @llvm.dbg.value(metadata i32* %add.ptr8.i, i64 0, metadata !2317, metadata !1520), !dbg !2509
  %base.add.ptr8.i = bitcast i32* %add.ptr8.i to i8*, !dbg !2510
  call void @llvm.x86.bndclrr(x86_bnd %array.bnd, i8* %base.add.ptr8.i), !dbg !2510
  call void @llvm.x86.bndcurm(x86_bnd %array.bnd, i8* %base.add.ptr8.i, i64 0, i8 1, i32 3), !dbg !2510
  %16 = load i32, i32* %add.ptr8.i, align 4, !dbg !2510, !tbaa !1525
  tail call void @llvm.dbg.value(metadata i32 %16, i64 0, metadata !2318, metadata !1520), !dbg !2511
  %base.add.ptr8.i9 = bitcast i32* %add.ptr8.i to i8*, !dbg !2512
  call void @llvm.x86.bndclrr(x86_bnd %array.bnd, i8* %base.add.ptr8.i9), !dbg !2512
  store i32 %11, i32* %add.ptr8.i, align 4, !dbg !2512, !tbaa !1525
  %base.arrayidx.i5010 = bitcast i32* %arrayidx.i50 to i8*, !dbg !2513
  call void @llvm.x86.bndclrr(x86_bnd %array.bnd, i8* %base.arrayidx.i5010), !dbg !2513
  call void @llvm.x86.bndcurm(x86_bnd %array.bnd, i8* %base.arrayidx.i5010, i64 0, i8 1, i32 3), !dbg !2513
  store i32 %16, i32* %arrayidx.i50, align 4, !dbg !2513, !tbaa !1525
  %add.ptr10.i52 = getelementptr inbounds i32, i32* %temp, i64 %indvars.iv.next.i, !dbg !2514
  %add.ptr12.i53 = getelementptr inbounds i32, i32* %temp, i64 %idx.ext7.i, !dbg !2515
  tail call void @llvm.dbg.value(metadata i32* %add.ptr10.i52, i64 0, metadata !2310, metadata !1520), !dbg !2516
  tail call void @llvm.dbg.value(metadata i32* %add.ptr12.i53, i64 0, metadata !2317, metadata !1520), !dbg !2518
  %base.add.ptr12.i53 = bitcast i32* %add.ptr12.i53 to i8*, !dbg !2519
  call void @llvm.x86.bndclrr(x86_bnd %temp.bnd, i8* %base.add.ptr12.i53), !dbg !2519
  call void @llvm.x86.bndcurm(x86_bnd %temp.bnd, i8* %base.add.ptr12.i53, i64 0, i8 1, i32 3), !dbg !2519
  %17 = load i32, i32* %add.ptr12.i53, align 4, !dbg !2519, !tbaa !1525
  tail call void @llvm.dbg.value(metadata i32 %17, i64 0, metadata !2318, metadata !1520), !dbg !2520
  %base.add.ptr10.i52 = bitcast i32* %add.ptr10.i52 to i8*, !dbg !2521
  call void @llvm.x86.bndclrr(x86_bnd %temp.bnd, i8* %base.add.ptr10.i52), !dbg !2521
  call void @llvm.x86.bndcurm(x86_bnd %temp.bnd, i8* %base.add.ptr10.i52, i64 0, i8 1, i32 3), !dbg !2521
  %18 = load i32, i32* %add.ptr10.i52, align 4, !dbg !2521, !tbaa !1525
  %base.add.ptr12.i5311 = bitcast i32* %add.ptr12.i53 to i8*, !dbg !2522
  call void @llvm.x86.bndclrr(x86_bnd %temp.bnd, i8* %base.add.ptr12.i5311), !dbg !2522
  store i32 %18, i32* %add.ptr12.i53, align 4, !dbg !2522, !tbaa !1525
  %base.add.ptr10.i5212 = bitcast i32* %add.ptr10.i52 to i8*, !dbg !2523
  call void @llvm.x86.bndclrr(x86_bnd %temp.bnd, i8* %base.add.ptr10.i5212), !dbg !2523
  call void @llvm.x86.bndcurm(x86_bnd %temp.bnd, i8* %base.add.ptr10.i5212, i64 0, i8 1, i32 3), !dbg !2523
  store i32 %17, i32* %add.ptr10.i52, align 4, !dbg !2523, !tbaa !1525
  %cmp13.i = icmp slt i32 %12, %r.addr.2.i, !dbg !2524
  br i1 %cmp13.i, label %do.body.i, label %_Z9partitionPiS_iii.exit, !dbg !2525, !llvm.loop !2287

_Z9partitionPiS_iii.exit:                         ; preds = %while.end6.i
  tail call void @llvm.dbg.value(metadata i32* %arrayidx.i50, i64 0, metadata !2310, metadata !1520), !dbg !2526
  tail call void @llvm.dbg.value(metadata i32* %add.ptr8.i, i64 0, metadata !2317, metadata !1520), !dbg !2528
  %base.add.ptr8.i13 = bitcast i32* %add.ptr8.i to i8*, !dbg !2529
  call void @llvm.x86.bndclrr(x86_bnd %array.bnd, i8* %base.add.ptr8.i13), !dbg !2529
  call void @llvm.x86.bndcurm(x86_bnd %array.bnd, i8* %base.add.ptr8.i13, i64 0, i8 1, i32 3), !dbg !2529
  %19 = load i32, i32* %add.ptr8.i, align 4, !dbg !2529, !tbaa !1525
  tail call void @llvm.dbg.value(metadata i32 %19, i64 0, metadata !2318, metadata !1520), !dbg !2530
  %base.arrayidx.i5014 = bitcast i32* %arrayidx.i50 to i8*, !dbg !2531
  call void @llvm.x86.bndclrr(x86_bnd %array.bnd, i8* %base.arrayidx.i5014), !dbg !2531
  call void @llvm.x86.bndcurm(x86_bnd %array.bnd, i8* %base.arrayidx.i5014, i64 0, i8 1, i32 3), !dbg !2531
  %20 = load i32, i32* %arrayidx.i50, align 4, !dbg !2531, !tbaa !1525
  %base.add.ptr8.i15 = bitcast i32* %add.ptr8.i to i8*, !dbg !2532
  call void @llvm.x86.bndclrr(x86_bnd %array.bnd, i8* %base.add.ptr8.i15), !dbg !2532
  store i32 %20, i32* %add.ptr8.i, align 4, !dbg !2532, !tbaa !1525
  %base.arrayidx.i5016 = bitcast i32* %arrayidx.i50 to i8*, !dbg !2533
  call void @llvm.x86.bndclrr(x86_bnd %array.bnd, i8* %base.arrayidx.i5016), !dbg !2533
  call void @llvm.x86.bndcurm(x86_bnd %array.bnd, i8* %base.arrayidx.i5016, i64 0, i8 1, i32 3), !dbg !2533
  store i32 %19, i32* %arrayidx.i50, align 4, !dbg !2533, !tbaa !1525
  tail call void @llvm.dbg.value(metadata i32* %add.ptr10.i52, i64 0, metadata !2310, metadata !1520), !dbg !2534
  tail call void @llvm.dbg.value(metadata i32* %add.ptr12.i53, i64 0, metadata !2317, metadata !1520), !dbg !2536
  %base.add.ptr12.i5317 = bitcast i32* %add.ptr12.i53 to i8*, !dbg !2537
  call void @llvm.x86.bndclrr(x86_bnd %temp.bnd, i8* %base.add.ptr12.i5317), !dbg !2537
  call void @llvm.x86.bndcurm(x86_bnd %temp.bnd, i8* %base.add.ptr12.i5317, i64 0, i8 1, i32 3), !dbg !2537
  %21 = load i32, i32* %add.ptr12.i53, align 4, !dbg !2537, !tbaa !1525
  tail call void @llvm.dbg.value(metadata i32 %21, i64 0, metadata !2318, metadata !1520), !dbg !2538
  %base.add.ptr10.i5218 = bitcast i32* %add.ptr10.i52 to i8*, !dbg !2539
  call void @llvm.x86.bndclrr(x86_bnd %temp.bnd, i8* %base.add.ptr10.i5218), !dbg !2539
  call void @llvm.x86.bndcurm(x86_bnd %temp.bnd, i8* %base.add.ptr10.i5218, i64 0, i8 1, i32 3), !dbg !2539
  %22 = load i32, i32* %add.ptr10.i52, align 4, !dbg !2539, !tbaa !1525
  %base.add.ptr12.i5319 = bitcast i32* %add.ptr12.i53 to i8*, !dbg !2540
  call void @llvm.x86.bndclrr(x86_bnd %temp.bnd, i8* %base.add.ptr12.i5319), !dbg !2540
  store i32 %22, i32* %add.ptr12.i53, align 4, !dbg !2540, !tbaa !1525
  %base.add.ptr10.i5220 = bitcast i32* %add.ptr10.i52 to i8*, !dbg !2541
  call void @llvm.x86.bndclrr(x86_bnd %temp.bnd, i8* %base.add.ptr10.i5220), !dbg !2541
  call void @llvm.x86.bndcurm(x86_bnd %temp.bnd, i8* %base.add.ptr10.i5220, i64 0, i8 1, i32 3), !dbg !2541
  store i32 %21, i32* %add.ptr10.i52, align 4, !dbg !2541, !tbaa !1525
  tail call void @llvm.dbg.value(metadata i32 %12, i64 0, metadata !2423, metadata !1520), !dbg !2542
  %sext = shl i64 %indvars.iv.next.i, 32, !dbg !2543
  %idx.ext9 = ashr exact i64 %sext, 32, !dbg !2543
  %add.ptr10 = getelementptr inbounds i32, i32* %array, i64 %idx.ext9, !dbg !2543
  tail call void @llvm.dbg.value(metadata !1120, i64 0, metadata !2419, metadata !1520), !dbg !2427
  tail call void @llvm.dbg.value(metadata i32* %add.ptr10, i64 0, metadata !2310, metadata !1520), !dbg !2544
  tail call void @llvm.dbg.value(metadata i32* %add.ptr2, i64 0, metadata !2317, metadata !1520), !dbg !2546
  %base.add.ptr221 = bitcast i32* %add.ptr2 to i8*, !dbg !2547
  call void @llvm.x86.bndclrr(x86_bnd %array.bnd, i8* %base.add.ptr221), !dbg !2547
  call void @llvm.x86.bndcurm(x86_bnd %array.bnd, i8* %base.add.ptr221, i64 0, i8 1, i32 3), !dbg !2547
  %23 = load i32, i32* %add.ptr2, align 4, !dbg !2547, !tbaa !1525
  tail call void @llvm.dbg.value(metadata i32 %23, i64 0, metadata !2318, metadata !1520), !dbg !2548
  %base.add.ptr10 = bitcast i32* %add.ptr10 to i8*, !dbg !2549
  call void @llvm.x86.bndclrr(x86_bnd %array.bnd, i8* %base.add.ptr10), !dbg !2549
  call void @llvm.x86.bndcurm(x86_bnd %array.bnd, i8* %base.add.ptr10, i64 0, i8 1, i32 3), !dbg !2549
  %24 = load i32, i32* %add.ptr10, align 4, !dbg !2549, !tbaa !1525
  %base.add.ptr222 = bitcast i32* %add.ptr2 to i8*, !dbg !2550
  call void @llvm.x86.bndclrr(x86_bnd %array.bnd, i8* %base.add.ptr222), !dbg !2550
  call void @llvm.x86.bndcurm(x86_bnd %array.bnd, i8* %base.add.ptr222, i64 0, i8 1, i32 3), !dbg !2550
  store i32 %24, i32* %add.ptr2, align 4, !dbg !2550, !tbaa !1525
  %base.add.ptr1023 = bitcast i32* %add.ptr10 to i8*, !dbg !2551
  call void @llvm.x86.bndclrr(x86_bnd %array.bnd, i8* %base.add.ptr1023), !dbg !2551
  call void @llvm.x86.bndcurm(x86_bnd %array.bnd, i8* %base.add.ptr1023, i64 0, i8 1, i32 3), !dbg !2551
  store i32 %23, i32* %add.ptr10, align 4, !dbg !2551, !tbaa !1525
  %add.ptr14 = getelementptr inbounds i32, i32* %temp, i64 %idx.ext9, !dbg !2552
  tail call void @llvm.dbg.value(metadata !1120, i64 0, metadata !2419, metadata !1520), !dbg !2427
  tail call void @llvm.dbg.value(metadata i32* %add.ptr14, i64 0, metadata !2310, metadata !1520), !dbg !2553
  tail call void @llvm.dbg.value(metadata i32* %add.ptr6, i64 0, metadata !2317, metadata !1520), !dbg !2555
  %base.add.ptr624 = bitcast i32* %add.ptr6 to i8*, !dbg !2556
  call void @llvm.x86.bndclrr(x86_bnd %temp.bnd, i8* %base.add.ptr624), !dbg !2556
  call void @llvm.x86.bndcurm(x86_bnd %temp.bnd, i8* %base.add.ptr624, i64 0, i8 1, i32 3), !dbg !2556
  %25 = load i32, i32* %add.ptr6, align 4, !dbg !2556, !tbaa !1525
  tail call void @llvm.dbg.value(metadata i32 %25, i64 0, metadata !2318, metadata !1520), !dbg !2557
  %base.add.ptr14 = bitcast i32* %add.ptr14 to i8*, !dbg !2558
  call void @llvm.x86.bndclrr(x86_bnd %temp.bnd, i8* %base.add.ptr14), !dbg !2558
  call void @llvm.x86.bndcurm(x86_bnd %temp.bnd, i8* %base.add.ptr14, i64 0, i8 1, i32 3), !dbg !2558
  %26 = load i32, i32* %add.ptr14, align 4, !dbg !2558, !tbaa !1525
  %base.add.ptr625 = bitcast i32* %add.ptr6 to i8*, !dbg !2559
  call void @llvm.x86.bndclrr(x86_bnd %temp.bnd, i8* %base.add.ptr625), !dbg !2559
  call void @llvm.x86.bndcurm(x86_bnd %temp.bnd, i8* %base.add.ptr625, i64 0, i8 1, i32 3), !dbg !2559
  store i32 %26, i32* %add.ptr6, align 4, !dbg !2559, !tbaa !1525
  %base.add.ptr1426 = bitcast i32* %add.ptr14 to i8*, !dbg !2560
  call void @llvm.x86.bndclrr(x86_bnd %temp.bnd, i8* %base.add.ptr1426), !dbg !2560
  call void @llvm.x86.bndcurm(x86_bnd %temp.bnd, i8* %base.add.ptr1426, i64 0, i8 1, i32 3), !dbg !2560
  store i32 %25, i32* %add.ptr14, align 4, !dbg !2560, !tbaa !1525
  tail call void @llvm.dbg.value(metadata i32 %i.tr68, i64 0, metadata !2418, metadata !1520), !dbg !2426
  %sub17 = sub nsw i32 %12, %i.tr68, !dbg !2561
  %cmp18 = icmp sgt i32 %sub17, 1, !dbg !2563
  br i1 %cmp18, label %if.then19, label %if.end, !dbg !2564

if.then19:                                        ; preds = %_Z9partitionPiS_iii.exit
  %sub20 = add nsw i32 %12, -1, !dbg !2565
  call void @_Z4sortPiS_ii(i32* nonnull %array, i32* nonnull %temp, i32 %i.tr68, i32 %sub20, x86_bnd %array.bnd, x86_bnd %temp.bnd), !dbg !2567
  br label %if.end, !dbg !2567

if.end:                                           ; preds = %if.then19, %_Z9partitionPiS_iii.exit
  tail call void @llvm.dbg.value(metadata !1120, i64 0, metadata !2419, metadata !1520), !dbg !2427
  %sub21 = sub nsw i32 %j, %12, !dbg !2568
  %cmp22 = icmp sgt i32 %sub21, 1, !dbg !2570
  %add = add nsw i32 %12, 1, !dbg !2571
  br i1 %cmp22, label %tailrecurse, label %if.end25.loopexit81, !dbg !2573

if.end25.loopexit:                                ; preds = %for.cond.loopexit.i
  br label %if.end25, !dbg !2574

if.end25.loopexit81:                              ; preds = %if.end
  br label %if.end25, !dbg !2574

if.end25:                                         ; preds = %if.end25.loopexit81, %if.end25.loopexit, %if.then
  ret void, !dbg !2574
}

define void @_ZN5stackC2Ei(%class.stack* nocapture %this, i32 %length, x86_bnd %this.bnd) unnamed_addr align 2 {
entry:
  tail call void @llvm.dbg.value(metadata !1120, i64 0, metadata !2575, metadata !1520), !dbg !2579
  tail call void @llvm.dbg.value(metadata !1120, i64 0, metadata !2578, metadata !1520), !dbg !2580
  %top = getelementptr inbounds %class.stack, %class.stack* %this, i64 0, i32 0, !dbg !2581
  %base.top = bitcast %class.stack* %this to i8*, !dbg !2583
  call void @llvm.x86.bndclrm(x86_bnd %this.bnd, i8* %base.top, i64 0, i8 1, i32 0), !dbg !2583
  call void @llvm.x86.bndcurm(x86_bnd %this.bnd, i8* %base.top, i64 0, i8 1, i32 3), !dbg !2583
  store i32 0, i32* %top, align 8, !dbg !2583, !tbaa !2584
  %0 = sext i32 %length to i64, !dbg !2586
  %1 = tail call { i64, i1 } @llvm.umul.with.overflow.i64(i64 %0, i64 4), !dbg !2586
  %2 = extractvalue { i64, i1 } %1, 1, !dbg !2586
  %3 = extractvalue { i64, i1 } %1, 0, !dbg !2586
  %4 = select i1 %2, i64 -1, i64 %3, !dbg !2586
  %call = tail call i8* @_Znam(i64 %4) #15, !dbg !2586
  %FS = getelementptr inbounds %class.stack, %class.stack* %this, i64 0, i32 1, !dbg !2587
  %5 = bitcast i32** %FS to i8**, !dbg !2588
  %base. = bitcast i8** %5 to i8*, !dbg !2588
  call void @llvm.x86.bndclrr(x86_bnd %this.bnd, i8* %base.), !dbg !2588
  store i8* %call, i8** %5, align 8, !dbg !2588, !tbaa !2589
  %6 = bitcast i8** %5 to i8*, !dbg !2590
  %counts = getelementptr inbounds %class.stack, %class.stack* %this, i64 0, i32 2, !dbg !2590
  %base.counts = bitcast %class.stack* %this to i8*, !dbg !2591
  call void @llvm.x86.bndclrm(x86_bnd %this.bnd, i8* %base.counts, i64 0, i8 1, i32 16), !dbg !2591
  store i32* null, i32** %counts, align 8, !dbg !2591, !tbaa !2592
  %7 = bitcast i32** %counts to i8*, !dbg !2593
  ret void, !dbg !2593
}

define void @_ZN5stackD2Ev(%class.stack* nocapture readonly %this, x86_bnd %this.bnd) unnamed_addr align 2 {
entry:
  tail call void @llvm.dbg.value(metadata !1120, i64 0, metadata !2594, metadata !1520), !dbg !2597
  %FS = getelementptr inbounds %class.stack, %class.stack* %this, i64 0, i32 1, !dbg !2598
  %base.FS = bitcast %class.stack* %this to i8*, !dbg !2598
  call void @llvm.x86.bndclrm(x86_bnd %this.bnd, i8* %base.FS, i64 0, i8 1, i32 8), !dbg !2598
  call void @llvm.x86.bndcurm(x86_bnd %this.bnd, i8* %base.FS, i64 0, i8 1, i32 15), !dbg !2598
  %0 = load i32*, i32** %FS, align 8, !dbg !2598, !tbaa !2589
  %castptr.FS = bitcast i32** %FS to i8*, !dbg !2600
  %castptrval = bitcast i32* %0 to i8*, !dbg !2600
  %isnull = icmp eq i32* %0, null, !dbg !2600
  br i1 %isnull, label %delete.end, label %delete.notnull, !dbg !2600

delete.notnull:                                   ; preds = %entry
  %1 = bitcast i32* %0 to i8*, !dbg !2601
  tail call void @_ZdaPv(i8* %1) #16, !dbg !2601
  br label %delete.end, !dbg !2601

delete.end:                                       ; preds = %delete.notnull, %entry
  ret void, !dbg !2603
}

define void @_ZN5stack6insertEP7FP_tree(%class.stack* nocapture %this, %class.FP_tree* nocapture readonly %fptree, x86_bnd %this.bnd, x86_bnd %fptree.bnd) local_unnamed_addr align 2 {
entry:
  tail call void @llvm.dbg.value(metadata !1120, i64 0, metadata !2604, metadata !1520), !dbg !2610
  tail call void @llvm.dbg.value(metadata !1120, i64 0, metadata !2607, metadata !1520), !dbg !2611
  %Root = getelementptr inbounds %class.FP_tree, %class.FP_tree* %fptree, i64 0, i32 4, !dbg !2612
  %base.Root = bitcast %class.FP_tree* %fptree to i8*, !dbg !2612
  call void @llvm.x86.bndclrm(x86_bnd %fptree.bnd, i8* %base.Root, i64 0, i8 1, i32 24), !dbg !2612
  call void @llvm.x86.bndcurm(x86_bnd %fptree.bnd, i8* %base.Root, i64 0, i8 1, i32 31), !dbg !2612
  %0 = load %class.Fnode*, %class.Fnode** %Root, align 8, !dbg !2612, !tbaa !2613
  %castptr.Root = bitcast %class.Fnode** %Root to i8*
  %castptrval = bitcast %class.Fnode* %0 to i8*
  %1 = call x86_bnd @llvm.x86.bndldx(i8* %castptr.Root, i8* %castptrval, i32 0)
  %node.0.in7 = getelementptr inbounds %class.Fnode, %class.Fnode* %0, i64 0, i32 0
  %base.node.0.in7 = bitcast %class.Fnode* %0 to i8*
  call void @llvm.x86.bndclrm(x86_bnd %1, i8* %base.node.0.in7, i64 0, i8 1, i32 0)
  call void @llvm.x86.bndcurm(x86_bnd %1, i8* %base.node.0.in7, i64 0, i8 1, i32 7)
  %node.08 = load %class.Fnode*, %class.Fnode** %node.0.in7, align 8, !tbaa !2614
  %castptr.node.0.in7 = bitcast %class.Fnode** %node.0.in7 to i8*, !dbg !2616
  %castptrval.node.08 = bitcast %class.Fnode* %node.08 to i8*, !dbg !2616
  %2 = call x86_bnd @llvm.x86.bndldx(i8* %castptr.node.0.in7, i8* %castptrval.node.08, i32 0)
  tail call void @llvm.dbg.value(metadata %class.Fnode* %node.08, i64 0, metadata !2608, metadata !1520), !dbg !2616
  %cmp9 = icmp eq %class.Fnode* %node.08, null, !dbg !2617
  br i1 %cmp9, label %for.cond.cleanup, label %for.body.lr.ph, !dbg !2620

for.body.lr.ph:                                   ; preds = %entry
  %FS = getelementptr inbounds %class.stack, %class.stack* %this, i64 0, i32 1
  %base.FS = bitcast %class.stack* %this to i8*
  call void @llvm.x86.bndclrm(x86_bnd %this.bnd, i8* %base.FS, i64 0, i8 1, i32 8)
  call void @llvm.x86.bndcurm(x86_bnd %this.bnd, i8* %base.FS, i64 0, i8 1, i32 15)
  %3 = load i32*, i32** %FS, align 8, !tbaa !2589
  %castptr.FS = bitcast i32** %FS to i8*
  %castptrval1 = bitcast i32* %3 to i8*
  %4 = call x86_bnd @llvm.x86.bndldx(i8* %castptr.FS, i8* %castptrval1, i32 0)
  %top = getelementptr inbounds %class.stack, %class.stack* %this, i64 0, i32 0
  %base.top = bitcast %class.stack* %this to i8*
  call void @llvm.x86.bndclrm(x86_bnd %this.bnd, i8* %base.top, i64 0, i8 1, i32 0)
  %.pre = load i32, i32* %top, align 8, !tbaa !2584
  br label %for.body, !dbg !2620

for.cond.cleanup.loopexit:                        ; preds = %for.body
  br label %for.cond.cleanup, !dbg !2622

for.cond.cleanup:                                 ; preds = %for.cond.cleanup.loopexit, %entry
  ret void, !dbg !2622

for.body:                                         ; preds = %for.body.lr.ph, %for.body
  %5 = phi i32 [ %.pre, %for.body.lr.ph ], [ %inc, %for.body ], !dbg !2623
  %node.010 = phi %class.Fnode* [ %node.08, %for.body.lr.ph ], [ %node.0, %for.body ]
  %bnd_phi.node.010 = phi x86_bnd [ %2, %for.body.lr.ph ], [ %8, %for.body ]
  %itemname = getelementptr inbounds %class.Fnode, %class.Fnode* %node.010, i64 0, i32 3, !dbg !2625
  %base.itemname = bitcast %class.Fnode* %node.010 to i8*, !dbg !2625
  call void @llvm.x86.bndclrm(x86_bnd %bnd_phi.node.010, i8* %base.itemname, i64 0, i8 1, i32 20), !dbg !2625
  call void @llvm.x86.bndcurm(x86_bnd %bnd_phi.node.010, i8* %base.itemname, i64 0, i8 1, i32 23), !dbg !2625
  %6 = load i32, i32* %itemname, align 4, !dbg !2625, !tbaa !2626
  %idxprom = sext i32 %5 to i64, !dbg !2627
  %arrayidx = getelementptr inbounds i32, i32* %3, i64 %idxprom, !dbg !2627
  %base.arrayidx = bitcast i32* %arrayidx to i8*, !dbg !2628
  call void @llvm.x86.bndclrr(x86_bnd %4, i8* %base.arrayidx), !dbg !2628
  store i32 %6, i32* %arrayidx, align 4, !dbg !2628, !tbaa !1525
  %base.top2 = bitcast %class.stack* %this to i8*, !dbg !2629
  call void @llvm.x86.bndclrm(x86_bnd %this.bnd, i8* %base.top2, i64 0, i8 1, i32 0), !dbg !2629
  call void @llvm.x86.bndcurm(x86_bnd %this.bnd, i8* %base.top2, i64 0, i8 1, i32 3), !dbg !2629
  %7 = load i32, i32* %top, align 8, !dbg !2629, !tbaa !2584
  %inc = add nsw i32 %7, 1, !dbg !2629
  %base.top3 = bitcast %class.stack* %this to i8*, !dbg !2629
  call void @llvm.x86.bndclrm(x86_bnd %this.bnd, i8* %base.top3, i64 0, i8 1, i32 0), !dbg !2629
  store i32 %inc, i32* %top, align 8, !dbg !2629, !tbaa !2584
  %node.0.in = getelementptr inbounds %class.Fnode, %class.Fnode* %node.010, i64 0, i32 0
  %base.node.0.in = bitcast %class.Fnode* %node.010 to i8*
  call void @llvm.x86.bndclrm(x86_bnd %bnd_phi.node.010, i8* %base.node.0.in, i64 0, i8 1, i32 0)
  %node.0 = load %class.Fnode*, %class.Fnode** %node.0.in, align 8, !tbaa !2614
  %castptr.node.0.in = bitcast %class.Fnode** %node.0.in to i8*, !dbg !2616
  %castptrval.node.0 = bitcast %class.Fnode* %node.0 to i8*, !dbg !2616
  %8 = call x86_bnd @llvm.x86.bndldx(i8* %castptr.node.0.in, i8* %castptrval.node.0, i32 0)
  tail call void @llvm.dbg.value(metadata %class.Fnode* %node.0, i64 0, metadata !2608, metadata !1520), !dbg !2616
  %cmp = icmp eq %class.Fnode* %node.0, null, !dbg !2617
  br i1 %cmp, label %for.cond.cleanup.loopexit, label %for.body, !dbg !2620, !llvm.loop !2630
}

define void @_ZN7FP_tree4initEiii(%class.FP_tree* nocapture %this, i32 %old_itemno, i32 %new_itemno, i32 %thread, x86_bnd %this.bnd) local_unnamed_addr align 2 {
entry:
  tail call void @llvm.dbg.value(metadata !1120, i64 0, metadata !2633, metadata !1520), !dbg !2640
  tail call void @llvm.dbg.value(metadata !1120, i64 0, metadata !2636, metadata !1520), !dbg !2641
  tail call void @llvm.dbg.value(metadata !1120, i64 0, metadata !2637, metadata !1520), !dbg !2642
  tail call void @llvm.dbg.value(metadata !1120, i64 0, metadata !2638, metadata !1520), !dbg !2643
  %0 = load %class.memory**, %class.memory*** @fp_buf, align 8, !dbg !2644, !tbaa !1536
  %1 = load x86_bnd, x86_bnd* bitcast ([2 x i64]* @llmpx_bnd_infinite to x86_bnd*), !dbg !2644
  %idxprom = sext i32 %thread to i64, !dbg !2644
  %arrayidx = getelementptr inbounds %class.memory*, %class.memory** %0, i64 %idxprom, !dbg !2644
  %base.arrayidx = bitcast %class.memory** %arrayidx to i8*, !dbg !2644
  call void @llvm.x86.bndclrr(x86_bnd %1, i8* %base.arrayidx), !dbg !2644
  call void @llvm.x86.bndcurm(x86_bnd %1, i8* %base.arrayidx, i64 0, i8 1, i32 7), !dbg !2644
  %2 = load %class.memory*, %class.memory** %arrayidx, align 8, !dbg !2644, !tbaa !1536
  %castptr.arrayidx = bitcast %class.memory** %arrayidx to i8*, !dbg !2645
  %castptrval5 = bitcast %class.memory* %2 to i8*, !dbg !2645
  %3 = call x86_bnd @llvm.x86.bndldx(i8* %castptr.arrayidx, i8* %castptrval5, i32 0)
  %4 = call %0 @_ZN6memory6newbufEjj(%class.memory* %2, i32 1, i32 24, x86_bnd %3), !dbg !2645
  %5 = extractvalue %0 %4, 0
  %6 = extractvalue %0 %4, 1
  %7 = bitcast i8* %5 to %class.Fnode*, !dbg !2646
  %Root = getelementptr inbounds %class.FP_tree, %class.FP_tree* %this, i64 0, i32 4, !dbg !2647
  %8 = bitcast %class.Fnode** %Root to i8**, !dbg !2648
  %base.6 = bitcast i8** %8 to i8*, !dbg !2648
  call void @llvm.x86.bndclrr(x86_bnd %this.bnd, i8* %base.6), !dbg !2648
  call void @llvm.x86.bndcurm(x86_bnd %this.bnd, i8* %base.6, i64 0, i8 1, i32 7), !dbg !2648
  store i8* %5, i8** %8, align 8, !dbg !2648, !tbaa !2613
  %9 = bitcast i8** %8 to i8*, !dbg !2649
  call void @llvm.x86.bndstx(i8* %9, i8* %5, i32 0, x86_bnd %6)
  call void @_ZN5Fnode4initEii(%class.Fnode* %7, i32 -1, i32 0, x86_bnd %6), !dbg !2649
  %cmp = icmp eq i32 %old_itemno, -1, !dbg !2650
  br i1 %cmp, label %if.end, label %if.then, !dbg !2652

if.then:                                          ; preds = %entry
  %10 = load %class.memory**, %class.memory*** @fp_buf, align 8, !dbg !2653, !tbaa !1536
  %11 = load x86_bnd, x86_bnd* bitcast ([2 x i64]* @llmpx_bnd_infinite to x86_bnd*), !dbg !2653
  %arrayidx4 = getelementptr inbounds %class.memory*, %class.memory** %10, i64 %idxprom, !dbg !2653
  %base.arrayidx4 = bitcast %class.memory** %arrayidx4 to i8*, !dbg !2653
  call void @llvm.x86.bndclrr(x86_bnd %11, i8* %base.arrayidx4), !dbg !2653
  %12 = load %class.memory*, %class.memory** %arrayidx4, align 8, !dbg !2653, !tbaa !1536
  %castptr.arrayidx4 = bitcast %class.memory** %arrayidx4 to i8*, !dbg !2655
  %castptrval = bitcast %class.memory* %12 to i8*, !dbg !2655
  %13 = call x86_bnd @llvm.x86.bndldx(i8* %castptr.arrayidx4, i8* %castptrval, i32 0)
  %mul = shl i32 %new_itemno, 3, !dbg !2655
  %14 = call %0 @_ZN6memory6newbufEjj(%class.memory* %12, i32 1, i32 %mul, x86_bnd %13), !dbg !2656
  %15 = extractvalue %0 %14, 0
  %16 = extractvalue %0 %14, 1
  %17 = bitcast i8* %15 to i32*, !dbg !2657
  %count = getelementptr inbounds %class.FP_tree, %class.FP_tree* %this, i64 0, i32 5, !dbg !2658
  %18 = bitcast i32** %count to i8**, !dbg !2659
  %base. = bitcast i8** %18 to i8*, !dbg !2659
  call void @llvm.x86.bndclrr(x86_bnd %this.bnd, i8* %base.), !dbg !2659
  store i8* %15, i8** %18, align 8, !dbg !2659, !tbaa !2660
  %19 = bitcast i8** %18 to i8*, !dbg !2661
  call void @llvm.x86.bndstx(i8* %19, i8* %15, i32 0, x86_bnd %16)
  %idx.ext = sext i32 %new_itemno to i64, !dbg !2661
  %add.ptr = getelementptr inbounds i32, i32* %17, i64 %idx.ext, !dbg !2661
  %table = getelementptr inbounds %class.FP_tree, %class.FP_tree* %this, i64 0, i32 3, !dbg !2662
  %base.table = bitcast %class.FP_tree* %this to i8*, !dbg !2663
  call void @llvm.x86.bndclrm(x86_bnd %this.bnd, i8* %base.table, i64 0, i8 1, i32 16), !dbg !2663
  store i32* %add.ptr, i32** %table, align 8, !dbg !2663, !tbaa !2664
  %20 = bitcast i32** %table to i8*, !dbg !2665
  %21 = bitcast i32* %add.ptr to i8*, !dbg !2665
  call void @llvm.x86.bndstx(i8* %20, i8* %21, i32 0, x86_bnd %16)
  tail call void @llvm.dbg.value(metadata i32 0, i64 0, metadata !2639, metadata !1520), !dbg !2665
  tail call void @llvm.dbg.value(metadata i32 0, i64 0, metadata !2639, metadata !1520), !dbg !2665
  %cmp929 = icmp sgt i32 %new_itemno, 0, !dbg !2666
  %22 = bitcast i8* %15 to i32*, !dbg !2670
  br i1 %cmp929, label %for.body.preheader, label %for.end, !dbg !2670

for.body.preheader:                               ; preds = %if.then
  %wide.trip.count = zext i32 %new_itemno to i64
  %min.iters.check = icmp ult i32 %new_itemno, 8, !dbg !2672
  br i1 %min.iters.check, label %for.body.preheader38, label %min.iters.checked, !dbg !2672

min.iters.checked:                                ; preds = %for.body.preheader
  %23 = and i32 %new_itemno, 7, !dbg !2672
  %n.mod.vf = zext i32 %23 to i64, !dbg !2672
  %n.vec = sub nsw i64 %wide.trip.count, %n.mod.vf, !dbg !2672
  %cmp.zero = icmp eq i64 %n.vec, 0, !dbg !2672
  br i1 %cmp.zero, label %for.body.preheader38, label %vector.memcheck, !dbg !2672

vector.memcheck:                                  ; preds = %min.iters.checked
  %24 = shl nuw nsw i64 %wide.trip.count, 2, !dbg !2672
  %scevgep = getelementptr i8, i8* %15, i64 %24, !dbg !2672
  %25 = shl nsw i64 %idx.ext, 2, !dbg !2672
  %scevgep31 = getelementptr i8, i8* %15, i64 %25, !dbg !2672
  %26 = add nsw i64 %25, %24, !dbg !2672
  %scevgep32 = getelementptr i8, i8* %15, i64 %26, !dbg !2672
  %bound0 = icmp ult i8* %15, %scevgep32, !dbg !2672
  %bound1 = icmp ult i8* %scevgep31, %scevgep, !dbg !2672
  %memcheck.conflict = and i1 %bound0, %bound1, !dbg !2672
  br i1 %memcheck.conflict, label %for.body.preheader38, label %vector.body.preheader, !dbg !2672

vector.body.preheader:                            ; preds = %vector.memcheck
  br label %vector.body, !dbg !2672

vector.body:                                      ; preds = %vector.body.preheader, %vector.body
  %index = phi i64 [ %index.next, %vector.body ], [ 0, %vector.body.preheader ], !dbg !2674
  %vec.ind34 = phi <4 x i32> [ %vec.ind.next37, %vector.body ], [ <i32 0, i32 1, i32 2, i32 3>, %vector.body.preheader ]
  %27 = getelementptr inbounds i32, i32* %22, i64 %index, !dbg !2672
  %28 = bitcast i32* %27 to <4 x i32>*, !dbg !2676
  %base.1 = bitcast <4 x i32>* %28 to i8*, !dbg !2676
  call void @llvm.x86.bndclrr(x86_bnd %16, i8* %base.1), !dbg !2676
  store <4 x i32> zeroinitializer, <4 x i32>* %28, align 4, !dbg !2676, !tbaa !1525, !alias.scope !2677, !noalias !2680
  %29 = getelementptr i32, i32* %27, i64 4, !dbg !2676
  %30 = bitcast i32* %29 to <4 x i32>*, !dbg !2676
  %base.2 = bitcast <4 x i32>* %30 to i8*, !dbg !2676
  call void @llvm.x86.bndclrr(x86_bnd %16, i8* %base.2), !dbg !2676
  store <4 x i32> zeroinitializer, <4 x i32>* %30, align 4, !dbg !2676, !tbaa !1525, !alias.scope !2677, !noalias !2680
  %31 = getelementptr inbounds i32, i32* %add.ptr, i64 %index, !dbg !2682
  %step.add35 = add <4 x i32> %vec.ind34, <i32 4, i32 4, i32 4, i32 4>, !dbg !2674
  %32 = bitcast i32* %31 to <4 x i32>*, !dbg !2683
  %base.3 = bitcast <4 x i32>* %32 to i8*, !dbg !2683
  call void @llvm.x86.bndclrr(x86_bnd %16, i8* %base.3), !dbg !2683
  call void @llvm.x86.bndcurm(x86_bnd %16, i8* %base.3, i64 0, i8 1, i32 15), !dbg !2683
  store <4 x i32> %vec.ind34, <4 x i32>* %32, align 4, !dbg !2683, !tbaa !1525, !alias.scope !2680
  %33 = getelementptr i32, i32* %31, i64 4, !dbg !2683
  %34 = bitcast i32* %33 to <4 x i32>*, !dbg !2683
  %base.4 = bitcast <4 x i32>* %34 to i8*, !dbg !2683
  call void @llvm.x86.bndclrr(x86_bnd %16, i8* %base.4), !dbg !2683
  call void @llvm.x86.bndcurm(x86_bnd %16, i8* %base.4, i64 0, i8 1, i32 15), !dbg !2683
  store <4 x i32> %step.add35, <4 x i32>* %34, align 4, !dbg !2683, !tbaa !1525, !alias.scope !2680
  %index.next = add i64 %index, 8, !dbg !2674
  %vec.ind.next37 = add <4 x i32> %vec.ind34, <i32 8, i32 8, i32 8, i32 8>, !dbg !2674
  %35 = icmp eq i64 %index.next, %n.vec, !dbg !2674
  br i1 %35, label %middle.block, label %vector.body, !dbg !2674, !llvm.loop !2684

middle.block:                                     ; preds = %vector.body
  %cmp.n = icmp eq i32 %23, 0
  br i1 %cmp.n, label %for.end, label %for.body.preheader38, !dbg !2672

for.body.preheader38:                             ; preds = %middle.block, %vector.memcheck, %min.iters.checked, %for.body.preheader
  %indvars.iv.ph = phi i64 [ 0, %vector.memcheck ], [ 0, %min.iters.checked ], [ 0, %for.body.preheader ], [ %n.vec, %middle.block ]
  %36 = sub nsw i64 %wide.trip.count, %indvars.iv.ph, !dbg !2672
  %37 = add nsw i64 %wide.trip.count, -1, !dbg !2672
  %38 = sub nsw i64 %37, %indvars.iv.ph, !dbg !2672
  %xtraiter = and i64 %36, 7, !dbg !2672
  %lcmp.mod = icmp eq i64 %xtraiter, 0, !dbg !2672
  br i1 %lcmp.mod, label %for.body.prol.loopexit, label %for.body.prol.preheader, !dbg !2672

for.body.prol.preheader:                          ; preds = %for.body.preheader38
  br label %for.body.prol, !dbg !2672

for.body.prol:                                    ; preds = %for.body.prol, %for.body.prol.preheader
  %indvars.iv.prol = phi i64 [ %indvars.iv.next.prol, %for.body.prol ], [ %indvars.iv.ph, %for.body.prol.preheader ]
  %prol.iter = phi i64 [ %prol.iter.sub, %for.body.prol ], [ %xtraiter, %for.body.prol.preheader ]
  %arrayidx12.prol = getelementptr inbounds i32, i32* %22, i64 %indvars.iv.prol, !dbg !2672
  %base.arrayidx12.prol = bitcast i32* %arrayidx12.prol to i8*, !dbg !2676
  call void @llvm.x86.bndclrr(x86_bnd %16, i8* %base.arrayidx12.prol), !dbg !2676
  store i32 0, i32* %arrayidx12.prol, align 4, !dbg !2676, !tbaa !1525
  %arrayidx15.prol = getelementptr inbounds i32, i32* %add.ptr, i64 %indvars.iv.prol, !dbg !2682
  %39 = trunc i64 %indvars.iv.prol to i32, !dbg !2683
  %base.arrayidx15.prol = bitcast i32* %arrayidx15.prol to i8*, !dbg !2683
  call void @llvm.x86.bndclrr(x86_bnd %16, i8* %base.arrayidx15.prol), !dbg !2683
  call void @llvm.x86.bndcurm(x86_bnd %16, i8* %base.arrayidx15.prol, i64 0, i8 1, i32 3), !dbg !2683
  store i32 %39, i32* %arrayidx15.prol, align 4, !dbg !2683, !tbaa !1525
  %indvars.iv.next.prol = add nuw nsw i64 %indvars.iv.prol, 1, !dbg !2674
  %prol.iter.sub = add i64 %prol.iter, -1, !dbg !2670
  %prol.iter.cmp = icmp eq i64 %prol.iter.sub, 0, !dbg !2670
  br i1 %prol.iter.cmp, label %for.body.prol.loopexit.unr-lcssa, label %for.body.prol, !dbg !2670, !llvm.loop !2687

for.body.prol.loopexit.unr-lcssa:                 ; preds = %for.body.prol
  br label %for.body.prol.loopexit, !dbg !2672

for.body.prol.loopexit:                           ; preds = %for.body.preheader38, %for.body.prol.loopexit.unr-lcssa
  %indvars.iv.unr = phi i64 [ %indvars.iv.ph, %for.body.preheader38 ], [ %indvars.iv.next.prol, %for.body.prol.loopexit.unr-lcssa ]
  %40 = icmp ult i64 %38, 7, !dbg !2672
  br i1 %40, label %for.end.loopexit, label %for.body.preheader38.new, !dbg !2672

for.body.preheader38.new:                         ; preds = %for.body.prol.loopexit
  br label %for.body, !dbg !2672

for.body:                                         ; preds = %for.body, %for.body.preheader38.new
  %indvars.iv = phi i64 [ %indvars.iv.unr, %for.body.preheader38.new ], [ %indvars.iv.next.7, %for.body ]
  %arrayidx12 = getelementptr inbounds i32, i32* %22, i64 %indvars.iv, !dbg !2672
  %base.arrayidx12 = bitcast i32* %arrayidx12 to i8*, !dbg !2676
  call void @llvm.x86.bndclrr(x86_bnd %16, i8* %base.arrayidx12), !dbg !2676
  store i32 0, i32* %arrayidx12, align 4, !dbg !2676, !tbaa !1525
  %arrayidx15 = getelementptr inbounds i32, i32* %add.ptr, i64 %indvars.iv, !dbg !2682
  %41 = trunc i64 %indvars.iv to i32, !dbg !2683
  %base.arrayidx15 = bitcast i32* %arrayidx15 to i8*, !dbg !2683
  call void @llvm.x86.bndclrr(x86_bnd %16, i8* %base.arrayidx15), !dbg !2683
  call void @llvm.x86.bndcurm(x86_bnd %16, i8* %base.arrayidx15, i64 0, i8 1, i32 3), !dbg !2683
  store i32 %41, i32* %arrayidx15, align 4, !dbg !2683, !tbaa !1525
  %indvars.iv.next = add nuw nsw i64 %indvars.iv, 1, !dbg !2674
  %arrayidx12.1 = getelementptr inbounds i32, i32* %22, i64 %indvars.iv.next, !dbg !2672
  %base.arrayidx12.1 = bitcast i32* %arrayidx12.1 to i8*, !dbg !2676
  call void @llvm.x86.bndclrr(x86_bnd %16, i8* %base.arrayidx12.1), !dbg !2676
  call void @llvm.x86.bndcurm(x86_bnd %16, i8* %base.arrayidx12.1, i64 0, i8 1, i32 3), !dbg !2676
  store i32 0, i32* %arrayidx12.1, align 4, !dbg !2676, !tbaa !1525
  %arrayidx15.1 = getelementptr inbounds i32, i32* %add.ptr, i64 %indvars.iv.next, !dbg !2682
  %42 = trunc i64 %indvars.iv.next to i32, !dbg !2683
  %base.arrayidx15.1 = bitcast i32* %arrayidx15.1 to i8*, !dbg !2683
  call void @llvm.x86.bndclrr(x86_bnd %16, i8* %base.arrayidx15.1), !dbg !2683
  call void @llvm.x86.bndcurm(x86_bnd %16, i8* %base.arrayidx15.1, i64 0, i8 1, i32 3), !dbg !2683
  store i32 %42, i32* %arrayidx15.1, align 4, !dbg !2683, !tbaa !1525
  %indvars.iv.next.1 = add nsw i64 %indvars.iv, 2, !dbg !2674
  %arrayidx12.2 = getelementptr inbounds i32, i32* %22, i64 %indvars.iv.next.1, !dbg !2672
  %base.arrayidx12.2 = bitcast i32* %arrayidx12.2 to i8*, !dbg !2676
  call void @llvm.x86.bndclrr(x86_bnd %16, i8* %base.arrayidx12.2), !dbg !2676
  call void @llvm.x86.bndcurm(x86_bnd %16, i8* %base.arrayidx12.2, i64 0, i8 1, i32 3), !dbg !2676
  store i32 0, i32* %arrayidx12.2, align 4, !dbg !2676, !tbaa !1525
  %arrayidx15.2 = getelementptr inbounds i32, i32* %add.ptr, i64 %indvars.iv.next.1, !dbg !2682
  %43 = trunc i64 %indvars.iv.next.1 to i32, !dbg !2683
  %base.arrayidx15.2 = bitcast i32* %arrayidx15.2 to i8*, !dbg !2683
  call void @llvm.x86.bndclrr(x86_bnd %16, i8* %base.arrayidx15.2), !dbg !2683
  call void @llvm.x86.bndcurm(x86_bnd %16, i8* %base.arrayidx15.2, i64 0, i8 1, i32 3), !dbg !2683
  store i32 %43, i32* %arrayidx15.2, align 4, !dbg !2683, !tbaa !1525
  %indvars.iv.next.2 = add nsw i64 %indvars.iv, 3, !dbg !2674
  %arrayidx12.3 = getelementptr inbounds i32, i32* %22, i64 %indvars.iv.next.2, !dbg !2672
  %base.arrayidx12.3 = bitcast i32* %arrayidx12.3 to i8*, !dbg !2676
  call void @llvm.x86.bndclrr(x86_bnd %16, i8* %base.arrayidx12.3), !dbg !2676
  call void @llvm.x86.bndcurm(x86_bnd %16, i8* %base.arrayidx12.3, i64 0, i8 1, i32 3), !dbg !2676
  store i32 0, i32* %arrayidx12.3, align 4, !dbg !2676, !tbaa !1525
  %arrayidx15.3 = getelementptr inbounds i32, i32* %add.ptr, i64 %indvars.iv.next.2, !dbg !2682
  %44 = trunc i64 %indvars.iv.next.2 to i32, !dbg !2683
  %base.arrayidx15.3 = bitcast i32* %arrayidx15.3 to i8*, !dbg !2683
  call void @llvm.x86.bndclrr(x86_bnd %16, i8* %base.arrayidx15.3), !dbg !2683
  call void @llvm.x86.bndcurm(x86_bnd %16, i8* %base.arrayidx15.3, i64 0, i8 1, i32 3), !dbg !2683
  store i32 %44, i32* %arrayidx15.3, align 4, !dbg !2683, !tbaa !1525
  %indvars.iv.next.3 = add nsw i64 %indvars.iv, 4, !dbg !2674
  %arrayidx12.4 = getelementptr inbounds i32, i32* %22, i64 %indvars.iv.next.3, !dbg !2672
  %base.arrayidx12.4 = bitcast i32* %arrayidx12.4 to i8*, !dbg !2676
  call void @llvm.x86.bndclrr(x86_bnd %16, i8* %base.arrayidx12.4), !dbg !2676
  call void @llvm.x86.bndcurm(x86_bnd %16, i8* %base.arrayidx12.4, i64 0, i8 1, i32 3), !dbg !2676
  store i32 0, i32* %arrayidx12.4, align 4, !dbg !2676, !tbaa !1525
  %arrayidx15.4 = getelementptr inbounds i32, i32* %add.ptr, i64 %indvars.iv.next.3, !dbg !2682
  %45 = trunc i64 %indvars.iv.next.3 to i32, !dbg !2683
  %base.arrayidx15.4 = bitcast i32* %arrayidx15.4 to i8*, !dbg !2683
  call void @llvm.x86.bndclrr(x86_bnd %16, i8* %base.arrayidx15.4), !dbg !2683
  call void @llvm.x86.bndcurm(x86_bnd %16, i8* %base.arrayidx15.4, i64 0, i8 1, i32 3), !dbg !2683
  store i32 %45, i32* %arrayidx15.4, align 4, !dbg !2683, !tbaa !1525
  %indvars.iv.next.4 = add nsw i64 %indvars.iv, 5, !dbg !2674
  %arrayidx12.5 = getelementptr inbounds i32, i32* %22, i64 %indvars.iv.next.4, !dbg !2672
  %base.arrayidx12.5 = bitcast i32* %arrayidx12.5 to i8*, !dbg !2676
  call void @llvm.x86.bndclrr(x86_bnd %16, i8* %base.arrayidx12.5), !dbg !2676
  call void @llvm.x86.bndcurm(x86_bnd %16, i8* %base.arrayidx12.5, i64 0, i8 1, i32 3), !dbg !2676
  store i32 0, i32* %arrayidx12.5, align 4, !dbg !2676, !tbaa !1525
  %arrayidx15.5 = getelementptr inbounds i32, i32* %add.ptr, i64 %indvars.iv.next.4, !dbg !2682
  %46 = trunc i64 %indvars.iv.next.4 to i32, !dbg !2683
  %base.arrayidx15.5 = bitcast i32* %arrayidx15.5 to i8*, !dbg !2683
  call void @llvm.x86.bndclrr(x86_bnd %16, i8* %base.arrayidx15.5), !dbg !2683
  call void @llvm.x86.bndcurm(x86_bnd %16, i8* %base.arrayidx15.5, i64 0, i8 1, i32 3), !dbg !2683
  store i32 %46, i32* %arrayidx15.5, align 4, !dbg !2683, !tbaa !1525
  %indvars.iv.next.5 = add nsw i64 %indvars.iv, 6, !dbg !2674
  %arrayidx12.6 = getelementptr inbounds i32, i32* %22, i64 %indvars.iv.next.5, !dbg !2672
  %base.arrayidx12.6 = bitcast i32* %arrayidx12.6 to i8*, !dbg !2676
  call void @llvm.x86.bndclrr(x86_bnd %16, i8* %base.arrayidx12.6), !dbg !2676
  call void @llvm.x86.bndcurm(x86_bnd %16, i8* %base.arrayidx12.6, i64 0, i8 1, i32 3), !dbg !2676
  store i32 0, i32* %arrayidx12.6, align 4, !dbg !2676, !tbaa !1525
  %arrayidx15.6 = getelementptr inbounds i32, i32* %add.ptr, i64 %indvars.iv.next.5, !dbg !2682
  %47 = trunc i64 %indvars.iv.next.5 to i32, !dbg !2683
  %base.arrayidx15.6 = bitcast i32* %arrayidx15.6 to i8*, !dbg !2683
  call void @llvm.x86.bndclrr(x86_bnd %16, i8* %base.arrayidx15.6), !dbg !2683
  call void @llvm.x86.bndcurm(x86_bnd %16, i8* %base.arrayidx15.6, i64 0, i8 1, i32 3), !dbg !2683
  store i32 %47, i32* %arrayidx15.6, align 4, !dbg !2683, !tbaa !1525
  %indvars.iv.next.6 = add nsw i64 %indvars.iv, 7, !dbg !2674
  %arrayidx12.7 = getelementptr inbounds i32, i32* %22, i64 %indvars.iv.next.6, !dbg !2672
  %base.arrayidx12.7 = bitcast i32* %arrayidx12.7 to i8*, !dbg !2676
  call void @llvm.x86.bndclrr(x86_bnd %16, i8* %base.arrayidx12.7), !dbg !2676
  store i32 0, i32* %arrayidx12.7, align 4, !dbg !2676, !tbaa !1525
  %arrayidx15.7 = getelementptr inbounds i32, i32* %add.ptr, i64 %indvars.iv.next.6, !dbg !2682
  %48 = trunc i64 %indvars.iv.next.6 to i32, !dbg !2683
  %base.arrayidx15.7 = bitcast i32* %arrayidx15.7 to i8*, !dbg !2683
  call void @llvm.x86.bndclrr(x86_bnd %16, i8* %base.arrayidx15.7), !dbg !2683
  call void @llvm.x86.bndcurm(x86_bnd %16, i8* %base.arrayidx15.7, i64 0, i8 1, i32 3), !dbg !2683
  store i32 %48, i32* %arrayidx15.7, align 4, !dbg !2683, !tbaa !1525
  %indvars.iv.next.7 = add nsw i64 %indvars.iv, 8, !dbg !2674
  %exitcond.7 = icmp eq i64 %indvars.iv.next.7, %wide.trip.count, !dbg !2666
  br i1 %exitcond.7, label %for.end.loopexit.unr-lcssa, label %for.body, !dbg !2670, !llvm.loop !2688

for.end.loopexit.unr-lcssa:                       ; preds = %for.body
  br label %for.end.loopexit, !dbg !2689

for.end.loopexit:                                 ; preds = %for.body.prol.loopexit, %for.end.loopexit.unr-lcssa
  br label %for.end, !dbg !2689

for.end:                                          ; preds = %for.end.loopexit, %middle.block, %if.then
  %49 = load i32**, i32*** @new_data_num, align 8, !dbg !2689, !tbaa !1536
  %50 = load x86_bnd, x86_bnd* bitcast ([2 x i64]* @llmpx_bnd_infinite to x86_bnd*), !dbg !2689
  %arrayidx17 = getelementptr inbounds i32*, i32** %49, i64 %idxprom, !dbg !2689
  %base.arrayidx17 = bitcast i32** %arrayidx17 to i8*, !dbg !2689
  call void @llvm.x86.bndclrr(x86_bnd %50, i8* %base.arrayidx17), !dbg !2689
  call void @llvm.x86.bndcurm(x86_bnd %50, i8* %base.arrayidx17, i64 0, i8 1, i32 7), !dbg !2689
  %51 = load i32*, i32** %arrayidx17, align 8, !dbg !2689, !tbaa !1536
  %castptr.arrayidx17 = bitcast i32** %arrayidx17 to i8*, !dbg !2690
  %castptrval7 = bitcast i32* %51 to i8*, !dbg !2690
  %52 = call x86_bnd @llvm.x86.bndldx(i8* %castptr.arrayidx17, i8* %castptrval7, i32 0)
  %base.8 = bitcast i32* %51 to i8*, !dbg !2690
  call void @llvm.x86.bndclrr(x86_bnd %52, i8* %base.8), !dbg !2690
  call void @llvm.x86.bndcurm(x86_bnd %52, i8* %base.8, i64 0, i8 1, i32 3), !dbg !2690
  store i32 0, i32* %51, align 4, !dbg !2690, !tbaa !1525
  br label %if.end, !dbg !2691

if.end:                                           ; preds = %entry, %for.end
  %itemno = getelementptr inbounds %class.FP_tree, %class.FP_tree* %this, i64 0, i32 0, !dbg !2692
  %base.itemno = bitcast %class.FP_tree* %this to i8*, !dbg !2693
  call void @llvm.x86.bndclrm(x86_bnd %this.bnd, i8* %base.itemno, i64 0, i8 1, i32 0), !dbg !2693
  call void @llvm.x86.bndcurm(x86_bnd %this.bnd, i8* %base.itemno, i64 0, i8 1, i32 3), !dbg !2693
  store i32 %new_itemno, i32* %itemno, align 8, !dbg !2693, !tbaa !1685
  ret void, !dbg !2694
}

define void @_ZN7FP_tree15database_tilingEi(%class.FP_tree* nocapture readonly %this, i32 %workingthread, x86_bnd %this.bnd) local_unnamed_addr align 2 {
entry:
  %inf_bnd = load x86_bnd, x86_bnd* bitcast ([2 x i64]* @llmpx_bnd_infinite to x86_bnd*), !dbg !2695
  tail call void @llvm.dbg.value(metadata !1120, i64 0, metadata !2698, metadata !1520), !dbg !2695
  tail call void @llvm.dbg.value(metadata !1120, i64 0, metadata !2699, metadata !1520), !dbg !2760
  %0 = sext i32 %workingthread to i64, !dbg !2761
  %1 = tail call { i64, i1 } @llvm.umul.with.overflow.i64(i64 %0, i64 4), !dbg !2761
  %2 = extractvalue { i64, i1 } %1, 1, !dbg !2761
  %3 = extractvalue { i64, i1 } %1, 0, !dbg !2761
  %4 = select i1 %2, i64 -1, i64 %3, !dbg !2761
  %call = tail call i8* @_Znam(i64 %4) #15, !dbg !2761
  %5 = bitcast i8* %call to i32*, !dbg !2761
  tail call void @llvm.dbg.value(metadata i32* %5, i64 0, metadata !2701, metadata !1520), !dbg !2762
  %num_hot_item = getelementptr inbounds %class.FP_tree, %class.FP_tree* %this, i64 0, i32 15, !dbg !2763
  %base.num_hot_item = bitcast %class.FP_tree* %this to i8*, !dbg !2763
  call void @llvm.x86.bndclrm(x86_bnd %this.bnd, i8* %base.num_hot_item, i64 0, i8 1, i32 104), !dbg !2763
  call void @llvm.x86.bndcurm(x86_bnd %this.bnd, i8* %base.num_hot_item, i64 0, i8 1, i32 107), !dbg !2763
  %6 = load i32, i32* %num_hot_item, align 8, !dbg !2763, !tbaa !2764
  tail call void @llvm.dbg.value(metadata i32 %6, i64 0, metadata !2702, metadata !1520), !dbg !2765
  %itemno = getelementptr inbounds %class.FP_tree, %class.FP_tree* %this, i64 0, i32 0, !dbg !2766
  %base.itemno = bitcast %class.FP_tree* %this to i8*, !dbg !2766
  call void @llvm.x86.bndclrm(x86_bnd %this.bnd, i8* %base.itemno, i64 0, i8 1, i32 0), !dbg !2766
  %7 = load i32, i32* %itemno, align 8, !dbg !2766, !tbaa !1685
  tail call void @llvm.dbg.value(metadata i32 %7, i64 0, metadata !2703, metadata !1520), !dbg !2767
  tail call void @llvm.dbg.value(metadata i32 0, i64 0, metadata !2700, metadata !1520), !dbg !2768
  tail call void @llvm.dbg.value(metadata i32 0, i64 0, metadata !2700, metadata !1520), !dbg !2768
  %cmp800 = icmp sgt i32 %workingthread, 0, !dbg !2769
  br i1 %cmp800, label %for.body.lr.ph, label %for.cond22.preheader, !dbg !2771

for.body.lr.ph:                                   ; preds = %entry
  %8 = load i32**, i32*** @ntypearray, align 8, !tbaa !1536
  %9 = load x86_bnd, x86_bnd* bitcast ([2 x i64]* @llmpx_bnd_infinite to x86_bnd*)
  %cmp10798 = icmp slt i32 %6, %7
  %10 = load i32**, i32*** @origin, align 8
  %11 = load x86_bnd, x86_bnd* bitcast ([2 x i64]* @llmpx_bnd_infinite to x86_bnd*), !dbg !2771
  %12 = sext i32 %6 to i64, !dbg !2771
  %wide.trip.count880 = sext i32 %7 to i64
  %wide.trip.count884 = zext i32 %workingthread to i64
  %13 = sub nsw i64 %wide.trip.count880, %12, !dbg !2771
  %14 = add nsw i64 %13, -8, !dbg !2771
  %15 = lshr i64 %14, 3, !dbg !2771
  %16 = add nuw nsw i64 %15, 1, !dbg !2771
  %min.iters.check = icmp ult i64 %13, 8
  %n.vec = and i64 %13, -8
  %cmp.zero = icmp eq i64 %n.vec, 0
  %ind.end = add nsw i64 %12, %n.vec
  %xtraiter1033 = and i64 %16, 3
  %lcmp.mod1034 = icmp eq i64 %xtraiter1033, 0
  %17 = icmp ult i64 %14, 24
  %cmp.n = icmp eq i64 %13, %n.vec
  br label %for.body, !dbg !2771

for.cond22.preheader.loopexit:                    ; preds = %for.end18
  br label %for.cond22.preheader, !dbg !2768

for.cond22.preheader:                             ; preds = %for.cond22.preheader.loopexit, %entry
  tail call void @llvm.dbg.value(metadata i32 0, i64 0, metadata !2700, metadata !1520), !dbg !2768
  %18 = load %class.MapFile*, %class.MapFile** @mapfile, align 8, !dbg !2773, !tbaa !1536
  %19 = load x86_bnd, x86_bnd* bitcast ([2 x i64]* @llmpx_bnd_infinite to x86_bnd*), !dbg !2775
  %tablesize794 = getelementptr inbounds %class.MapFile, %class.MapFile* %18, i64 0, i32 7, !dbg !2775
  %base.tablesize794 = bitcast %class.MapFile* %18 to i8*, !dbg !2775
  call void @llvm.x86.bndclrm(x86_bnd %19, i8* %base.tablesize794, i64 0, i8 1, i32 56), !dbg !2775
  call void @llvm.x86.bndcurm(x86_bnd %19, i8* %base.tablesize794, i64 0, i8 1, i32 59), !dbg !2775
  %20 = load i32, i32* %tablesize794, align 8, !dbg !2775, !tbaa !1862
  %cmp23795 = icmp sgt i32 %20, 0, !dbg !2776
  br i1 %cmp23795, label %for.body24.preheader, label %for.cond175.preheader, !dbg !2777

for.body24.preheader:                             ; preds = %for.cond22.preheader
  %.pre = load i32, i32* %5, align 4, !tbaa !1525
  br label %for.body24, !dbg !2779

for.body:                                         ; preds = %for.end18, %for.body.lr.ph
  %indvars.iv882 = phi i64 [ 0, %for.body.lr.ph ], [ %indvars.iv.next883, %for.end18 ]
  %arrayidx = getelementptr inbounds i32, i32* %5, i64 %indvars.iv882, !dbg !2780
  store i32 0, i32* %arrayidx, align 4, !dbg !2781, !tbaa !1525
  tail call void @llvm.dbg.value(metadata i32 0, i64 0, metadata !2704, metadata !1520), !dbg !2782
  tail call void @llvm.dbg.value(metadata i32 0, i64 0, metadata !2704, metadata !1520), !dbg !2782
  %arrayidx6 = getelementptr inbounds i32*, i32** %8, i64 %indvars.iv882
  %21 = bitcast i32** %arrayidx6 to i8**
  %base.41 = bitcast i8** %21 to i8*
  call void @llvm.x86.bndclrr(x86_bnd %9, i8* %base.41)
  call void @llvm.x86.bndcurm(x86_bnd %9, i8* %base.41, i64 0, i8 1, i32 7)
  %22 = load i8*, i8** %21, align 8, !tbaa !1536
  %castptr42 = bitcast i8** %21 to i8*, !dbg !2783
  call void @llvm.memset.p0i8.i64(i8* %22, i8 0, i64 262144, i32 4, i1 false), !dbg !2783
  tail call void @llvm.dbg.value(metadata i32 %6, i64 0, metadata !2704, metadata !1520), !dbg !2782
  br i1 %cmp10798, label %for.body11.lr.ph, label %for.end18, !dbg !2786

for.body11.lr.ph:                                 ; preds = %for.body
  %arrayidx13 = getelementptr inbounds i32*, i32** %10, i64 %indvars.iv882
  %base.arrayidx13 = bitcast i32** %arrayidx13 to i8*
  call void @llvm.x86.bndclrr(x86_bnd %11, i8* %base.arrayidx13)
  call void @llvm.x86.bndcurm(x86_bnd %11, i8* %base.arrayidx13, i64 0, i8 1, i32 7)
  %23 = load i32*, i32** %arrayidx13, align 8, !tbaa !1536
  %castptr.arrayidx13 = bitcast i32** %arrayidx13 to i8*, !dbg !2786
  %castptrval43 = bitcast i32* %23 to i8*, !dbg !2786
  %24 = call x86_bnd @llvm.x86.bndldx(i8* %castptr.arrayidx13, i8* %castptrval43, i32 0)
  br i1 %min.iters.check, label %for.body11.preheader, label %min.iters.checked, !dbg !2786

min.iters.checked:                                ; preds = %for.body11.lr.ph
  br i1 %cmp.zero, label %for.body11.preheader, label %vector.body.preheader, !dbg !2786

vector.body.preheader:                            ; preds = %min.iters.checked
  br i1 %lcmp.mod1034, label %vector.body.prol.loopexit, label %vector.body.prol.preheader

vector.body.prol.preheader:                       ; preds = %vector.body.preheader
  br label %vector.body.prol

vector.body.prol:                                 ; preds = %vector.body.prol, %vector.body.prol.preheader
  %index.prol = phi i64 [ %index.next.prol, %vector.body.prol ], [ 0, %vector.body.prol.preheader ]
  %prol.iter1035 = phi i64 [ %prol.iter1035.sub, %vector.body.prol ], [ %xtraiter1033, %vector.body.prol.preheader ]
  %25 = add i64 %12, %index.prol
  %26 = getelementptr inbounds i32, i32* %23, i64 %25, !dbg !2789
  %27 = bitcast i32* %26 to <4 x i32>*, !dbg !2791
  %base.44 = bitcast <4 x i32>* %27 to i8*, !dbg !2791
  call void @llvm.x86.bndclrr(x86_bnd %24, i8* %base.44), !dbg !2791
  store <4 x i32> <i32 1, i32 1, i32 1, i32 1>, <4 x i32>* %27, align 4, !dbg !2791, !tbaa !1525
  %28 = getelementptr i32, i32* %26, i64 4, !dbg !2791
  %29 = bitcast i32* %28 to <4 x i32>*, !dbg !2791
  %base.45 = bitcast <4 x i32>* %29 to i8*, !dbg !2791
  call void @llvm.x86.bndclrr(x86_bnd %24, i8* %base.45), !dbg !2791
  store <4 x i32> <i32 1, i32 1, i32 1, i32 1>, <4 x i32>* %29, align 4, !dbg !2791, !tbaa !1525
  %index.next.prol = add i64 %index.prol, 8
  %prol.iter1035.sub = add i64 %prol.iter1035, -1
  %prol.iter1035.cmp = icmp eq i64 %prol.iter1035.sub, 0
  br i1 %prol.iter1035.cmp, label %vector.body.prol.loopexit.unr-lcssa, label %vector.body.prol, !llvm.loop !2792

vector.body.prol.loopexit.unr-lcssa:              ; preds = %vector.body.prol
  br label %vector.body.prol.loopexit

vector.body.prol.loopexit:                        ; preds = %vector.body.preheader, %vector.body.prol.loopexit.unr-lcssa
  %index.unr = phi i64 [ 0, %vector.body.preheader ], [ %index.next.prol, %vector.body.prol.loopexit.unr-lcssa ]
  br i1 %17, label %middle.block, label %vector.body.preheader.new

vector.body.preheader.new:                        ; preds = %vector.body.prol.loopexit
  br label %vector.body

vector.body:                                      ; preds = %vector.body, %vector.body.preheader.new
  %index = phi i64 [ %index.unr, %vector.body.preheader.new ], [ %index.next.3, %vector.body ]
  %30 = add i64 %12, %index
  %31 = getelementptr inbounds i32, i32* %23, i64 %30, !dbg !2789
  %32 = bitcast i32* %31 to <4 x i32>*, !dbg !2791
  %base.46 = bitcast <4 x i32>* %32 to i8*, !dbg !2791
  call void @llvm.x86.bndclrr(x86_bnd %24, i8* %base.46), !dbg !2791
  store <4 x i32> <i32 1, i32 1, i32 1, i32 1>, <4 x i32>* %32, align 4, !dbg !2791, !tbaa !1525
  %33 = getelementptr i32, i32* %31, i64 4, !dbg !2791
  %34 = bitcast i32* %33 to <4 x i32>*, !dbg !2791
  %base.47 = bitcast <4 x i32>* %34 to i8*, !dbg !2791
  call void @llvm.x86.bndclrr(x86_bnd %24, i8* %base.47), !dbg !2791
  call void @llvm.x86.bndcurm(x86_bnd %24, i8* %base.47, i64 0, i8 1, i32 15), !dbg !2791
  store <4 x i32> <i32 1, i32 1, i32 1, i32 1>, <4 x i32>* %34, align 4, !dbg !2791, !tbaa !1525
  %index.next = add i64 %index, 8
  %35 = add i64 %12, %index.next
  %36 = getelementptr inbounds i32, i32* %23, i64 %35, !dbg !2789
  %37 = bitcast i32* %36 to <4 x i32>*, !dbg !2791
  %base.48 = bitcast <4 x i32>* %37 to i8*, !dbg !2791
  call void @llvm.x86.bndclrr(x86_bnd %24, i8* %base.48), !dbg !2791
  call void @llvm.x86.bndcurm(x86_bnd %24, i8* %base.48, i64 0, i8 1, i32 15), !dbg !2791
  store <4 x i32> <i32 1, i32 1, i32 1, i32 1>, <4 x i32>* %37, align 4, !dbg !2791, !tbaa !1525
  %38 = getelementptr i32, i32* %36, i64 4, !dbg !2791
  %39 = bitcast i32* %38 to <4 x i32>*, !dbg !2791
  %base.49 = bitcast <4 x i32>* %39 to i8*, !dbg !2791
  call void @llvm.x86.bndclrr(x86_bnd %24, i8* %base.49), !dbg !2791
  call void @llvm.x86.bndcurm(x86_bnd %24, i8* %base.49, i64 0, i8 1, i32 15), !dbg !2791
  store <4 x i32> <i32 1, i32 1, i32 1, i32 1>, <4 x i32>* %39, align 4, !dbg !2791, !tbaa !1525
  %index.next.1 = add i64 %index, 16
  %40 = add i64 %12, %index.next.1
  %41 = getelementptr inbounds i32, i32* %23, i64 %40, !dbg !2789
  %42 = bitcast i32* %41 to <4 x i32>*, !dbg !2791
  %base.50 = bitcast <4 x i32>* %42 to i8*, !dbg !2791
  call void @llvm.x86.bndclrr(x86_bnd %24, i8* %base.50), !dbg !2791
  call void @llvm.x86.bndcurm(x86_bnd %24, i8* %base.50, i64 0, i8 1, i32 15), !dbg !2791
  store <4 x i32> <i32 1, i32 1, i32 1, i32 1>, <4 x i32>* %42, align 4, !dbg !2791, !tbaa !1525
  %43 = getelementptr i32, i32* %41, i64 4, !dbg !2791
  %44 = bitcast i32* %43 to <4 x i32>*, !dbg !2791
  %base.51 = bitcast <4 x i32>* %44 to i8*, !dbg !2791
  call void @llvm.x86.bndclrr(x86_bnd %24, i8* %base.51), !dbg !2791
  call void @llvm.x86.bndcurm(x86_bnd %24, i8* %base.51, i64 0, i8 1, i32 15), !dbg !2791
  store <4 x i32> <i32 1, i32 1, i32 1, i32 1>, <4 x i32>* %44, align 4, !dbg !2791, !tbaa !1525
  %index.next.2 = add i64 %index, 24
  %45 = add i64 %12, %index.next.2
  %46 = getelementptr inbounds i32, i32* %23, i64 %45, !dbg !2789
  %47 = bitcast i32* %46 to <4 x i32>*, !dbg !2791
  %base.52 = bitcast <4 x i32>* %47 to i8*, !dbg !2791
  call void @llvm.x86.bndclrr(x86_bnd %24, i8* %base.52), !dbg !2791
  call void @llvm.x86.bndcurm(x86_bnd %24, i8* %base.52, i64 0, i8 1, i32 15), !dbg !2791
  store <4 x i32> <i32 1, i32 1, i32 1, i32 1>, <4 x i32>* %47, align 4, !dbg !2791, !tbaa !1525
  %48 = getelementptr i32, i32* %46, i64 4, !dbg !2791
  %49 = bitcast i32* %48 to <4 x i32>*, !dbg !2791
  %base.53 = bitcast <4 x i32>* %49 to i8*, !dbg !2791
  call void @llvm.x86.bndclrr(x86_bnd %24, i8* %base.53), !dbg !2791
  store <4 x i32> <i32 1, i32 1, i32 1, i32 1>, <4 x i32>* %49, align 4, !dbg !2791, !tbaa !1525
  %index.next.3 = add i64 %index, 32
  %50 = icmp eq i64 %index.next.3, %n.vec
  br i1 %50, label %middle.block.unr-lcssa, label %vector.body, !llvm.loop !2793

middle.block.unr-lcssa:                           ; preds = %vector.body
  br label %middle.block

middle.block:                                     ; preds = %vector.body.prol.loopexit, %middle.block.unr-lcssa
  br i1 %cmp.n, label %for.end18, label %for.body11.preheader, !dbg !2786

for.body11.preheader:                             ; preds = %middle.block, %min.iters.checked, %for.body11.lr.ph
  %indvars.iv878.ph = phi i64 [ %12, %min.iters.checked ], [ %12, %for.body11.lr.ph ], [ %ind.end, %middle.block ]
  br label %for.body11, !dbg !2789

for.body11:                                       ; preds = %for.body11.preheader, %for.body11
  %indvars.iv878 = phi i64 [ %indvars.iv.next879, %for.body11 ], [ %indvars.iv878.ph, %for.body11.preheader ]
  %arrayidx15 = getelementptr inbounds i32, i32* %23, i64 %indvars.iv878, !dbg !2789
  %base.arrayidx15 = bitcast i32* %arrayidx15 to i8*, !dbg !2791
  call void @llvm.x86.bndclrr(x86_bnd %24, i8* %base.arrayidx15), !dbg !2791
  call void @llvm.x86.bndcurm(x86_bnd %24, i8* %base.arrayidx15, i64 0, i8 1, i32 3), !dbg !2791
  store i32 1, i32* %arrayidx15, align 4, !dbg !2791, !tbaa !1525
  %indvars.iv.next879 = add nsw i64 %indvars.iv878, 1, !dbg !2796
  %exitcond881 = icmp eq i64 %indvars.iv.next879, %wide.trip.count880, !dbg !2798
  br i1 %exitcond881, label %for.end18.loopexit, label %for.body11, !dbg !2786, !llvm.loop !2800

for.end18.loopexit:                               ; preds = %for.body11
  br label %for.end18, !dbg !2802

for.end18:                                        ; preds = %for.end18.loopexit, %middle.block, %for.body
  %indvars.iv.next883 = add nuw nsw i64 %indvars.iv882, 1, !dbg !2802
  %exitcond885 = icmp eq i64 %indvars.iv.next883, %wide.trip.count884, !dbg !2769
  br i1 %exitcond885, label %for.cond22.preheader.loopexit, label %for.body, !dbg !2771, !llvm.loop !2804

for.cond175.preheader.loopexit:                   ; preds = %if.end165
  br label %for.cond175.preheader, !dbg !2768

for.cond175.preheader:                            ; preds = %for.cond175.preheader.loopexit, %for.cond22.preheader
  tail call void @llvm.dbg.value(metadata i32 0, i64 0, metadata !2700, metadata !1520), !dbg !2768
  br i1 %cmp800, label %for.body177.lr.ph, label %for.end193, !dbg !2807

for.body177.lr.ph:                                ; preds = %for.cond175.preheader
  %cmp182727 = icmp slt i32 %6, %7
  %51 = load i32**, i32*** @origin, align 8
  %52 = load x86_bnd, x86_bnd* bitcast ([2 x i64]* @llmpx_bnd_infinite to x86_bnd*), !dbg !2807
  %53 = sext i32 %6 to i64, !dbg !2807
  %54 = add i32 %7, -1, !dbg !2807
  %55 = sub i32 %54, %6, !dbg !2807
  %56 = zext i32 %55 to i64, !dbg !2807
  %57 = shl nuw nsw i64 %56, 2, !dbg !2807
  %58 = add nuw nsw i64 %57, 4, !dbg !2807
  %wide.trip.count865 = zext i32 %workingthread to i64
  %59 = add nsw i64 %wide.trip.count865, -1, !dbg !2807
  %xtraiter1030 = and i64 %wide.trip.count865, 3, !dbg !2807
  %lcmp.mod1031 = icmp eq i64 %xtraiter1030, 0, !dbg !2807
  br i1 %lcmp.mod1031, label %for.body177.prol.loopexit, label %for.body177.prol.preheader, !dbg !2807

for.body177.prol.preheader:                       ; preds = %for.body177.lr.ph
  br label %for.body177.prol, !dbg !2807

for.body177.prol:                                 ; preds = %for.end190.prol, %for.body177.prol.preheader
  %indvars.iv863.prol = phi i64 [ 0, %for.body177.prol.preheader ], [ %indvars.iv.next864.prol, %for.end190.prol ]
  %prol.iter1032 = phi i64 [ %xtraiter1030, %for.body177.prol.preheader ], [ %prol.iter1032.sub, %for.end190.prol ]
  %arrayidx179.prol = getelementptr inbounds i32, i32* %5, i64 %indvars.iv863.prol, !dbg !2809
  store i32 0, i32* %arrayidx179.prol, align 4, !dbg !2810, !tbaa !1525
  tail call void @llvm.dbg.value(metadata i32 %6, i64 0, metadata !2728, metadata !1520), !dbg !2811
  tail call void @llvm.dbg.value(metadata i32 %6, i64 0, metadata !2728, metadata !1520), !dbg !2811
  br i1 %cmp182727, label %for.body183.lr.ph.prol, label %for.end190.prol, !dbg !2812

for.body183.lr.ph.prol:                           ; preds = %for.body177.prol
  %arrayidx185.prol = getelementptr inbounds i32*, i32** %51, i64 %indvars.iv863.prol
  %base.arrayidx185.prol = bitcast i32** %arrayidx185.prol to i8*
  call void @llvm.x86.bndclrr(x86_bnd %52, i8* %base.arrayidx185.prol)
  call void @llvm.x86.bndcurm(x86_bnd %52, i8* %base.arrayidx185.prol, i64 0, i8 1, i32 7)
  %60 = load i32*, i32** %arrayidx185.prol, align 8, !tbaa !1536
  %castptr.arrayidx185.prol = bitcast i32** %arrayidx185.prol to i8*, !dbg !2812
  %castptrval = bitcast i32* %60 to i8*, !dbg !2812
  %scevgep.prol = getelementptr i32, i32* %60, i64 %53, !dbg !2812
  %scevgep862.prol = bitcast i32* %scevgep.prol to i8*
  call void @llvm.memset.p0i8.i64(i8* %scevgep862.prol, i8 0, i64 %58, i32 4, i1 false), !dbg !2815
  br label %for.end190.prol, !dbg !2817

for.end190.prol:                                  ; preds = %for.body183.lr.ph.prol, %for.body177.prol
  %indvars.iv.next864.prol = add nuw nsw i64 %indvars.iv863.prol, 1, !dbg !2817
  %prol.iter1032.sub = add i64 %prol.iter1032, -1, !dbg !2807
  %prol.iter1032.cmp = icmp eq i64 %prol.iter1032.sub, 0, !dbg !2807
