; ModuleID = 'freqmine.bc'
source_filename = "llvm-link"
target datalayout = "e-m:e-i64:64-f80:128-n8:16:32:64-S128"
target triple = "x86_64-unknown-linux-gnu"

%class.stack = type { i32, i32*, i32* }
%class.memory = type { i32, i64, i64, i32, i8**, i32, i8**, i32*, i32*, i8*, i32, i32 }
%"class.std::ios_base::Init" = type { i8 }
%"class.std::basic_ostream" = type { i32 (...)**, %"class.std::basic_ios" }
%"class.std::basic_ios" = type { %"class.std::ios_base", %"class.std::basic_ostream"*, i8, i8, %"class.std::basic_streambuf"*, %"class.std::ctype"*, %"class.std::num_put"*, %"class.std::num_put"* }
%"class.std::ios_base" = type { i32 (...)**, i64, i64, i32, i32, i32, %"struct.std::ios_base::_Callback_list"*, %"struct.std::ios_base::_Words", [8 x %"struct.std::ios_base::_Words"], i32, %"struct.std::ios_base::_Words"*, %"class.std::locale" }
%"struct.std::ios_base::_Callback_list" = type { %"struct.std::ios_base::_Callback_list"*, void (i32, %"class.std::ios_base"*, i32)*, i32, i32 }
%"struct.std::ios_base::_Words" = type { i8*, i64 }
%"class.std::locale" = type { %"class.std::locale::_Impl"* }
%"class.std::locale::_Impl" = type { i32, %"class.std::locale::facet"**, i64, %"class.std::locale::facet"**, i8** }
%"class.std::locale::facet" = type <{ i32 (...)**, i32, [4 x i8] }>
%"class.std::basic_streambuf" = type { i32 (...)**, i8*, i8*, i8*, i8*, i8*, i8*, %"class.std::locale" }
%"class.std::ctype" = type <{ %"class.std::locale::facet.base", [4 x i8], %struct.__locale_struct*, i8, [7 x i8], i32*, i32*, i16*, i8, [256 x i8], [256 x i8], i8, [6 x i8] }>
%"class.std::locale::facet.base" = type <{ i32 (...)**, i32 }>
%struct.__locale_struct = type { [13 x %struct.__locale_data*], i16*, i32*, i32*, [13 x i8*] }
%struct.__locale_data = type opaque
%"class.std::num_put" = type { %"class.std::locale::facet.base", [4 x i8] }
%class.Fnode = type { %class.Fnode*, %class.Fnode*, i32, i32 }
%class.MapFile = type { %class.MapFileNode*, %class.MapFileNode**, i32*, i32*, i32*, i32*, i8*, i32 }
%class.MapFileNode = type { i32*, i32, i32, i32, i32, i8*, %class.MapFileNode* }
%class.Data = type { i64, %struct._IO_FILE* }
%struct._IO_FILE = type { i32, i8*, i8*, i8*, i8*, i8*, i8*, i8*, i8*, i8*, i8*, i8*, %struct._IO_marker*, %struct._IO_FILE*, i32, i32, i64, i16, i8, [1 x i8], i8*, i64, i8*, i8*, i8*, i8*, i64, i32, [20 x i8] }
%struct._IO_marker = type { %struct._IO_marker*, %struct._IO_FILE*, i32 }
%class.FSout = type { %struct._IO_FILE* }
%class.FP_tree = type <{ i32, [4 x i8], i32*, i32*, %class.Fnode*, i32*, i32**, i32*, i32*, i32, i32, i8*, i32*, i32*, i8**, i32, [4 x i8] }>
%struct.cpu_set_t = type { [16 x i64] }
%struct.timeval = type { i64, i64 }
%struct.timezone = type { i32, i32 }

$_Z35first_transform_FPTree_into_FPArrayIhEvP7FP_treeT_ = comdat any

$_Z35first_transform_FPTree_into_FPArrayItEvP7FP_treeT_ = comdat any

$_Z35first_transform_FPTree_into_FPArrayIjEvP7FP_treeT_ = comdat any

$_Z32FPArray_conditional_pattern_baseIhEiP7FP_treeiiT_ = comdat any

$_Z32FPArray_conditional_pattern_baseItEiP7FP_treeiiT_ = comdat any

$_Z32FPArray_conditional_pattern_baseIjEiP7FP_treeiiT_ = comdat any

$_Z16FPArray_scan2_DBIhEvP7FP_treeS1_iiT_ = comdat any

$_Z16FPArray_scan2_DBItEvP7FP_treeS1_iiT_ = comdat any

$_Z16FPArray_scan2_DBIjEvP7FP_treeS1_iiT_ = comdat any

$_Z29transform_FPTree_into_FPArrayIhEvP7FP_treeiT_ = comdat any

$_Z29transform_FPTree_into_FPArrayItEvP7FP_treeiT_ = comdat any

$_Z29transform_FPTree_into_FPArrayIjEvP7FP_treeiT_ = comdat any

@ITlen = local_unnamed_addr global i32** null, align 8, !dbg !0
@bran = local_unnamed_addr global i32** null, align 8, !dbg !266
@prefix = local_unnamed_addr global i32** null, align 8, !dbg !268
@order_item = local_unnamed_addr global i32* null, align 8, !dbg !270
@item_order = local_unnamed_addr global i32* null, align 8, !dbg !272
@compact = local_unnamed_addr global i32** null, align 8, !dbg !274
@supp = local_unnamed_addr global i32** null, align 8, !dbg !276
@list = local_unnamed_addr global %class.stack** null, align 8, !dbg !278
@TRANSACTION_NO = local_unnamed_addr global i32 0, align 4, !dbg !297
@ITEM_NO = local_unnamed_addr global i32 100, align 4, !dbg !299
@THRESHOLD = local_unnamed_addr global i32 0, align 4, !dbg !301
@fp_buf = local_unnamed_addr global %class.memory** null, align 8, !dbg !303
@fp_node_sub_buf = local_unnamed_addr global %class.memory* null, align 8, !dbg !347
@fp_tree_buf = local_unnamed_addr global %class.memory** null, align 8, !dbg !349
@database_buf = local_unnamed_addr global %class.memory* null, align 8, !dbg !351
@new_data_num = local_unnamed_addr global i32** null, align 8, !dbg !353
@llvm.global_ctors = appending global [1 x { i32, void ()*, i8* }] [{ i32, void ()*, i8* } { i32 65535, void ()* @_GLOBAL__sub_I_fpmax.cpp, i8* null }]
@_ZStL8__ioinit = internal global %"class.std::ios_base::Init" zeroinitializer, align 1, !dbg !252
@__dso_handle = external global i8
@.str = private unnamed_addr constant [4 x i8] c"%d\0A\00", align 1
@str = private unnamed_addr constant [23 x i8] c"PARSEC Benchmark Suite\00"
@_ZSt4cout = external global %"class.std::basic_ostream", align 8
@.str.2 = private unnamed_addr constant [8 x i8] c"usage: \00", align 1
@.str.3 = private unnamed_addr constant [32 x i8] c" <infile> <MINSUP> [<outfile>]\0A\00", align 1
@_ZSt4cerr = external global %"class.std::basic_ostream", align 8
@.str.4 = private unnamed_addr constant [22 x i8] c" could not be opened!\00", align 1
@.str.5 = private unnamed_addr constant [68 x i8] c"the data preparation cost %f seconds, the FPgrowth cost %f seconds\0A\00", align 1
@.str.1 = private unnamed_addr constant [4 x i8] c"r+t\00", align 1
@.str.1.4 = private unnamed_addr constant [26 x i8] c"transaction number is %d\0A\00", align 1
@currentnodeiter = local_unnamed_addr global i32*** null, align 8, !dbg !1116
@nodestack = local_unnamed_addr global %class.Fnode*** null, align 8, !dbg !1133
@itemstack = local_unnamed_addr global i32** null, align 8, !dbg !1135
@origin = local_unnamed_addr global i32** null, align 8, !dbg !1137
@hashtable = local_unnamed_addr global %class.Fnode*** null, align 8, !dbg !1139
@hot_node_count = local_unnamed_addr global i32** null, align 8, !dbg !1141
@hot_node_depth = local_unnamed_addr global i32* null, align 8, !dbg !1143
@hot_node_index = local_unnamed_addr global i32* null, align 8, !dbg !1145
@fast_rightsib_table = local_unnamed_addr global %class.Fnode**** null, align 8, !dbg !1147
@rightsib_backpatch_stack = local_unnamed_addr global %class.Fnode**** null, align 8, !dbg !1149
@global_count_array = local_unnamed_addr global i32** null, align 8, !dbg !1151
@global_table_array = local_unnamed_addr global i32** null, align 8, !dbg !1153
@global_temp_order_array = local_unnamed_addr global i32** null, align 8, !dbg !1155
@global_order_array = local_unnamed_addr global i32** null, align 8, !dbg !1157
@rightsib_backpatch_count = local_unnamed_addr global i32** null, align 8, !dbg !1159
@sum_item_num = local_unnamed_addr global i32** null, align 8, !dbg !1161
@global_nodenum = local_unnamed_addr global i32** null, align 8, !dbg !1163
@lowerbound_array = local_unnamed_addr global [3 x i32] [i32 65536, i32 256, i32 0], align 4, !dbg !1165
@ntypearray = local_unnamed_addr global i32** null, align 8, !dbg !1170
@thread_finish_status = local_unnamed_addr global i32* null, align 8, !dbg !1172
@thread_begin_status = local_unnamed_addr global i32* null, align 8, !dbg !1174
@released_pos = local_unnamed_addr global i32 0, align 4, !dbg !1176
@first_MC_tree = local_unnamed_addr global i32* null, align 8, !dbg !1178
@first_MR_tree = local_unnamed_addr global i32* null, align 8, !dbg !1180
@first_MB_tree = local_unnamed_addr global i8** null, align 8, !dbg !1182
@mapfile = local_unnamed_addr global %class.MapFile* null, align 8, !dbg !1184
@thread_mapfile = local_unnamed_addr global %class.MapFile** null, align 8, !dbg !1186
@sumntype = global [65536 x i32] zeroinitializer, align 16, !dbg !1188
@ntypehashtable = local_unnamed_addr global [65536 x i32] zeroinitializer, align 16, !dbg !1193
@ntypeidarray = global [65536 x i32] zeroinitializer, align 16, !dbg !1195
@mergedworkbase = local_unnamed_addr global [65536 x i32] zeroinitializer, align 16, !dbg !1197
@mergedworkend = local_unnamed_addr global [65536 x i32] zeroinitializer, align 16, !dbg !1199
@mergedworknum = local_unnamed_addr global i32 0, align 4, !dbg !1201
@threadtranscontent = local_unnamed_addr global i16* null, align 8, !dbg !1203
@threadntypeoffsetiter = local_unnamed_addr global i32** null, align 8, !dbg !1205
@ntypeoffsetbase = local_unnamed_addr global i32* null, align 8, !dbg !1207
@ntypeoffsetend = local_unnamed_addr global i32* null, align 8, !dbg !1209
@numusefulntype = local_unnamed_addr global i32 0, align 4, !dbg !1211
@threadworkload = local_unnamed_addr global i32** null, align 8, !dbg !1213
@threadworkloadnum = local_unnamed_addr global i32* null, align 8, !dbg !1215
@str.15 = private unnamed_addr constant [44 x i8] c"INIT: not enough memory to run this program\00"
@str.4 = private unnamed_addr constant [24 x i8] c"The blocks are used up.\00"
@_ZL6power2 = internal unnamed_addr constant [29 x i32] [i32 1, i32 2, i32 4, i32 8, i32 16, i32 32, i32 64, i32 128, i32 256, i32 512, i32 1024, i32 2048, i32 4096, i32 8192, i32 16384, i32 32768, i32 65536, i32 131072, i32 262144, i32 524288, i32 1048576, i32 2097152, i32 4194304, i32 8388608, i32 16777216, i32 33554432, i32 67108864, i32 134217728, i32 268435456], align 16, !dbg !1313
@str.3 = private unnamed_addr constant [19 x i8] c"Not enough memory!\00"
@.str.26 = private unnamed_addr constant [3 x i8] c"wt\00", align 1
@.str.2.29 = private unnamed_addr constant [6 x i8] c"(%d)\0A\00", align 1
@.str.1.30 = private unnamed_addr constant [4 x i8] c"%d \00", align 1
@_ZZ5wtimePdE3sec = internal unnamed_addr global i32 -1, align 4, !dbg !1354

@_ZN4DataC1EPc = alias void (%class.Data*, i8*), void (%class.Data*, i8*)* @_ZN4DataC2EPc
@_ZN4DataD1Ev = alias void (%class.Data*), void (%class.Data*)* @_ZN4DataD2Ev
@_ZN5stackC1Ei = alias void (%class.stack*, i32), void (%class.stack*, i32)* @_ZN5stackC2Ei
@_ZN5stackD1Ev = alias void (%class.stack*), void (%class.stack*)* @_ZN5stackD2Ev
@_ZN6memoryC1Ev = alias void (%class.memory*), void (%class.memory*)* @_ZN6memoryC2Ev
@_ZN6memoryC1Eilli = alias void (%class.memory*, i32, i64, i64, i32), void (%class.memory*, i32, i64, i64, i32)* @_ZN6memoryC2Eilli
@_ZN6memoryD1Ev = alias void (%class.memory*), void (%class.memory*)* @_ZN6memoryD2Ev
@_ZN5FSoutC1EPc = alias void (%class.FSout*, i8*), void (%class.FSout*, i8*)* @_ZN5FSoutC2EPc
@_ZN5FSoutD1Ev = alias void (%class.FSout*), void (%class.FSout*)* @_ZN5FSoutD2Ev
@_ZN5FnodeC1Eii = alias void (%class.Fnode*, i32, i32), void (%class.Fnode*, i32, i32)* @_ZN5FnodeC2Eii
@_ZN5FnodeD1Ev = alias void (%class.Fnode*), void (%class.Fnode*)* @_ZN5FnodeD2Ev

; Function Attrs: uwtable
define internal void @_GLOBAL__sub_I_fpmax.cpp() #0 section ".text.startup" !dbg !1508 {
entry:
  tail call void @_ZNSt8ios_base4InitC1Ev(%"class.std::ios_base::Init"* nonnull @_ZStL8__ioinit), !dbg !1510
  %0 = tail call i32 @__cxa_atexit(void (i8*)* bitcast (void (%"class.std::ios_base::Init"*)* @_ZNSt8ios_base4InitD1Ev to void (i8*)*), i8* getelementptr inbounds (%"class.std::ios_base::Init", %"class.std::ios_base::Init"* @_ZStL8__ioinit, i64 0, i32 0), i8* nonnull @__dso_handle) #2, !dbg !1513
  ret void
}

declare void @_ZNSt8ios_base4InitC1Ev(%"class.std::ios_base::Init"*) unnamed_addr #1

declare void @_ZNSt8ios_base4InitD1Ev(%"class.std::ios_base::Init"*) unnamed_addr #1

; Function Attrs: nounwind
declare i32 @__cxa_atexit(void (i8*)*, i8*, i8*) local_unnamed_addr #2

; Function Attrs: nounwind uwtable
define void @_Z8printLenv() local_unnamed_addr #3 !dbg !1515 {
entry:
  tail call void @llvm.dbg.value(metadata i32 1, i64 0, metadata !1519, metadata !1520), !dbg !1521
  tail call void @llvm.dbg.value(metadata i32 1, i64 0, metadata !1518, metadata !1520), !dbg !1522
  tail call void @llvm.dbg.value(metadata i32 1, i64 0, metadata !1518, metadata !1520), !dbg !1522
  %0 = load i32, i32* @ITEM_NO, align 4, !dbg !1523, !tbaa !1525
  %1 = load i32**, i32*** @ITlen, align 8
  %2 = sext i32 %0 to i64, !dbg !1529
  br label %for.cond12, !dbg !1529

for.cond12:                                       ; preds = %land.rhs, %entry
  %indvars.iv48 = phi i64 [ %indvars.iv.next49, %land.rhs ], [ %2, %entry ]
  %indvars.iv.next49 = add nsw i64 %indvars.iv48, -1
  %cmp13 = icmp sgt i64 %indvars.iv48, 0, !dbg !1530
  br i1 %cmp13, label %land.rhs, label %for.cond21.preheader, !dbg !1533

land.rhs:                                         ; preds = %for.cond12
  %3 = load i32*, i32** %1, align 8, !dbg !1534, !tbaa !1536
  %arrayidx16 = getelementptr inbounds i32, i32* %3, i64 %indvars.iv.next49, !dbg !1534
  %4 = load i32, i32* %arrayidx16, align 4, !dbg !1534, !tbaa !1525
  %cmp17 = icmp eq i32 %4, 0, !dbg !1538
  br i1 %cmp17, label %for.cond12, label %for.cond21.preheader, !dbg !1539, !llvm.loop !1541

for.cond21.preheader:                             ; preds = %for.cond12, %land.rhs
  %5 = trunc i64 %indvars.iv48 to i32, !dbg !1533
  tail call void @llvm.dbg.value(metadata i32 0, i64 0, metadata !1518, metadata !1520), !dbg !1522
  %cmp2246 = icmp sgt i32 %5, 0, !dbg !1544
  br i1 %cmp2246, label %for.body23.preheader, label %for.end30, !dbg !1548

for.body23.preheader:                             ; preds = %for.cond21.preheader
  %wide.trip.count = and i64 %indvars.iv48, 4294967295
  %6 = load i32*, i32** %1, align 8, !dbg !1550, !tbaa !1536
  %7 = load i32, i32* %6, align 4, !dbg !1550, !tbaa !1525
  %call2751 = tail call i32 (i8*, ...) @printf(i8* getelementptr inbounds ([4 x i8], [4 x i8]* @.str, i64 0, i64 0), i32 %7), !dbg !1551
  %exitcond52 = icmp eq i64 %wide.trip.count, 1, !dbg !1544
  br i1 %exitcond52, label %for.end30, label %for.body23.for.body23_crit_edge.preheader, !dbg !1548, !llvm.loop !1552

for.body23.for.body23_crit_edge.preheader:        ; preds = %for.body23.preheader
  br label %for.body23.for.body23_crit_edge

for.body23.for.body23_crit_edge:                  ; preds = %for.body23.for.body23_crit_edge.preheader, %for.body23.for.body23_crit_edge
  %indvars.iv.next53 = phi i64 [ %indvars.iv.next, %for.body23.for.body23_crit_edge ], [ 1, %for.body23.for.body23_crit_edge.preheader ]
  %.pre = load i32**, i32*** @ITlen, align 8, !tbaa !1536
  %8 = load i32*, i32** %.pre, align 8, !dbg !1550, !tbaa !1536
  %arrayidx26 = getelementptr inbounds i32, i32* %8, i64 %indvars.iv.next53, !dbg !1550
  %9 = load i32, i32* %arrayidx26, align 4, !dbg !1550, !tbaa !1525
  %call27 = tail call i32 (i8*, ...) @printf(i8* getelementptr inbounds ([4 x i8], [4 x i8]* @.str, i64 0, i64 0), i32 %9), !dbg !1551
  %indvars.iv.next = add nuw nsw i64 %indvars.iv.next53, 1, !dbg !1555
  %exitcond = icmp eq i64 %indvars.iv.next, %wide.trip.count, !dbg !1544
  br i1 %exitcond, label %for.end30.loopexit, label %for.body23.for.body23_crit_edge, !dbg !1548, !llvm.loop !1552

for.end30.loopexit:                               ; preds = %for.body23.for.body23_crit_edge
  br label %for.end30, !dbg !1557

for.end30:                                        ; preds = %for.end30.loopexit, %for.body23.preheader, %for.cond21.preheader
  ret void, !dbg !1557
}

; Function Attrs: nounwind readnone
declare void @llvm.dbg.value(metadata, i64, metadata, metadata) #4

; Function Attrs: nounwind
declare i32 @printf(i8* nocapture readonly, ...) local_unnamed_addr #5

; Function Attrs: norecurse uwtable
define i32 @main(i32 %argc, i8** nocapture readonly %argv) local_unnamed_addr #6 personality i8* bitcast (i32 (...)* @__gxx_personality_v0 to i8*) !dbg !1558 {
entry:
  %tstart = alloca double, align 8
  %tdatap = alloca double, align 8
  %tend = alloca double, align 8
  tail call void @llvm.dbg.value(metadata i32 %argc, i64 0, metadata !1562, metadata !1520), !dbg !1572
  tail call void @llvm.dbg.value(metadata i8** %argv, i64 0, metadata !1563, metadata !1520), !dbg !1573
  %0 = bitcast double* %tstart to i8*, !dbg !1574
  call void @llvm.lifetime.start(i64 8, i8* nonnull %0) #2, !dbg !1574
  %1 = bitcast double* %tdatap to i8*, !dbg !1574
  call void @llvm.lifetime.start(i64 8, i8* nonnull %1) #2, !dbg !1574
  %2 = bitcast double* %tend to i8*, !dbg !1574
  call void @llvm.lifetime.start(i64 8, i8* nonnull %2) #2, !dbg !1574
  tail call void @llvm.dbg.value(metadata i32 1, i64 0, metadata !1567, metadata !1520), !dbg !1575
  %puts = tail call i32 @puts(i8* getelementptr inbounds ([23 x i8], [23 x i8]* @str, i64 0, i64 0)), !dbg !1576
  %call2 = tail call i32 @fflush(%struct._IO_FILE* null), !dbg !1577
  %cmp = icmp slt i32 %argc, 3, !dbg !1578
  br i1 %cmp, label %if.then, label %if.end, !dbg !1580

if.then:                                          ; preds = %entry
  %call3 = tail call dereferenceable(272) %"class.std::basic_ostream"* @_ZStlsISt11char_traitsIcEERSt13basic_ostreamIcT_ES5_PKc(%"class.std::basic_ostream"* nonnull dereferenceable(272) @_ZSt4cout, i8* getelementptr inbounds ([8 x i8], [8 x i8]* @.str.2, i64 0, i64 0)), !dbg !1581
  %3 = load i8*, i8** %argv, align 8, !dbg !1583, !tbaa !1536
  %call4 = tail call dereferenceable(272) %"class.std::basic_ostream"* @_ZStlsISt11char_traitsIcEERSt13basic_ostreamIcT_ES5_PKc(%"class.std::basic_ostream"* nonnull dereferenceable(272) %call3, i8* %3), !dbg !1584
  %call5 = tail call dereferenceable(272) %"class.std::basic_ostream"* @_ZStlsISt11char_traitsIcEERSt13basic_ostreamIcT_ES5_PKc(%"class.std::basic_ostream"* nonnull dereferenceable(272) %call4, i8* getelementptr inbounds ([32 x i8], [32 x i8]* @.str.3, i64 0, i64 0)), !dbg !1586
  tail call void @exit(i32 1) #13, !dbg !1588
  unreachable, !dbg !1588

if.end:                                           ; preds = %entry
  %arrayidx6 = getelementptr inbounds i8*, i8** %argv, i64 2, !dbg !1589
  %4 = load i8*, i8** %arrayidx6, align 8, !dbg !1589, !tbaa !1536
  tail call void @llvm.dbg.value(metadata i8* %4, i64 0, metadata !392, metadata !1520) #2, !dbg !1590
  %call.i = tail call i64 @strtol(i8* nocapture nonnull %4, i8** null, i32 10) #2, !dbg !1592
  %conv.i = trunc i64 %call.i to i32, !dbg !1592
  store i32 %conv.i, i32* @THRESHOLD, align 4, !dbg !1593, !tbaa !1525
  %call8 = tail call i8* @_Znwm(i64 16) #14, !dbg !1594
  %5 = bitcast i8* %call8 to %class.Data*, !dbg !1594
  %arrayidx9 = getelementptr inbounds i8*, i8** %argv, i64 1, !dbg !1595
  %6 = load i8*, i8** %arrayidx9, align 8, !dbg !1595, !tbaa !1536
  invoke void @_ZN4DataC1EPc(%class.Data* nonnull %5, i8* %6)
          to label %invoke.cont unwind label %lpad, !dbg !1596

invoke.cont:                                      ; preds = %if.end
  tail call void @llvm.dbg.value(metadata %class.Data* %5, i64 0, metadata !1570, metadata !1520), !dbg !1597
  %call10 = tail call i32 @_ZN4Data6isOpenEv(%class.Data* nonnull %5), !dbg !1598
  %tobool = icmp eq i32 %call10, 0, !dbg !1600
  br i1 %tobool, label %if.then11, label %if.end16, !dbg !1601

if.then11:                                        ; preds = %invoke.cont
  %7 = load i8*, i8** %arrayidx9, align 8, !dbg !1602, !tbaa !1536
  %call13 = tail call dereferenceable(272) %"class.std::basic_ostream"* @_ZStlsISt11char_traitsIcEERSt13basic_ostreamIcT_ES5_PKc(%"class.std::basic_ostream"* nonnull dereferenceable(272) @_ZSt4cerr, i8* %7), !dbg !1604
  %call14 = tail call dereferenceable(272) %"class.std::basic_ostream"* @_ZStlsISt11char_traitsIcEERSt13basic_ostreamIcT_ES5_PKc(%"class.std::basic_ostream"* nonnull dereferenceable(272) %call13, i8* getelementptr inbounds ([22 x i8], [22 x i8]* @.str.4, i64 0, i64 0)), !dbg !1605
  tail call void @llvm.dbg.value(metadata %"class.std::basic_ostream"* %call14, i64 0, metadata !1607, metadata !1520), !dbg !1624
  tail call void @llvm.dbg.value(metadata %"class.std::basic_ostream"* (%"class.std::basic_ostream"*)* @_ZSt4endlIcSt11char_traitsIcEERSt13basic_ostreamIT_T0_ES6_, i64 0, metadata !1622, metadata !1520), !dbg !1627
  %call.i128 = tail call dereferenceable(272) %"class.std::basic_ostream"* @_ZSt4endlIcSt11char_traitsIcEERSt13basic_ostreamIT_T0_ES6_(%"class.std::basic_ostream"* nonnull dereferenceable(272) %call14), !dbg !1628
  tail call void @exit(i32 2) #13, !dbg !1629
  unreachable, !dbg !1629

lpad:                                             ; preds = %if.end
  %8 = landingpad { i8*, i32 }
          cleanup, !dbg !1630
  %9 = extractvalue { i8*, i32 } %8, 0, !dbg !1630
  %10 = extractvalue { i8*, i32 } %8, 1, !dbg !1630
  tail call void @_ZdlPv(i8* nonnull %call8) #15, !dbg !1631
  br label %ehcleanup81, !dbg !1631

if.end16:                                         ; preds = %invoke.cont
  tail call void @llvm.dbg.value(metadata double* %tstart, i64 0, metadata !1564, metadata !1633), !dbg !1634
  call void @_Z5wtimePd(double* nonnull %tstart), !dbg !1635
  %call17 = call i8* @_Znam(i64 8) #14, !dbg !1636
  store i8* %call17, i8** bitcast (%class.memory*** @fp_buf to i8**), align 8, !dbg !1637, !tbaa !1536
  %call18 = call i8* @_Znam(i64 8) #14, !dbg !1638
  store i8* %call18, i8** bitcast (%class.memory*** @fp_tree_buf to i8**), align 8, !dbg !1639, !tbaa !1536
  call void @llvm.dbg.value(metadata i32 0, i64 0, metadata !1568, metadata !1520), !dbg !1640
  call void @llvm.dbg.value(metadata i32 0, i64 0, metadata !1568, metadata !1520), !dbg !1640
  %call20144 = call i8* @_Znwm(i64 88) #14, !dbg !1641
  %11 = bitcast i8* %call20144 to %class.memory*
  invoke void @_ZN6memoryC1Eilli(%class.memory* nonnull %11, i32 60, i64 10485760, i64 20971520, i32 2)
          to label %invoke.cont22 unwind label %lpad21, !dbg !1645

invoke.cont22:                                    ; preds = %if.end16
  %12 = load i8**, i8*** bitcast (%class.memory*** @fp_buf to i8***), align 8, !dbg !1646, !tbaa !1536
  store i8* %call20144, i8** %12, align 8, !dbg !1648, !tbaa !1536
  %call24 = call i8* @_Znwm(i64 88) #14, !dbg !1649
  %13 = bitcast i8* %call24 to %class.memory*, !dbg !1649
  invoke void @_ZN6memoryC1Eilli(%class.memory* nonnull %13, i32 80, i64 10485760, i64 20971520, i32 2)
          to label %invoke.cont26 unwind label %lpad25, !dbg !1650

invoke.cont26:                                    ; preds = %invoke.cont22
  %14 = load i8**, i8*** bitcast (%class.memory*** @fp_tree_buf to i8***), align 8, !dbg !1651, !tbaa !1536
  store i8* %call24, i8** %14, align 8, !dbg !1652, !tbaa !1536
  %call20 = call i8* @_Znwm(i64 88) #14, !dbg !1641
  %15 = bitcast i8* %call20 to %class.memory*
  invoke void @_ZN6memoryC1Eilli(%class.memory* nonnull %15, i32 60, i64 4194304, i64 4194304, i32 2)
          to label %invoke.cont31 unwind label %lpad30, !dbg !1653

lpad21:                                           ; preds = %if.end16
  %16 = landingpad { i8*, i32 }
          cleanup, !dbg !1654
  %17 = extractvalue { i8*, i32 } %16, 0, !dbg !1654
  %18 = extractvalue { i8*, i32 } %16, 1, !dbg !1654
  call void @_ZdlPv(i8* nonnull %call20144) #15, !dbg !1655
  br label %ehcleanup81, !dbg !1655

lpad25:                                           ; preds = %invoke.cont22
  %19 = landingpad { i8*, i32 }
          cleanup, !dbg !1657
  %20 = extractvalue { i8*, i32 } %19, 0, !dbg !1657
  %21 = extractvalue { i8*, i32 } %19, 1, !dbg !1657
  call void @_ZdlPv(i8* nonnull %call24) #15, !dbg !1658
  br label %ehcleanup81, !dbg !1658

invoke.cont31:                                    ; preds = %invoke.cont26
  store i8* %call20, i8** bitcast (%class.memory** @database_buf to i8**), align 8, !dbg !1659, !tbaa !1536
  %22 = load %class.memory**, %class.memory*** @fp_buf, align 8, !dbg !1661, !tbaa !1536
  %23 = load %class.memory*, %class.memory** %22, align 8, !dbg !1661, !tbaa !1536
  %call33 = call i8* @_ZN6memory6newbufEjj(%class.memory* %23, i32 1, i32 112), !dbg !1662
  %24 = bitcast i8* %call33 to %class.FP_tree*, !dbg !1663
  call void @llvm.dbg.value(metadata %class.FP_tree* %24, i64 0, metadata !1569, metadata !1520), !dbg !1664
  call void @_ZN7FP_tree4initEiii(%class.FP_tree* %24, i32 -1, i32 0, i32 0), !dbg !1665
  call void @_ZN7FP_tree8scan1_DBEP4Data(%class.FP_tree* %24, %class.Data* nonnull %5), !dbg !1666
  call void @llvm.dbg.value(metadata double* %tdatap, i64 0, metadata !1565, metadata !1633), !dbg !1667
  call void @_Z5wtimePd(double* nonnull %tdatap), !dbg !1668
  call void @_ZN7FP_tree8scan2_DBEi(%class.FP_tree* %24, i32 1), !dbg !1669
  call void @llvm.dbg.value(metadata %class.Data* %5, i64 0, metadata !1670, metadata !1520), !dbg !1673
  %in.i = getelementptr inbounds i8, i8* %call8, i64 8, !dbg !1675
  %25 = bitcast i8* %in.i to %struct._IO_FILE**, !dbg !1675
  %26 = load %struct._IO_FILE*, %struct._IO_FILE** %25, align 8, !dbg !1675, !tbaa !1677
  %tobool.i = icmp eq %struct._IO_FILE* %26, null, !dbg !1675
  br i1 %tobool.i, label %_ZN4Data5closeEv.exit, label %if.then.i, !dbg !1680

if.then.i:                                        ; preds = %invoke.cont31
  %call.i129 = call i32 @fclose(%struct._IO_FILE* nonnull %26), !dbg !1681
  br label %_ZN4Data5closeEv.exit, !dbg !1681

_ZN4Data5closeEv.exit:                            ; preds = %invoke.cont31, %if.then.i
  %itemno = bitcast i8* %call33 to i32*, !dbg !1683
  %27 = load i32, i32* %itemno, align 8, !dbg !1683, !tbaa !1685
  %cmp34 = icmp eq i32 %27, 0, !dbg !1687
  br i1 %cmp34, label %cleanup, label %if.end36, !dbg !1688

lpad30:                                           ; preds = %invoke.cont26
  %28 = landingpad { i8*, i32 }
          cleanup, !dbg !1689
  %29 = extractvalue { i8*, i32 } %28, 0, !dbg !1689
  %30 = extractvalue { i8*, i32 } %28, 1, !dbg !1689
  call void @_ZdlPv(i8* nonnull %call20) #15, !dbg !1691
  br label %ehcleanup81, !dbg !1691

if.end36:                                         ; preds = %_ZN4Data5closeEv.exit
  %cmp37 = icmp eq i32 %argc, 4, !dbg !1692
  br i1 %cmp37, label %if.then38, label %if.end43, !dbg !1694

if.then38:                                        ; preds = %if.end36
  %call39 = call i8* @_Znwm(i64 8) #14, !dbg !1695
  %31 = bitcast i8* %call39 to %class.FSout*, !dbg !1695
  %arrayidx40 = getelementptr inbounds i8*, i8** %argv, i64 3, !dbg !1697
  %32 = load i8*, i8** %arrayidx40, align 8, !dbg !1697, !tbaa !1536
  invoke void @_ZN5FSoutC1EPc(%class.FSout* nonnull %31, i8* %32)
          to label %invoke.cont42 unwind label %lpad41, !dbg !1698

invoke.cont42:                                    ; preds = %if.then38
  call void @llvm.dbg.value(metadata %class.FSout* %31, i64 0, metadata !1571, metadata !1520), !dbg !1699
  %33 = load i32, i32* @TRANSACTION_NO, align 4, !dbg !1700, !tbaa !1525
  call void @_ZN5FSout8printSetEiPii(%class.FSout* nonnull %31, i32 0, i32* null, i32 %33), !dbg !1701
  br label %if.end43, !dbg !1702

lpad41:                                           ; preds = %if.then38
  %34 = landingpad { i8*, i32 }
          cleanup, !dbg !1703
  %35 = extractvalue { i8*, i32 } %34, 0, !dbg !1703
  %36 = extractvalue { i8*, i32 } %34, 1, !dbg !1703
  call void @_ZdlPv(i8* nonnull %call39) #15, !dbg !1705
  br label %ehcleanup81, !dbg !1705

if.end43:                                         ; preds = %if.end36, %invoke.cont42
  %fout.0 = phi %class.FSout* [ %31, %invoke.cont42 ], [ null, %if.end36 ]
  call void @llvm.dbg.value(metadata %class.FSout* %fout.0, i64 0, metadata !1571, metadata !1520), !dbg !1699
  %call44 = call i32 @_ZN7FP_tree15FP_growth_firstEP5FSout(%class.FP_tree* nonnull %24, %class.FSout* %fout.0), !dbg !1707
  call void @llvm.dbg.value(metadata i32 1, i64 0, metadata !1519, metadata !1520) #2, !dbg !1708
  call void @llvm.dbg.value(metadata i32 1, i64 0, metadata !1518, metadata !1520) #2, !dbg !1710
  call void @llvm.dbg.value(metadata i32 1, i64 0, metadata !1518, metadata !1520) #2, !dbg !1710
  %37 = load i32, i32* @ITEM_NO, align 4, !dbg !1711, !tbaa !1525
  %38 = load i32**, i32*** @ITlen, align 8
  %39 = sext i32 %37 to i64, !dbg !1712
  br label %for.cond12.i, !dbg !1712

for.cond12.i:                                     ; preds = %land.rhs.i, %if.end43
  %indvars.iv48.i = phi i64 [ %indvars.iv.next49.i, %land.rhs.i ], [ %39, %if.end43 ]
  %indvars.iv.next49.i = add nsw i64 %indvars.iv48.i, -1
  %cmp13.i = icmp sgt i64 %indvars.iv48.i, 0, !dbg !1713
  br i1 %cmp13.i, label %land.rhs.i, label %for.cond21.preheader.i, !dbg !1714

land.rhs.i:                                       ; preds = %for.cond12.i
  %40 = load i32*, i32** %38, align 8, !dbg !1715, !tbaa !1536
  %arrayidx16.i = getelementptr inbounds i32, i32* %40, i64 %indvars.iv.next49.i, !dbg !1715
  %41 = load i32, i32* %arrayidx16.i, align 4, !dbg !1715, !tbaa !1525
  %cmp17.i = icmp eq i32 %41, 0, !dbg !1716
  br i1 %cmp17.i, label %for.cond12.i, label %for.cond21.preheader.i, !dbg !1717, !llvm.loop !1541

for.cond21.preheader.i:                           ; preds = %land.rhs.i, %for.cond12.i
  %42 = trunc i64 %indvars.iv48.i to i32, !dbg !1714
  call void @llvm.dbg.value(metadata i32 0, i64 0, metadata !1518, metadata !1520) #2, !dbg !1710
  %cmp2246.i = icmp sgt i32 %42, 0, !dbg !1718
  br i1 %cmp2246.i, label %for.body23.preheader.i, label %_Z8printLenv.exit, !dbg !1719

for.body23.preheader.i:                           ; preds = %for.cond21.preheader.i
  %wide.trip.count.i = and i64 %indvars.iv48.i, 4294967295
  %43 = load i32*, i32** %38, align 8, !dbg !1720, !tbaa !1536
  %44 = load i32, i32* %43, align 4, !dbg !1720, !tbaa !1525
  %call27.i141 = call i32 (i8*, ...) @printf(i8* getelementptr inbounds ([4 x i8], [4 x i8]* @.str, i64 0, i64 0), i32 %44) #2, !dbg !1721
  %exitcond.i142 = icmp eq i64 %wide.trip.count.i, 1, !dbg !1718
  br i1 %exitcond.i142, label %_Z8printLenv.exit, label %for.body23.for.body23_crit_edge.i.preheader, !dbg !1719, !llvm.loop !1552

for.body23.for.body23_crit_edge.i.preheader:      ; preds = %for.body23.preheader.i
  br label %for.body23.for.body23_crit_edge.i

for.body23.for.body23_crit_edge.i:                ; preds = %for.body23.for.body23_crit_edge.i.preheader, %for.body23.for.body23_crit_edge.i
  %indvars.iv.next.i143 = phi i64 [ %indvars.iv.next.i, %for.body23.for.body23_crit_edge.i ], [ 1, %for.body23.for.body23_crit_edge.i.preheader ]
  %.pre.i = load i32**, i32*** @ITlen, align 8, !tbaa !1536
  %45 = load i32*, i32** %.pre.i, align 8, !dbg !1720, !tbaa !1536
  %arrayidx26.i = getelementptr inbounds i32, i32* %45, i64 %indvars.iv.next.i143, !dbg !1720
  %46 = load i32, i32* %arrayidx26.i, align 4, !dbg !1720, !tbaa !1525
  %call27.i = call i32 (i8*, ...) @printf(i8* getelementptr inbounds ([4 x i8], [4 x i8]* @.str, i64 0, i64 0), i32 %46) #2, !dbg !1721
  %indvars.iv.next.i = add nuw nsw i64 %indvars.iv.next.i143, 1, !dbg !1722
  %exitcond.i = icmp eq i64 %indvars.iv.next.i, %wide.trip.count.i, !dbg !1718
  br i1 %exitcond.i, label %_Z8printLenv.exit.loopexit, label %for.body23.for.body23_crit_edge.i, !dbg !1719, !llvm.loop !1552

_Z8printLenv.exit.loopexit:                       ; preds = %for.body23.for.body23_crit_edge.i
  br label %_Z8printLenv.exit, !dbg !1723

_Z8printLenv.exit:                                ; preds = %_Z8printLenv.exit.loopexit, %for.body23.preheader.i, %for.cond21.preheader.i
  %tobool45 = icmp eq %class.FSout* %fout.0, null, !dbg !1723
  br i1 %tobool45, label %for.cond48.preheader, label %if.then46, !dbg !1725

if.then46:                                        ; preds = %_Z8printLenv.exit
  call void @_ZN5FSout5closeEv(%class.FSout* nonnull %fout.0), !dbg !1726
  br label %for.cond48.preheader, !dbg !1727

for.cond48.preheader:                             ; preds = %_Z8printLenv.exit, %if.then46
  call void @llvm.dbg.value(metadata i32 0, i64 0, metadata !1568, metadata !1520), !dbg !1640
  %47 = load %class.memory**, %class.memory*** @fp_buf, align 8, !tbaa !1536
  %48 = load %class.memory*, %class.memory** %47, align 8, !dbg !1728, !tbaa !1536
  %isnull = icmp eq %class.memory* %48, null, !dbg !1732
  br i1 %isnull, label %delete.end, label %delete.notnull, !dbg !1732

delete.notnull:                                   ; preds = %for.cond48.preheader
  invoke void @_ZN6memoryD1Ev(%class.memory* nonnull %48)
          to label %invoke.cont54 unwind label %lpad53, !dbg !1733

invoke.cont54:                                    ; preds = %delete.notnull
  %49 = bitcast %class.memory* %48 to i8*, !dbg !1735
  call void @_ZdlPv(i8* %49) #15, !dbg !1735
  br label %delete.end, !dbg !1735

delete.end:                                       ; preds = %invoke.cont54, %for.cond48.preheader
  %50 = load %class.memory**, %class.memory*** @fp_tree_buf, align 8, !dbg !1737, !tbaa !1536
  %51 = load %class.memory*, %class.memory** %50, align 8, !dbg !1737, !tbaa !1536
  %isnull57 = icmp eq %class.memory* %51, null, !dbg !1738
  br i1 %isnull57, label %for.inc62, label %delete.notnull58, !dbg !1738

delete.notnull58:                                 ; preds = %delete.end
  invoke void @_ZN6memoryD1Ev(%class.memory* nonnull %51)
          to label %invoke.cont60 unwind label %lpad59, !dbg !1739

invoke.cont60:                                    ; preds = %delete.notnull58
  %52 = bitcast %class.memory* %51 to i8*, !dbg !1740
  call void @_ZdlPv(i8* %52) #15, !dbg !1740
  br label %for.inc62, !dbg !1740

for.inc62:                                        ; preds = %delete.end, %invoke.cont60
  %53 = load %class.memory**, %class.memory*** @fp_buf, align 8, !tbaa !1536
  %isnull65 = icmp eq %class.memory** %53, null, !dbg !1741
  br i1 %isnull65, label %delete.end67, label %delete.notnull66, !dbg !1741

lpad53:                                           ; preds = %delete.notnull
  %54 = landingpad { i8*, i32 }
          cleanup, !dbg !1742
  %55 = extractvalue { i8*, i32 } %54, 0, !dbg !1742
  %56 = extractvalue { i8*, i32 } %54, 1, !dbg !1742
  %57 = bitcast %class.memory* %48 to i8*, !dbg !1744
  call void @_ZdlPv(i8* %57) #15, !dbg !1744
  br label %ehcleanup81, !dbg !1744

lpad59:                                           ; preds = %delete.notnull58
  %58 = landingpad { i8*, i32 }
          cleanup, !dbg !1746
  %59 = extractvalue { i8*, i32 } %58, 0, !dbg !1746
  %60 = extractvalue { i8*, i32 } %58, 1, !dbg !1746
  %61 = bitcast %class.memory* %51 to i8*, !dbg !1748
  call void @_ZdlPv(i8* %61) #15, !dbg !1748
  br label %ehcleanup81, !dbg !1748

delete.notnull66:                                 ; preds = %for.inc62
  %62 = bitcast %class.memory** %53 to i8*, !dbg !1749
  call void @_ZdaPv(i8* %62) #15, !dbg !1749
  br label %delete.end67, !dbg !1749

delete.end67:                                     ; preds = %delete.notnull66, %for.inc62
  %63 = load %class.memory**, %class.memory*** @fp_tree_buf, align 8, !dbg !1750, !tbaa !1536
  %isnull68 = icmp eq %class.memory** %63, null, !dbg !1751
  br i1 %isnull68, label %delete.end70, label %delete.notnull69, !dbg !1751

delete.notnull69:                                 ; preds = %delete.end67
  %64 = bitcast %class.memory** %63 to i8*, !dbg !1752
  call void @_ZdaPv(i8* %64) #15, !dbg !1752
  br label %delete.end70, !dbg !1752

delete.end70:                                     ; preds = %delete.notnull69, %delete.end67
  %65 = load i32*, i32** @order_item, align 8, !dbg !1753, !tbaa !1536
  %isnull71 = icmp eq i32* %65, null, !dbg !1754
  br i1 %isnull71, label %delete.end73, label %delete.notnull72, !dbg !1754

delete.notnull72:                                 ; preds = %delete.end70
  %66 = bitcast i32* %65 to i8*, !dbg !1755
  call void @_ZdaPv(i8* %66) #15, !dbg !1755
  br label %delete.end73, !dbg !1755

delete.end73:                                     ; preds = %delete.notnull72, %delete.end70
  %67 = load i32*, i32** @item_order, align 8, !dbg !1756, !tbaa !1536
  %isnull74 = icmp eq i32* %67, null, !dbg !1757
  br i1 %isnull74, label %delete.end76, label %delete.notnull75, !dbg !1757

delete.notnull75:                                 ; preds = %delete.end73
  %68 = bitcast i32* %67 to i8*, !dbg !1758
  call void @_ZdaPv(i8* %68) #15, !dbg !1758
  br label %delete.end76, !dbg !1758

delete.end76:                                     ; preds = %delete.notnull75, %delete.end73
  call void @llvm.dbg.value(metadata double* %tend, i64 0, metadata !1566, metadata !1633), !dbg !1759
  call void @_Z5wtimePd(double* nonnull %tend), !dbg !1760
  %69 = load double, double* %tdatap, align 8, !dbg !1761, !tbaa !1762
  call void @llvm.dbg.value(metadata double %69, i64 0, metadata !1565, metadata !1520), !dbg !1667
  %70 = load double, double* %tstart, align 8, !dbg !1764, !tbaa !1762
  call void @llvm.dbg.value(metadata double %70, i64 0, metadata !1564, metadata !1520), !dbg !1634
  %sub = fsub double %69, %70, !dbg !1765
  %71 = load double, double* %tend, align 8, !dbg !1766, !tbaa !1762
  call void @llvm.dbg.value(metadata double %71, i64 0, metadata !1566, metadata !1520), !dbg !1759
  %sub77 = fsub double %71, %69, !dbg !1767
  %call78 = call i32 (i8*, ...) @printf(i8* getelementptr inbounds ([68 x i8], [68 x i8]* @.str.5, i64 0, i64 0), double %sub, double %sub77), !dbg !1768
  br label %cleanup

cleanup:                                          ; preds = %_ZN4Data5closeEv.exit, %delete.end76
  call void @llvm.lifetime.end(i64 8, i8* nonnull %2) #2, !dbg !1630
  call void @llvm.lifetime.end(i64 8, i8* nonnull %1) #2, !dbg !1630
  call void @llvm.lifetime.end(i64 8, i8* nonnull %0) #2, !dbg !1630
  ret i32 0, !dbg !1769

ehcleanup81:                                      ; preds = %lpad21, %lpad25, %lpad30, %lpad59, %lpad53, %lpad41, %lpad
  %exn.slot.2 = phi i8* [ %9, %lpad ], [ %20, %lpad25 ], [ %17, %lpad21 ], [ %29, %lpad30 ], [ %59, %lpad59 ], [ %55, %lpad53 ], [ %35, %lpad41 ]
  %ehselector.slot.2 = phi i32 [ %10, %lpad ], [ %21, %lpad25 ], [ %18, %lpad21 ], [ %30, %lpad30 ], [ %60, %lpad59 ], [ %56, %lpad53 ], [ %36, %lpad41 ]
  call void @llvm.lifetime.end(i64 8, i8* nonnull %2) #2, !dbg !1630
  call void @llvm.lifetime.end(i64 8, i8* nonnull %1) #2, !dbg !1630
  call void @llvm.lifetime.end(i64 8, i8* nonnull %0) #2, !dbg !1630
  %lpad.val = insertvalue { i8*, i32 } undef, i8* %exn.slot.2, 0, !dbg !1771
  %lpad.val92 = insertvalue { i8*, i32 } %lpad.val, i32 %ehselector.slot.2, 1, !dbg !1771
  resume { i8*, i32 } %lpad.val92, !dbg !1771
}

declare i32 @__gxx_personality_v0(...)

; Function Attrs: argmemonly nounwind
declare void @llvm.lifetime.start(i64, i8* nocapture) #7

; Function Attrs: nounwind
declare i32 @puts(i8* nocapture readonly) #2

; Function Attrs: nounwind
declare i32 @fflush(%struct._IO_FILE* nocapture) local_unnamed_addr #5

; Function Attrs: inlinehint uwtable
declare dereferenceable(272) %"class.std::basic_ostream"* @_ZStlsISt11char_traitsIcEERSt13basic_ostreamIcT_ES5_PKc(%"class.std::basic_ostream"* dereferenceable(272), i8*) local_unnamed_addr #8

; Function Attrs: noreturn nounwind
declare void @exit(i32) local_unnamed_addr #9

; Function Attrs: nounwind
declare i64 @strtol(i8* readonly, i8** nocapture, i32) local_unnamed_addr #5

; Function Attrs: nobuiltin
declare noalias nonnull i8* @_Znwm(i64) local_unnamed_addr #10

; Function Attrs: inlinehint uwtable
declare dereferenceable(272) %"class.std::basic_ostream"* @_ZSt4endlIcSt11char_traitsIcEERSt13basic_ostreamIT_T0_ES6_(%"class.std::basic_ostream"* dereferenceable(272)) #8

; Function Attrs: nobuiltin nounwind
declare void @_ZdlPv(i8*) local_unnamed_addr #11

; Function Attrs: nobuiltin
declare noalias nonnull i8* @_Znam(i64) local_unnamed_addr #10

; Function Attrs: nounwind
declare i32 @fclose(%struct._IO_FILE* nocapture) local_unnamed_addr #5

; Function Attrs: nobuiltin nounwind
declare void @_ZdaPv(i8*) local_unnamed_addr #11

; Function Attrs: argmemonly nounwind
declare void @llvm.lifetime.end(i64, i8* nocapture) #7

; Function Attrs: nounwind uwtable
define void @_ZN4DataC2EPc(%class.Data* nocapture %this, i8* nocapture readonly %filename) unnamed_addr #3 align 2 !dbg !1773 {
entry:
  tail call void @llvm.dbg.value(metadata %class.Data* %this, i64 0, metadata !1775, metadata !1520), !dbg !1777
  tail call void @llvm.dbg.value(metadata i8* %filename, i64 0, metadata !1776, metadata !1520), !dbg !1778
  %call = tail call %struct._IO_FILE* @fopen(i8* %filename, i8* getelementptr inbounds ([4 x i8], [4 x i8]* @.str.1, i64 0, i64 0)), !dbg !1779
  %in = getelementptr inbounds %class.Data, %class.Data* %this, i64 0, i32 1, !dbg !1781
  store %struct._IO_FILE* %call, %struct._IO_FILE** %in, align 8, !dbg !1782, !tbaa !1677
  ret void, !dbg !1783
}

; Function Attrs: nounwind
declare noalias %struct._IO_FILE* @fopen(i8* nocapture readonly, i8* nocapture readonly) local_unnamed_addr #5

; Function Attrs: nounwind uwtable
define void @_ZN4DataD2Ev(%class.Data* nocapture readonly %this) unnamed_addr #3 align 2 !dbg !1784 {
entry:
  tail call void @llvm.dbg.value(metadata %class.Data* %this, i64 0, metadata !1786, metadata !1520), !dbg !1787
  %in = getelementptr inbounds %class.Data, %class.Data* %this, i64 0, i32 1, !dbg !1788
  %0 = load %struct._IO_FILE*, %struct._IO_FILE** %in, align 8, !dbg !1788, !tbaa !1677
  %tobool = icmp eq %struct._IO_FILE* %0, null, !dbg !1788
  br i1 %tobool, label %if.end, label %if.then, !dbg !1791

if.then:                                          ; preds = %entry
  %call = tail call i32 @fclose(%struct._IO_FILE* nonnull %0), !dbg !1792
  br label %if.end, !dbg !1792

if.end:                                           ; preds = %entry, %if.then
  ret void, !dbg !1794
}

; Function Attrs: nounwind readonly uwtable
define i32 @_ZN4Data6isOpenEv(%class.Data* nocapture readonly %this) local_unnamed_addr #12 align 2 !dbg !1795 {
entry:
  tail call void @llvm.dbg.value(metadata %class.Data* %this, i64 0, metadata !1797, metadata !1520), !dbg !1798
  %in = getelementptr inbounds %class.Data, %class.Data* %this, i64 0, i32 1, !dbg !1799
  %0 = load %struct._IO_FILE*, %struct._IO_FILE** %in, align 8, !dbg !1799, !tbaa !1677
  %not.tobool = icmp ne %struct._IO_FILE* %0, null, !dbg !1801
  %. = zext i1 %not.tobool to i32, !dbg !1801
  ret i32 %., !dbg !1802
}

; Function Attrs: uwtable
define nonnull i32* @_ZN4Data13parseDataFileEP7MapFile(%class.Data* nocapture readonly %this, %class.MapFile* nocapture %mapfile) local_unnamed_addr #0 align 2 !dbg !1803 {
entry:
  tail call void @llvm.dbg.value(metadata %class.Data* %this, i64 0, metadata !1805, metadata !1520), !dbg !1827
  tail call void @llvm.dbg.value(metadata %class.MapFile* %mapfile, i64 0, metadata !1806, metadata !1520), !dbg !1828
  %0 = load %class.memory*, %class.memory** @database_buf, align 8, !dbg !1829, !tbaa !1536
  %call = tail call i8* @_ZN6memory6newbufEjj(%class.memory* %0, i32 1, i32 40), !dbg !1830
  %1 = bitcast i8* %call to %class.MapFileNode*, !dbg !1831
  tail call void @llvm.dbg.value(metadata %class.MapFileNode* %1, i64 0, metadata !1808, metadata !1520), !dbg !1832
  tail call void @llvm.dbg.value(metadata %class.MapFileNode* %1, i64 0, metadata !1833, metadata !1520), !dbg !1838
  tail call void @llvm.dbg.value(metadata i32 100000, i64 0, metadata !1836, metadata !1520), !dbg !1840
  tail call void @llvm.dbg.value(metadata i32 1, i64 0, metadata !1837, metadata !1520), !dbg !1841
  %size.i = getelementptr inbounds i8, i8* %call, i64 8, !dbg !1842
  %2 = bitcast i8* %size.i to i32*, !dbg !1842
  store i32 100000, i32* %2, align 8, !dbg !1843, !tbaa !1844
  %call.i = tail call i8* @_Znam(i64 400000) #14, !dbg !1846
  %3 = bitcast i8* %call to i8**, !dbg !1847
  store i8* %call.i, i8** %3, align 8, !dbg !1847, !tbaa !1848
  store i32 100000, i32* %2, align 8, !dbg !1849, !tbaa !1844
  %top.i = getelementptr inbounds i8, i8* %call, i64 12, !dbg !1850
  %4 = bitcast i8* %top.i to i32*, !dbg !1850
  store i32 0, i32* %4, align 4, !dbg !1851, !tbaa !1852
  %5 = bitcast %class.MapFile* %mapfile to i64*, !dbg !1853
  %6 = load i64, i64* %5, align 8, !dbg !1853, !tbaa !1854
  %next = getelementptr inbounds i8, i8* %call, i64 32, !dbg !1856
  %7 = bitcast i8* %next to i64*, !dbg !1857
  store i64 %6, i64* %7, align 8, !dbg !1857, !tbaa !1858
  %8 = bitcast %class.MapFile* %mapfile to i8**, !dbg !1859
  store i8* %call, i8** %8, align 8, !dbg !1859, !tbaa !1854
  %tablesize = getelementptr inbounds %class.MapFile, %class.MapFile* %mapfile, i64 0, i32 7, !dbg !1860
  %9 = load i32, i32* %tablesize, align 8, !dbg !1861, !tbaa !1862
  %inc = add nsw i32 %9, 1, !dbg !1861
  store i32 %inc, i32* %tablesize, align 8, !dbg !1861, !tbaa !1862
  %10 = bitcast i8* %call.i to i32*, !dbg !1863
  tail call void @llvm.dbg.value(metadata i32* %10, i64 0, metadata !1810, metadata !1520), !dbg !1864
  tail call void @llvm.dbg.value(metadata i32 0, i64 0, metadata !1812, metadata !1520), !dbg !1865
  tail call void @llvm.dbg.value(metadata i32 100000, i64 0, metadata !1813, metadata !1520), !dbg !1866
  tail call void @llvm.dbg.value(metadata i32 0, i64 0, metadata !1814, metadata !1520), !dbg !1867
  store i32 0, i32* @TRANSACTION_NO, align 4, !dbg !1868, !tbaa !1525
  %11 = load i32, i32* @ITEM_NO, align 4, !dbg !1869, !tbaa !1525
  %12 = sext i32 %11 to i64, !dbg !1870
  %13 = tail call { i64, i1 } @llvm.umul.with.overflow.i64(i64 %12, i64 4), !dbg !1870
  %14 = extractvalue { i64, i1 } %13, 1, !dbg !1870
  %15 = extractvalue { i64, i1 } %13, 0, !dbg !1870
  %16 = select i1 %14, i64 -1, i64 %15, !dbg !1870
  %call5 = tail call i8* @_Znam(i64 %16) #14, !dbg !1870
  %17 = bitcast i8* %call5 to i32*, !dbg !1870
  tail call void @llvm.dbg.value(metadata i32* %17, i64 0, metadata !1807, metadata !1520), !dbg !1871
  tail call void @llvm.dbg.value(metadata i32 0, i64 0, metadata !1819, metadata !1520), !dbg !1872
  tail call void @llvm.dbg.value(metadata i32 0, i64 0, metadata !1819, metadata !1520), !dbg !1872
  %cmp214 = icmp sgt i32 %11, 0, !dbg !1873
  br i1 %cmp214, label %for.body.lr.ph, label %while.cond.preheader, !dbg !1876

for.body.lr.ph:                                   ; preds = %entry
  %18 = add i32 %11, -1, !dbg !1876
  %19 = zext i32 %18 to i64, !dbg !1876
  %20 = shl nuw nsw i64 %19, 2, !dbg !1876
  %21 = add nuw nsw i64 %20, 4, !dbg !1876
  call void @llvm.memset.p0i8.i64(i8* nonnull %call5, i8 0, i64 %21, i32 4, i1 false), !dbg !1878
  br label %while.cond.preheader

while.cond.preheader:                             ; preds = %for.body.lr.ph, %entry
  %in = getelementptr inbounds %class.Data, %class.Data* %this, i64 0, i32 1
  br label %while.cond, !dbg !1871

while.cond:                                       ; preds = %while.cond.backedge, %while.cond.preheader
  %TransactionContent.0 = phi i32* [ %10, %while.cond.preheader ], [ %TransactionContent.0.be, %while.cond.backedge ]
  %length.0 = phi i32 [ 0, %while.cond.preheader ], [ %length.0.be, %while.cond.backedge ]
  %current_mapfilenode.0 = phi %class.MapFileNode* [ %1, %while.cond.preheader ], [ %current_mapfilenode.0.be, %while.cond.backedge ]
  %net_itemno.0 = phi i32 [ 0, %while.cond.preheader ], [ %net_itemno.2, %while.cond.backedge ]
  %22 = phi i8* [ %call5, %while.cond.preheader ], [ %86, %while.cond.backedge ]
  %23 = phi i8* [ %call5, %while.cond.preheader ], [ %87, %while.cond.backedge ]
  %counts.0 = phi i32* [ %17, %while.cond.preheader ], [ %counts.2, %while.cond.backedge ]
  tail call void @llvm.dbg.value(metadata i32* %counts.0, i64 0, metadata !1807, metadata !1520), !dbg !1871
  tail call void @llvm.dbg.value(metadata i32 %net_itemno.0, i64 0, metadata !1814, metadata !1520), !dbg !1867
  tail call void @llvm.dbg.value(metadata %class.MapFileNode* %current_mapfilenode.0, i64 0, metadata !1808, metadata !1520), !dbg !1832
  tail call void @llvm.dbg.value(metadata i32 %length.0, i64 0, metadata !1812, metadata !1520), !dbg !1865
  tail call void @llvm.dbg.value(metadata i32* %TransactionContent.0, i64 0, metadata !1810, metadata !1520), !dbg !1864
  tail call void @llvm.dbg.value(metadata i32 0, i64 0, metadata !1816, metadata !1520), !dbg !1879
  tail call void @llvm.dbg.value(metadata i32 0, i64 0, metadata !1817, metadata !1520), !dbg !1880
  %24 = load %struct._IO_FILE*, %struct._IO_FILE** %in, align 8, !tbaa !1677
  %call16193 = tail call i32 @getc(%struct._IO_FILE* %24), !dbg !1881
  tail call void @llvm.dbg.value(metadata i32 0, i64 0, metadata !1817, metadata !1520), !dbg !1880
  tail call void @llvm.dbg.value(metadata i32 0, i64 0, metadata !1816, metadata !1520), !dbg !1879
  %sext194 = shl i32 %call16193, 24, !dbg !1883
  %conv9195 = ashr exact i32 %sext194, 24, !dbg !1883
  %sext.off196 = add i32 %sext194, -788529153, !dbg !1885
  %25 = icmp ult i32 %sext.off196, 184549375, !dbg !1885
  br i1 %25, label %while.body13.preheader, label %if.end72, !dbg !1885

while.body13.preheader:                           ; preds = %while.cond
  br label %while.body13, !dbg !1886

while.body13:                                     ; preds = %while.body13.preheader, %while.body13
  %conv9198 = phi i32 [ %conv9, %while.body13 ], [ %conv9195, %while.body13.preheader ]
  %item.0197 = phi i32 [ %add, %while.body13 ], [ 0, %while.body13.preheader ]
  %mul = mul nsw i32 %item.0197, 10, !dbg !1886
  tail call void @llvm.dbg.value(metadata i32 %mul, i64 0, metadata !1816, metadata !1520), !dbg !1879
  %sub = add i32 %mul, -48, !dbg !1887
  %add = add i32 %sub, %conv9198, !dbg !1888
  tail call void @llvm.dbg.value(metadata i32 %add, i64 0, metadata !1816, metadata !1520), !dbg !1879
  tail call void @llvm.dbg.value(metadata i32 1, i64 0, metadata !1817, metadata !1520), !dbg !1880
  %26 = load %struct._IO_FILE*, %struct._IO_FILE** %in, align 8, !tbaa !1677
  %call16 = tail call i32 @getc(%struct._IO_FILE* %26), !dbg !1881
  tail call void @llvm.dbg.value(metadata i32 1, i64 0, metadata !1817, metadata !1520), !dbg !1880
  tail call void @llvm.dbg.value(metadata i32 %add, i64 0, metadata !1816, metadata !1520), !dbg !1879
  %sext = shl i32 %call16, 24, !dbg !1883
  %conv9 = ashr exact i32 %sext, 24, !dbg !1883
  %sext.off = add i32 %sext, -788529153, !dbg !1885
  %27 = icmp ult i32 %sext.off, 184549375, !dbg !1885
  br i1 %27, label %while.body13, label %if.then, !dbg !1885, !llvm.loop !1889

if.then:                                          ; preds = %while.body13
  %cmp18 = icmp eq i32 %length.0, 100000, !dbg !1892
  br i1 %cmp18, label %if.then19, label %if.end, !dbg !1894

if.then19:                                        ; preds = %if.then
  %28 = load %class.memory*, %class.memory** @database_buf, align 8, !dbg !1895, !tbaa !1536
  %call20 = tail call i8* @_ZN6memory6newbufEjj(%class.memory* %28, i32 1, i32 40), !dbg !1897
  %29 = bitcast i8* %call20 to %class.MapFileNode*, !dbg !1898
  tail call void @llvm.dbg.value(metadata %class.MapFileNode* %29, i64 0, metadata !1809, metadata !1520), !dbg !1899
  tail call void @llvm.dbg.value(metadata %class.MapFileNode* %29, i64 0, metadata !1833, metadata !1520), !dbg !1900
  tail call void @llvm.dbg.value(metadata i32 100000, i64 0, metadata !1836, metadata !1520), !dbg !1902
  tail call void @llvm.dbg.value(metadata i32 1, i64 0, metadata !1837, metadata !1520), !dbg !1903
  %size.i186 = getelementptr inbounds i8, i8* %call20, i64 8, !dbg !1904
  %30 = bitcast i8* %size.i186 to i32*, !dbg !1904
  store i32 100000, i32* %30, align 8, !dbg !1905, !tbaa !1844
  %call.i187 = tail call i8* @_Znam(i64 400000) #14, !dbg !1906
  %31 = bitcast i8* %call20 to i8**, !dbg !1907
  store i8* %call.i187, i8** %31, align 8, !dbg !1907, !tbaa !1848
  store i32 100000, i32* %30, align 8, !dbg !1908, !tbaa !1844
  %top.i188 = getelementptr inbounds i8, i8* %call20, i64 12, !dbg !1909
  %32 = bitcast i8* %top.i188 to i32*, !dbg !1909
  store i32 0, i32* %32, align 4, !dbg !1910, !tbaa !1852
  %next21 = getelementptr inbounds i8, i8* %call20, i64 32, !dbg !1911
  %33 = bitcast i8* %next21 to %class.MapFileNode**, !dbg !1911
  store %class.MapFileNode* %current_mapfilenode.0, %class.MapFileNode** %33, align 8, !dbg !1912, !tbaa !1858
  store i8* %call20, i8** %8, align 8, !dbg !1913, !tbaa !1854
  %34 = load i32, i32* %tablesize, align 8, !dbg !1914, !tbaa !1862
  %inc24 = add nsw i32 %34, 1, !dbg !1914
  store i32 %inc24, i32* %tablesize, align 8, !dbg !1914, !tbaa !1862
  %35 = bitcast i8* %call.i187 to i32*, !dbg !1915
  tail call void @llvm.dbg.value(metadata i32* %35, i64 0, metadata !1811, metadata !1520), !dbg !1916
  store i32 -1, i32* %35, align 4, !dbg !1917, !tbaa !1525
  tail call void @llvm.dbg.value(metadata i32 1, i64 0, metadata !1818, metadata !1520), !dbg !1918
  tail call void @llvm.dbg.value(metadata i32 1, i64 0, metadata !1818, metadata !1520), !dbg !1918
  tail call void @llvm.dbg.value(metadata i32 99999, i64 0, metadata !1812, metadata !1520), !dbg !1865
  %arrayidx29203 = getelementptr inbounds i32, i32* %TransactionContent.0, i64 99999, !dbg !1919
  %36 = load i32, i32* %arrayidx29203, align 4, !dbg !1919, !tbaa !1525
  %cmp30204 = icmp eq i32 %36, -1, !dbg !1921
  br i1 %cmp30204, label %while.end38, label %while.body31.preheader, !dbg !1922

while.body31.preheader:                           ; preds = %if.then19
  br label %while.body31, !dbg !1923

while.body31:                                     ; preds = %while.body31.preheader, %while.body31
  %indvars.iv217 = phi i64 [ %indvars.iv.next218, %while.body31 ], [ 1, %while.body31.preheader ]
  %indvars.iv = phi i64 [ %indvars.iv.next, %while.body31 ], [ 99999, %while.body31.preheader ]
  %37 = phi i32 [ %38, %while.body31 ], [ %36, %while.body31.preheader ]
  %arrayidx35 = getelementptr inbounds i32, i32* %35, i64 %indvars.iv217, !dbg !1923
  store i32 %37, i32* %arrayidx35, align 4, !dbg !1925, !tbaa !1525
  %indvars.iv.next218 = add nuw i64 %indvars.iv217, 1, !dbg !1926
  %indvars.iv.next = add i64 %indvars.iv, -1
  %arrayidx29 = getelementptr inbounds i32, i32* %TransactionContent.0, i64 %indvars.iv.next, !dbg !1919
  %38 = load i32, i32* %arrayidx29, align 4, !dbg !1919, !tbaa !1525
  %cmp30 = icmp eq i32 %38, -1, !dbg !1921
  br i1 %cmp30, label %while.end38.loopexit, label %while.body31, !dbg !1922, !llvm.loop !1927

while.end38.loopexit:                             ; preds = %while.body31
  %39 = trunc i64 %indvars.iv.next218 to i32, !dbg !1930
  %40 = trunc i64 %indvars.iv to i32, !dbg !1930
  br label %while.end38, !dbg !1930

while.end38:                                      ; preds = %while.end38.loopexit, %if.then19
  %length.1.in.lcssa = phi i32 [ 100000, %if.then19 ], [ %40, %while.end38.loopexit ]
  %j.0.lcssa = phi i32 [ 1, %if.then19 ], [ %39, %while.end38.loopexit ]
  %top = getelementptr inbounds %class.MapFileNode, %class.MapFileNode* %current_mapfilenode.0, i64 0, i32 2, !dbg !1930
  store i32 %length.1.in.lcssa, i32* %top, align 4, !dbg !1931, !tbaa !1852
  tail call void @llvm.dbg.value(metadata i32 undef, i64 0, metadata !1812, metadata !1520), !dbg !1865
  tail call void @llvm.dbg.value(metadata %class.MapFileNode* %29, i64 0, metadata !1808, metadata !1520), !dbg !1832
  tail call void @llvm.dbg.value(metadata i32* %35, i64 0, metadata !1810, metadata !1520), !dbg !1864
  br label %if.end, !dbg !1932

if.end:                                           ; preds = %while.end38, %if.then
  %TransactionContent.1 = phi i32* [ %35, %while.end38 ], [ %TransactionContent.0, %if.then ]
  %length.2 = phi i32 [ %j.0.lcssa, %while.end38 ], [ %length.0, %if.then ]
  %current_mapfilenode.1 = phi %class.MapFileNode* [ %29, %while.end38 ], [ %current_mapfilenode.0, %if.then ]
  tail call void @llvm.dbg.value(metadata %class.MapFileNode* %current_mapfilenode.1, i64 0, metadata !1808, metadata !1520), !dbg !1832
  tail call void @llvm.dbg.value(metadata i32 %length.2, i64 0, metadata !1812, metadata !1520), !dbg !1865
  tail call void @llvm.dbg.value(metadata i32* %TransactionContent.1, i64 0, metadata !1810, metadata !1520), !dbg !1864
  %idxprom40 = sext i32 %length.2 to i64, !dbg !1933
  %arrayidx41 = getelementptr inbounds i32, i32* %TransactionContent.1, i64 %idxprom40, !dbg !1933
  store i32 %add, i32* %arrayidx41, align 4, !dbg !1934, !tbaa !1525
  %inc42 = add nsw i32 %length.2, 1, !dbg !1935
  tail call void @llvm.dbg.value(metadata i32 %inc42, i64 0, metadata !1812, metadata !1520), !dbg !1865
  %41 = load i32, i32* @ITEM_NO, align 4, !dbg !1936, !tbaa !1525
  %cmp43 = icmp slt i32 %add, %41, !dbg !1937
  br i1 %cmp43, label %if.else, label %if.then44, !dbg !1938

if.then44:                                        ; preds = %if.end
  %mul45 = shl nsw i32 %add, 1, !dbg !1939
  store i32 %mul45, i32* @ITEM_NO, align 4, !dbg !1940, !tbaa !1525
  %42 = sext i32 %mul45 to i64, !dbg !1941
  %43 = tail call { i64, i1 } @llvm.umul.with.overflow.i64(i64 %42, i64 4), !dbg !1941
  %44 = extractvalue { i64, i1 } %43, 1, !dbg !1941
  %45 = extractvalue { i64, i1 } %43, 0, !dbg !1941
  %46 = select i1 %44, i64 -1, i64 %45, !dbg !1941
  %call46 = tail call i8* @_Znam(i64 %46) #14, !dbg !1941
  %47 = bitcast i8* %call46 to i32*, !dbg !1941
  tail call void @llvm.dbg.value(metadata i32* %47, i64 0, metadata !1821, metadata !1520), !dbg !1942
  tail call void @llvm.dbg.value(metadata i32 0, i64 0, metadata !1818, metadata !1520), !dbg !1918
  tail call void @llvm.dbg.value(metadata i32 0, i64 0, metadata !1818, metadata !1520), !dbg !1918
  %cmp48209 = icmp slt i32 %net_itemno.0, 0, !dbg !1943
  br i1 %cmp48209, label %for.cond57.preheader, label %for.body49.preheader, !dbg !1947

for.body49.preheader:                             ; preds = %if.then44
  %48 = add i32 %net_itemno.0, 1, !dbg !1949
  %wide.trip.count = zext i32 %48 to i64
  %min.iters.check = icmp ult i32 %48, 8, !dbg !1949
  br i1 %min.iters.check, label %for.body49.preheader234, label %min.iters.checked, !dbg !1949

for.body49.preheader234:                          ; preds = %middle.block, %vector.memcheck, %min.iters.checked, %for.body49.preheader
  %indvars.iv219.ph = phi i64 [ 0, %vector.memcheck ], [ 0, %min.iters.checked ], [ 0, %for.body49.preheader ], [ %n.vec, %middle.block ]
  %49 = sub nsw i64 %wide.trip.count, %indvars.iv219.ph, !dbg !1949
  %50 = add nsw i64 %wide.trip.count, -1, !dbg !1949
  %51 = sub nsw i64 %50, %indvars.iv219.ph, !dbg !1949
  %xtraiter = and i64 %49, 7, !dbg !1949
  %lcmp.mod = icmp eq i64 %xtraiter, 0, !dbg !1949
  br i1 %lcmp.mod, label %for.body49.prol.loopexit, label %for.body49.prol.preheader, !dbg !1949

for.body49.prol.preheader:                        ; preds = %for.body49.preheader234
  br label %for.body49.prol, !dbg !1949

for.body49.prol:                                  ; preds = %for.body49.prol, %for.body49.prol.preheader
  %indvars.iv219.prol = phi i64 [ %indvars.iv.next220.prol, %for.body49.prol ], [ %indvars.iv219.ph, %for.body49.prol.preheader ]
  %prol.iter = phi i64 [ %prol.iter.sub, %for.body49.prol ], [ %xtraiter, %for.body49.prol.preheader ]
  %arrayidx51.prol = getelementptr inbounds i32, i32* %counts.0, i64 %indvars.iv219.prol, !dbg !1949
  %52 = load i32, i32* %arrayidx51.prol, align 4, !dbg !1949, !tbaa !1525
  %arrayidx53.prol = getelementptr inbounds i32, i32* %47, i64 %indvars.iv219.prol, !dbg !1950
  store i32 %52, i32* %arrayidx53.prol, align 4, !dbg !1951, !tbaa !1525
  %indvars.iv.next220.prol = add nuw nsw i64 %indvars.iv219.prol, 1, !dbg !1952
  %prol.iter.sub = add i64 %prol.iter, -1, !dbg !1947
  %prol.iter.cmp = icmp eq i64 %prol.iter.sub, 0, !dbg !1947
  br i1 %prol.iter.cmp, label %for.body49.prol.loopexit.unr-lcssa, label %for.body49.prol, !dbg !1947, !llvm.loop !1954

for.body49.prol.loopexit.unr-lcssa:               ; preds = %for.body49.prol
  br label %for.body49.prol.loopexit, !dbg !1949

for.body49.prol.loopexit:                         ; preds = %for.body49.preheader234, %for.body49.prol.loopexit.unr-lcssa
  %indvars.iv219.unr = phi i64 [ %indvars.iv219.ph, %for.body49.preheader234 ], [ %indvars.iv.next220.prol, %for.body49.prol.loopexit.unr-lcssa ]
  %53 = icmp ult i64 %51, 7, !dbg !1949
  br i1 %53, label %for.cond57.preheader.loopexit.loopexit, label %for.body49.preheader234.new, !dbg !1949

for.body49.preheader234.new:                      ; preds = %for.body49.prol.loopexit
  br label %for.body49, !dbg !1949

min.iters.checked:                                ; preds = %for.body49.preheader
  %54 = and i32 %48, 7, !dbg !1949
  %n.mod.vf = zext i32 %54 to i64, !dbg !1949
  %n.vec = sub nsw i64 %wide.trip.count, %n.mod.vf, !dbg !1949
  %cmp.zero = icmp eq i64 %n.vec, 0, !dbg !1949
  br i1 %cmp.zero, label %for.body49.preheader234, label %vector.memcheck, !dbg !1949

vector.memcheck:                                  ; preds = %min.iters.checked
  %55 = shl nuw nsw i64 %wide.trip.count, 2, !dbg !1949
  %scevgep228 = getelementptr i8, i8* %call46, i64 %55, !dbg !1949
  %scevgep230 = getelementptr i32, i32* %counts.0, i64 %wide.trip.count, !dbg !1949
  %scevgep230231 = bitcast i32* %scevgep230 to i8*
  %bound0 = icmp ult i8* %call46, %scevgep230231, !dbg !1949
  %bound1 = icmp ult i8* %23, %scevgep228, !dbg !1949
  %memcheck.conflict = and i1 %bound0, %bound1, !dbg !1949
  br i1 %memcheck.conflict, label %for.body49.preheader234, label %vector.body.preheader, !dbg !1949

vector.body.preheader:                            ; preds = %vector.memcheck
  br label %vector.body, !dbg !1949

vector.body:                                      ; preds = %vector.body.preheader, %vector.body
  %index = phi i64 [ %index.next, %vector.body ], [ 0, %vector.body.preheader ], !dbg !1952
  %56 = getelementptr inbounds i32, i32* %counts.0, i64 %index, !dbg !1949
  %57 = bitcast i32* %56 to <4 x i32>*, !dbg !1949
  %wide.load = load <4 x i32>, <4 x i32>* %57, align 4, !dbg !1949, !tbaa !1525, !alias.scope !1956
  %58 = getelementptr i32, i32* %56, i64 4, !dbg !1949
  %59 = bitcast i32* %58 to <4 x i32>*, !dbg !1949
  %wide.load233 = load <4 x i32>, <4 x i32>* %59, align 4, !dbg !1949, !tbaa !1525, !alias.scope !1956
  %60 = getelementptr inbounds i32, i32* %47, i64 %index, !dbg !1950
  %61 = bitcast i32* %60 to <4 x i32>*, !dbg !1951
  store <4 x i32> %wide.load, <4 x i32>* %61, align 4, !dbg !1951, !tbaa !1525, !alias.scope !1959, !noalias !1956
  %62 = getelementptr i32, i32* %60, i64 4, !dbg !1951
  %63 = bitcast i32* %62 to <4 x i32>*, !dbg !1951
  store <4 x i32> %wide.load233, <4 x i32>* %63, align 4, !dbg !1951, !tbaa !1525, !alias.scope !1959, !noalias !1956
  %index.next = add i64 %index, 8, !dbg !1952
  %64 = icmp eq i64 %index.next, %n.vec, !dbg !1952
  br i1 %64, label %middle.block, label %vector.body, !dbg !1952, !llvm.loop !1961

middle.block:                                     ; preds = %vector.body
  %cmp.n = icmp eq i32 %54, 0
  br i1 %cmp.n, label %for.cond57.preheader.loopexit, label %for.body49.preheader234, !dbg !1949

for.cond57.preheader.loopexit.loopexit.unr-lcssa: ; preds = %for.body49
  br label %for.cond57.preheader.loopexit.loopexit, !dbg !1949

for.cond57.preheader.loopexit.loopexit:           ; preds = %for.body49.prol.loopexit, %for.cond57.preheader.loopexit.loopexit.unr-lcssa
  br label %for.cond57.preheader.loopexit, !dbg !1949

for.cond57.preheader.loopexit:                    ; preds = %for.cond57.preheader.loopexit.loopexit, %middle.block
  %65 = add i32 %net_itemno.0, 1, !dbg !1949
  br label %for.cond57.preheader, !dbg !1918

for.cond57.preheader:                             ; preds = %for.cond57.preheader.loopexit, %if.then44
  %j.1.lcssa = phi i32 [ 0, %if.then44 ], [ %65, %for.cond57.preheader.loopexit ]
  tail call void @llvm.dbg.value(metadata i32 %j.1.lcssa, i64 0, metadata !1818, metadata !1520), !dbg !1918
  %cmp58212 = icmp slt i32 %j.1.lcssa, %mul45, !dbg !1966
  br i1 %cmp58212, label %for.body59.lr.ph, label %for.end64, !dbg !1970

for.body59.lr.ph:                                 ; preds = %for.cond57.preheader
  %66 = sext i32 %j.1.lcssa to i64, !dbg !1970
  %67 = shl nsw i64 %66, 2, !dbg !1970
  %scevgep = getelementptr i8, i8* %call46, i64 %67, !dbg !1970
  %68 = add i32 %j.1.lcssa, 1, !dbg !1970
  %69 = icmp sgt i32 %mul45, %68, !dbg !1970
  %smax = select i1 %69, i32 %mul45, i32 %68, !dbg !1970
  %70 = add i32 %smax, -1, !dbg !1970
  %71 = sub i32 %70, %j.1.lcssa, !dbg !1970
  %72 = zext i32 %71 to i64, !dbg !1970
  %73 = shl nuw nsw i64 %72, 2, !dbg !1970
  %74 = add nuw nsw i64 %73, 4, !dbg !1970
  call void @llvm.memset.p0i8.i64(i8* %scevgep, i8 0, i64 %74, i32 4, i1 false), !dbg !1972
  br label %for.end64, !dbg !1973

for.body49:                                       ; preds = %for.body49, %for.body49.preheader234.new
  %indvars.iv219 = phi i64 [ %indvars.iv219.unr, %for.body49.preheader234.new ], [ %indvars.iv.next220.7, %for.body49 ]
  %arrayidx51 = getelementptr inbounds i32, i32* %counts.0, i64 %indvars.iv219, !dbg !1949
  %75 = load i32, i32* %arrayidx51, align 4, !dbg !1949, !tbaa !1525
  %arrayidx53 = getelementptr inbounds i32, i32* %47, i64 %indvars.iv219, !dbg !1950
  store i32 %75, i32* %arrayidx53, align 4, !dbg !1951, !tbaa !1525
  %indvars.iv.next220 = add nuw nsw i64 %indvars.iv219, 1, !dbg !1952
  %arrayidx51.1 = getelementptr inbounds i32, i32* %counts.0, i64 %indvars.iv.next220, !dbg !1949
  %76 = load i32, i32* %arrayidx51.1, align 4, !dbg !1949, !tbaa !1525
  %arrayidx53.1 = getelementptr inbounds i32, i32* %47, i64 %indvars.iv.next220, !dbg !1950
  store i32 %76, i32* %arrayidx53.1, align 4, !dbg !1951, !tbaa !1525
  %indvars.iv.next220.1 = add nsw i64 %indvars.iv219, 2, !dbg !1952
  %arrayidx51.2 = getelementptr inbounds i32, i32* %counts.0, i64 %indvars.iv.next220.1, !dbg !1949
  %77 = load i32, i32* %arrayidx51.2, align 4, !dbg !1949, !tbaa !1525
  %arrayidx53.2 = getelementptr inbounds i32, i32* %47, i64 %indvars.iv.next220.1, !dbg !1950
  store i32 %77, i32* %arrayidx53.2, align 4, !dbg !1951, !tbaa !1525
  %indvars.iv.next220.2 = add nsw i64 %indvars.iv219, 3, !dbg !1952
  %arrayidx51.3 = getelementptr inbounds i32, i32* %counts.0, i64 %indvars.iv.next220.2, !dbg !1949
  %78 = load i32, i32* %arrayidx51.3, align 4, !dbg !1949, !tbaa !1525
  %arrayidx53.3 = getelementptr inbounds i32, i32* %47, i64 %indvars.iv.next220.2, !dbg !1950
  store i32 %78, i32* %arrayidx53.3, align 4, !dbg !1951, !tbaa !1525
  %indvars.iv.next220.3 = add nsw i64 %indvars.iv219, 4, !dbg !1952
  %arrayidx51.4 = getelementptr inbounds i32, i32* %counts.0, i64 %indvars.iv.next220.3, !dbg !1949
  %79 = load i32, i32* %arrayidx51.4, align 4, !dbg !1949, !tbaa !1525
  %arrayidx53.4 = getelementptr inbounds i32, i32* %47, i64 %indvars.iv.next220.3, !dbg !1950
  store i32 %79, i32* %arrayidx53.4, align 4, !dbg !1951, !tbaa !1525
  %indvars.iv.next220.4 = add nsw i64 %indvars.iv219, 5, !dbg !1952
  %arrayidx51.5 = getelementptr inbounds i32, i32* %counts.0, i64 %indvars.iv.next220.4, !dbg !1949
  %80 = load i32, i32* %arrayidx51.5, align 4, !dbg !1949, !tbaa !1525
  %arrayidx53.5 = getelementptr inbounds i32, i32* %47, i64 %indvars.iv.next220.4, !dbg !1950
  store i32 %80, i32* %arrayidx53.5, align 4, !dbg !1951, !tbaa !1525
  %indvars.iv.next220.5 = add nsw i64 %indvars.iv219, 6, !dbg !1952
  %arrayidx51.6 = getelementptr inbounds i32, i32* %counts.0, i64 %indvars.iv.next220.5, !dbg !1949
  %81 = load i32, i32* %arrayidx51.6, align 4, !dbg !1949, !tbaa !1525
  %arrayidx53.6 = getelementptr inbounds i32, i32* %47, i64 %indvars.iv.next220.5, !dbg !1950
  store i32 %81, i32* %arrayidx53.6, align 4, !dbg !1951, !tbaa !1525
  %indvars.iv.next220.6 = add nsw i64 %indvars.iv219, 7, !dbg !1952
  %arrayidx51.7 = getelementptr inbounds i32, i32* %counts.0, i64 %indvars.iv.next220.6, !dbg !1949
  %82 = load i32, i32* %arrayidx51.7, align 4, !dbg !1949, !tbaa !1525
  %arrayidx53.7 = getelementptr inbounds i32, i32* %47, i64 %indvars.iv.next220.6, !dbg !1950
  store i32 %82, i32* %arrayidx53.7, align 4, !dbg !1951, !tbaa !1525
  %indvars.iv.next220.7 = add nsw i64 %indvars.iv219, 8, !dbg !1952
  %exitcond.7 = icmp eq i64 %indvars.iv.next220.7, %wide.trip.count, !dbg !1943
  br i1 %exitcond.7, label %for.cond57.preheader.loopexit.loopexit.unr-lcssa, label %for.body49, !dbg !1947, !llvm.loop !1974

for.end64:                                        ; preds = %for.body59.lr.ph, %for.cond57.preheader
  %isnull = icmp eq i32* %counts.0, null, !dbg !1973
  br i1 %isnull, label %if.end68, label %delete.notnull, !dbg !1973

delete.notnull:                                   ; preds = %for.end64
  tail call void @_ZdaPv(i8* %22) #15, !dbg !1975
  br label %if.end68, !dbg !1975

if.else:                                          ; preds = %if.end
  %cmp65 = icmp slt i32 %net_itemno.0, %add, !dbg !1977
  tail call void @llvm.dbg.value(metadata i32 undef, i64 0, metadata !1814, metadata !1520), !dbg !1867
  %item.0.net_itemno.0 = select i1 %cmp65, i32 %add, i32 %net_itemno.0, !dbg !1979
  br label %if.end68, !dbg !1979

if.end68:                                         ; preds = %if.else, %for.end64, %delete.notnull
  %net_itemno.1 = phi i32 [ %add, %delete.notnull ], [ %add, %for.end64 ], [ %item.0.net_itemno.0, %if.else ]
  %83 = phi i8* [ %call46, %delete.notnull ], [ %call46, %for.end64 ], [ %22, %if.else ]
  %84 = phi i8* [ %call46, %delete.notnull ], [ %call46, %for.end64 ], [ %23, %if.else ]
  %counts.1 = phi i32* [ %47, %delete.notnull ], [ %47, %for.end64 ], [ %counts.0, %if.else ]
  tail call void @llvm.dbg.value(metadata i32* %counts.1, i64 0, metadata !1807, metadata !1520), !dbg !1871
  tail call void @llvm.dbg.value(metadata i32 %net_itemno.1, i64 0, metadata !1814, metadata !1520), !dbg !1867
  %idxprom69 = sext i32 %add to i64, !dbg !1980
  %arrayidx70 = getelementptr inbounds i32, i32* %counts.1, i64 %idxprom69, !dbg !1980
  %85 = load i32, i32* %arrayidx70, align 4, !dbg !1981, !tbaa !1525
  %inc71 = add nsw i32 %85, 1, !dbg !1981
  store i32 %inc71, i32* %arrayidx70, align 4, !dbg !1981, !tbaa !1525
  br label %if.end72, !dbg !1982

if.end72:                                         ; preds = %while.cond, %if.end68
  %conv9.lcssa227 = phi i32 [ %conv9, %if.end68 ], [ %conv9195, %while.cond ]
  %TransactionContent.2 = phi i32* [ %TransactionContent.1, %if.end68 ], [ %TransactionContent.0, %while.cond ]
  %length.3 = phi i32 [ %inc42, %if.end68 ], [ %length.0, %while.cond ]
  %current_mapfilenode.2 = phi %class.MapFileNode* [ %current_mapfilenode.1, %if.end68 ], [ %current_mapfilenode.0, %while.cond ]
  %net_itemno.2 = phi i32 [ %net_itemno.1, %if.end68 ], [ %net_itemno.0, %while.cond ]
  %86 = phi i8* [ %83, %if.end68 ], [ %22, %while.cond ]
  %87 = phi i8* [ %84, %if.end68 ], [ %23, %while.cond ]
  %counts.2 = phi i32* [ %counts.1, %if.end68 ], [ %counts.0, %while.cond ]
  tail call void @llvm.dbg.value(metadata i32* %counts.2, i64 0, metadata !1807, metadata !1520), !dbg !1871
  tail call void @llvm.dbg.value(metadata i32 %net_itemno.2, i64 0, metadata !1814, metadata !1520), !dbg !1867
  tail call void @llvm.dbg.value(metadata %class.MapFileNode* %current_mapfilenode.2, i64 0, metadata !1808, metadata !1520), !dbg !1832
  tail call void @llvm.dbg.value(metadata i32 %length.3, i64 0, metadata !1812, metadata !1520), !dbg !1865
  tail call void @llvm.dbg.value(metadata i32* %TransactionContent.2, i64 0, metadata !1810, metadata !1520), !dbg !1864
  %cmp74 = icmp eq i32 %conv9.lcssa227, 10, !dbg !1983
  br i1 %cmp74, label %if.then75, label %if.else91, !dbg !1985

if.then75:                                        ; preds = %if.end72
  %cmp76 = icmp eq i32 %length.3, 100000, !dbg !1986
  br i1 %cmp76, label %if.then77, label %if.end86, !dbg !1989

if.then77:                                        ; preds = %if.then75
  %top78 = getelementptr inbounds %class.MapFileNode, %class.MapFileNode* %current_mapfilenode.2, i64 0, i32 2, !dbg !1990
  store i32 100000, i32* %top78, align 4, !dbg !1992, !tbaa !1852
  %88 = load %class.memory*, %class.memory** @database_buf, align 8, !dbg !1993, !tbaa !1536
  %call79 = tail call i8* @_ZN6memory6newbufEjj(%class.memory* %88, i32 1, i32 40), !dbg !1994
  %89 = bitcast i8* %call79 to %class.MapFileNode*, !dbg !1995
  tail call void @llvm.dbg.value(metadata %class.MapFileNode* %89, i64 0, metadata !1808, metadata !1520), !dbg !1832
  tail call void @llvm.dbg.value(metadata %class.MapFileNode* %89, i64 0, metadata !1833, metadata !1520), !dbg !1996
  tail call void @llvm.dbg.value(metadata i32 100000, i64 0, metadata !1836, metadata !1520), !dbg !1998
  tail call void @llvm.dbg.value(metadata i32 1, i64 0, metadata !1837, metadata !1520), !dbg !1999
  %size.i189 = getelementptr inbounds i8, i8* %call79, i64 8, !dbg !2000
  %90 = bitcast i8* %size.i189 to i32*, !dbg !2000
  store i32 100000, i32* %90, align 8, !dbg !2001, !tbaa !1844
  %call.i190 = tail call i8* @_Znam(i64 400000) #14, !dbg !2002
  %91 = bitcast i8* %call79 to i8**, !dbg !2003
  store i8* %call.i190, i8** %91, align 8, !dbg !2003, !tbaa !1848
  store i32 100000, i32* %90, align 8, !dbg !2004, !tbaa !1844
  %top.i191 = getelementptr inbounds i8, i8* %call79, i64 12, !dbg !2005
  %92 = bitcast i8* %top.i191 to i32*, !dbg !2005
  store i32 0, i32* %92, align 4, !dbg !2006, !tbaa !1852
  %93 = load i64, i64* %5, align 8, !dbg !2007, !tbaa !1854
  %next81 = getelementptr inbounds i8, i8* %call79, i64 32, !dbg !2008
  %94 = bitcast i8* %next81 to i64*, !dbg !2009
  store i64 %93, i64* %94, align 8, !dbg !2009, !tbaa !1858
  store i8* %call79, i8** %8, align 8, !dbg !2010, !tbaa !1854
  %95 = load i32, i32* %tablesize, align 8, !dbg !2011, !tbaa !1862
  %inc84 = add nsw i32 %95, 1, !dbg !2011
  store i32 %inc84, i32* %tablesize, align 8, !dbg !2011, !tbaa !1862
  %96 = bitcast i8* %call.i190 to i32*, !dbg !2012
  tail call void @llvm.dbg.value(metadata i32* %96, i64 0, metadata !1810, metadata !1520), !dbg !1864
  tail call void @llvm.dbg.value(metadata i32 0, i64 0, metadata !1812, metadata !1520), !dbg !1865
  br label %if.end86, !dbg !2013

if.end86:                                         ; preds = %if.then77, %if.then75
  %TransactionContent.3 = phi i32* [ %96, %if.then77 ], [ %TransactionContent.2, %if.then75 ]
  %length.4 = phi i32 [ 0, %if.then77 ], [ %length.3, %if.then75 ]
  %current_mapfilenode.3 = phi %class.MapFileNode* [ %89, %if.then77 ], [ %current_mapfilenode.2, %if.then75 ]
  tail call void @llvm.dbg.value(metadata %class.MapFileNode* %current_mapfilenode.3, i64 0, metadata !1808, metadata !1520), !dbg !1832
  tail call void @llvm.dbg.value(metadata i32 %length.4, i64 0, metadata !1812, metadata !1520), !dbg !1865
  tail call void @llvm.dbg.value(metadata i32* %TransactionContent.3, i64 0, metadata !1810, metadata !1520), !dbg !1864
  %idxprom87 = sext i32 %length.4 to i64, !dbg !2014
  %arrayidx88 = getelementptr inbounds i32, i32* %TransactionContent.3, i64 %idxprom87, !dbg !2014
  store i32 -1, i32* %arrayidx88, align 4, !dbg !2015, !tbaa !1525
  %inc89 = add nsw i32 %length.4, 1, !dbg !2016
  tail call void @llvm.dbg.value(metadata i32 %inc89, i64 0, metadata !1812, metadata !1520), !dbg !1865
  %97 = load i32, i32* @TRANSACTION_NO, align 4, !dbg !2017, !tbaa !1525
  %inc90 = add nsw i32 %97, 1, !dbg !2017
  store i32 %inc90, i32* @TRANSACTION_NO, align 4, !dbg !2017, !tbaa !1525
  br label %while.cond.backedge, !dbg !2018

while.cond.backedge:                              ; preds = %if.end86, %if.else91
  %TransactionContent.0.be = phi i32* [ %TransactionContent.3, %if.end86 ], [ %TransactionContent.2, %if.else91 ]
  %length.0.be = phi i32 [ %inc89, %if.end86 ], [ %length.3, %if.else91 ]
  %current_mapfilenode.0.be = phi %class.MapFileNode* [ %current_mapfilenode.3, %if.end86 ], [ %current_mapfilenode.2, %if.else91 ]
  br label %while.cond, !dbg !1871, !llvm.loop !2019

if.else91:                                        ; preds = %if.end72
  %98 = load %struct._IO_FILE*, %struct._IO_FILE** %in, align 8, !dbg !2022, !tbaa !1677
  %call93 = tail call i32 @feof(%struct._IO_FILE* %98) #2, !dbg !2024
  %tobool94 = icmp eq i32 %call93, 0, !dbg !2024
  br i1 %tobool94, label %while.cond.backedge, label %if.then95, !dbg !2025

if.then95:                                        ; preds = %if.else91
  %99 = load %struct._IO_FILE*, %struct._IO_FILE** %in, align 8, !dbg !2026, !tbaa !1677
  tail call void @rewind(%struct._IO_FILE* %99), !dbg !2028
  %100 = load i32, i32* @TRANSACTION_NO, align 4, !dbg !2029, !tbaa !1525
  %call97 = tail call i32 (i8*, ...) @printf(i8* getelementptr inbounds ([26 x i8], [26 x i8]* @.str.1.4, i64 0, i64 0), i32 %100), !dbg !2030
  %top98 = getelementptr inbounds %class.MapFileNode, %class.MapFileNode* %current_mapfilenode.2, i64 0, i32 2, !dbg !2031
  store i32 %length.3, i32* %top98, align 4, !dbg !2032, !tbaa !1852
  %add99 = add nsw i32 %net_itemno.2, 1, !dbg !2033
  store i32 %add99, i32* @ITEM_NO, align 4, !dbg !2034, !tbaa !1525
  ret i32* %counts.2, !dbg !2035
}

; Function Attrs: nounwind readnone
declare { i64, i1 } @llvm.umul.with.overflow.i64(i64, i64) #4

; Function Attrs: argmemonly nounwind
declare void @llvm.memset.p0i8.i64(i8* nocapture writeonly, i8, i64, i32, i1) #7

; Function Attrs: nounwind
declare i32 @getc(%struct._IO_FILE* nocapture) local_unnamed_addr #5

; Function Attrs: nounwind
declare i32 @feof(%struct._IO_FILE* nocapture) local_unnamed_addr #5

; Function Attrs: nounwind
declare void @rewind(%struct._IO_FILE* nocapture) local_unnamed_addr #5

; Function Attrs: uwtable
define void @_ZN11MapFileNode4initEii(%class.MapFileNode* nocapture %this, i32 %SIZE, i32 %mul) local_unnamed_addr #0 align 2 !dbg !1834 {
entry:
  tail call void @llvm.dbg.value(metadata %class.MapFileNode* %this, i64 0, metadata !1833, metadata !1520), !dbg !2036
  tail call void @llvm.dbg.value(metadata i32 %SIZE, i64 0, metadata !1836, metadata !1520), !dbg !2037
  tail call void @llvm.dbg.value(metadata i32 %mul, i64 0, metadata !1837, metadata !1520), !dbg !2038
  %size = getelementptr inbounds %class.MapFileNode, %class.MapFileNode* %this, i64 0, i32 1, !dbg !2039
  store i32 %SIZE, i32* %size, align 8, !dbg !2040, !tbaa !1844
  %0 = sext i32 %SIZE to i64, !dbg !2041
  %1 = tail call { i64, i1 } @llvm.umul.with.overflow.i64(i64 %0, i64 4), !dbg !2041
  %2 = extractvalue { i64, i1 } %1, 1, !dbg !2041
  %3 = extractvalue { i64, i1 } %1, 0, !dbg !2041
  %4 = select i1 %2, i64 -1, i64 %3, !dbg !2041
  %call = tail call i8* @_Znam(i64 %4) #14, !dbg !2041
  %5 = bitcast %class.MapFileNode* %this to i8**, !dbg !2042
  store i8* %call, i8** %5, align 8, !dbg !2042, !tbaa !1848
  %mul4 = mul nsw i32 %SIZE, %mul, !dbg !2043
  store i32 %mul4, i32* %size, align 8, !dbg !2043, !tbaa !1844
  %top = getelementptr inbounds %class.MapFileNode, %class.MapFileNode* %this, i64 0, i32 2, !dbg !2044
  store i32 0, i32* %top, align 4, !dbg !2045, !tbaa !1852
  ret void, !dbg !2046
}

; Function Attrs: nounwind uwtable
define void @_ZN11MapFileNode8finalizeEv(%class.MapFileNode* nocapture readonly %this) local_unnamed_addr #3 align 2 !dbg !2047 {
entry:
  tail call void @llvm.dbg.value(metadata %class.MapFileNode* %this, i64 0, metadata !2049, metadata !1520), !dbg !2050
  %TransactionContent = getelementptr inbounds %class.MapFileNode, %class.MapFileNode* %this, i64 0, i32 0, !dbg !2051
  %0 = load i32*, i32** %TransactionContent, align 8, !dbg !2051, !tbaa !1848
  %isnull = icmp eq i32* %0, null, !dbg !2052
  br i1 %isnull, label %delete.end, label %delete.notnull, !dbg !2052

delete.notnull:                                   ; preds = %entry
  %1 = bitcast i32* %0 to i8*, !dbg !2053
  tail call void @_ZdaPv(i8* %1) #15, !dbg !2053
  br label %delete.end, !dbg !2053

delete.end:                                       ; preds = %delete.notnull, %entry
  ret void, !dbg !2055
}

; Function Attrs: nounwind uwtable
define void @_ZN7MapFile4initEv(%class.MapFile* nocapture %this) local_unnamed_addr #3 align 2 !dbg !2056 {
entry:
  tail call void @llvm.dbg.value(metadata %class.MapFile* %this, i64 0, metadata !2058, metadata !1520), !dbg !2059
  %first = getelementptr inbounds %class.MapFile, %class.MapFile* %this, i64 0, i32 0, !dbg !2060
  store %class.MapFileNode* null, %class.MapFileNode** %first, align 8, !dbg !2061, !tbaa !1854
  %tablesize = getelementptr inbounds %class.MapFile, %class.MapFile* %this, i64 0, i32 7, !dbg !2062
  store i32 0, i32* %tablesize, align 8, !dbg !2063, !tbaa !1862
  ret void, !dbg !2064
}

; Function Attrs: uwtable
define void @_ZN7MapFile20transform_list_tableEv(%class.MapFile* nocapture %this) local_unnamed_addr #0 align 2 !dbg !2065 {
entry:
  tail call void @llvm.dbg.value(metadata %class.MapFile* %this, i64 0, metadata !2067, metadata !1520), !dbg !2070
  %0 = load %class.memory*, %class.memory** @database_buf, align 8, !dbg !2071, !tbaa !1536
  %tablesize = getelementptr inbounds %class.MapFile, %class.MapFile* %this, i64 0, i32 7, !dbg !2072
  %1 = load i32, i32* %tablesize, align 8, !dbg !2072, !tbaa !1862
  %mul = shl i32 %1, 3, !dbg !2073
  %call = tail call i8* @_ZN6memory6newbufEjj(%class.memory* %0, i32 1, i32 %mul), !dbg !2074
  %table = getelementptr inbounds %class.MapFile, %class.MapFile* %this, i64 0, i32 1, !dbg !2075
  %2 = bitcast %class.MapFileNode*** %table to i8**, !dbg !2076
  store i8* %call, i8** %2, align 8, !dbg !2076, !tbaa !2077
  tail call void @llvm.dbg.value(metadata i32 0, i64 0, metadata !2069, metadata !1520), !dbg !2078
  %first = getelementptr inbounds %class.MapFile, %class.MapFile* %this, i64 0, i32 0, !dbg !2079
  %current_node.09 = load %class.MapFileNode*, %class.MapFileNode** %first, align 8, !tbaa !1536
  tail call void @llvm.dbg.value(metadata i32 0, i64 0, metadata !2069, metadata !1520), !dbg !2078
  tail call void @llvm.dbg.value(metadata %class.MapFileNode* %current_node.09, i64 0, metadata !2068, metadata !1520), !dbg !2080
  %tobool10 = icmp eq %class.MapFileNode* %current_node.09, null, !dbg !2081
  br i1 %tobool10, label %while.end, label %while.body.preheader, !dbg !2083

while.body.preheader:                             ; preds = %entry
  %3 = bitcast i8* %call to %class.MapFileNode**, !dbg !2083
  store %class.MapFileNode* %current_node.09, %class.MapFileNode** %3, align 8, !dbg !2084, !tbaa !1536
  %next13 = getelementptr inbounds %class.MapFileNode, %class.MapFileNode* %current_node.09, i64 0, i32 6, !dbg !2086
  %current_node.014 = load %class.MapFileNode*, %class.MapFileNode** %next13, align 8, !tbaa !1536
  tail call void @llvm.dbg.value(metadata %class.MapFileNode* %current_node.014, i64 0, metadata !2068, metadata !1520), !dbg !2080
  %tobool15 = icmp eq %class.MapFileNode* %current_node.014, null, !dbg !2081
  br i1 %tobool15, label %while.end, label %while.body.while.body_crit_edge.preheader, !dbg !2083, !llvm.loop !2087

while.body.while.body_crit_edge.preheader:        ; preds = %while.body.preheader
  br label %while.body.while.body_crit_edge, !dbg !2090

while.body.while.body_crit_edge:                  ; preds = %while.body.while.body_crit_edge.preheader, %while.body.while.body_crit_edge
  %current_node.017 = phi %class.MapFileNode* [ %current_node.0, %while.body.while.body_crit_edge ], [ %current_node.014, %while.body.while.body_crit_edge.preheader ]
  %indvars.iv16 = phi i64 [ %indvars.iv.next, %while.body.while.body_crit_edge ], [ 0, %while.body.while.body_crit_edge.preheader ]
  %indvars.iv.next = add nuw i64 %indvars.iv16, 1, !dbg !2090
  %.pre = load %class.MapFileNode**, %class.MapFileNode*** %table, align 8, !tbaa !2077
  %arrayidx = getelementptr inbounds %class.MapFileNode*, %class.MapFileNode** %.pre, i64 %indvars.iv.next, !dbg !2091
  store %class.MapFileNode* %current_node.017, %class.MapFileNode** %arrayidx, align 8, !dbg !2084, !tbaa !1536
  %next = getelementptr inbounds %class.MapFileNode, %class.MapFileNode* %current_node.017, i64 0, i32 6, !dbg !2086
  %current_node.0 = load %class.MapFileNode*, %class.MapFileNode** %next, align 8, !tbaa !1536
  tail call void @llvm.dbg.value(metadata %class.MapFileNode* %current_node.0, i64 0, metadata !2068, metadata !1520), !dbg !2080
  %tobool = icmp eq %class.MapFileNode* %current_node.0, null, !dbg !2081
  br i1 %tobool, label %while.end.loopexit, label %while.body.while.body_crit_edge, !dbg !2083, !llvm.loop !2087

while.end.loopexit:                               ; preds = %while.body.while.body_crit_edge
  br label %while.end, !dbg !2092

while.end:                                        ; preds = %while.end.loopexit, %while.body.preheader, %entry
  ret void, !dbg !2092
}

; Function Attrs: uwtable
define void @_ZN7MapFile26alloc_work_between_threadsEi(%class.MapFile* nocapture %this, i32 %workingthread) local_unnamed_addr #0 align 2 !dbg !2093 {
entry:
  tail call void @llvm.dbg.value(metadata %class.MapFile* %this, i64 0, metadata !2095, metadata !1520), !dbg !2106
  tail call void @llvm.dbg.value(metadata i32 %workingthread, i64 0, metadata !2096, metadata !1520), !dbg !2107
  %tablesize = getelementptr inbounds %class.MapFile, %class.MapFile* %this, i64 0, i32 7, !dbg !2108
  %0 = load i32, i32* %tablesize, align 8, !dbg !2108, !tbaa !1862
  %1 = sext i32 %0 to i64, !dbg !2109
  %2 = tail call { i64, i1 } @llvm.umul.with.overflow.i64(i64 %1, i64 4), !dbg !2109
  %3 = extractvalue { i64, i1 } %2, 1, !dbg !2109
  %4 = extractvalue { i64, i1 } %2, 0, !dbg !2109
  %5 = select i1 %3, i64 -1, i64 %4, !dbg !2109
  %call = tail call i8* @_Znam(i64 %5) #14, !dbg !2109
  %6 = bitcast i8* %call to i32*, !dbg !2109
  tail call void @llvm.dbg.value(metadata i32* %6, i64 0, metadata !2105, metadata !1520), !dbg !2110
  %7 = load %class.memory*, %class.memory** @database_buf, align 8, !dbg !2111, !tbaa !1536
  %shl = shl i32 %workingthread, 4, !dbg !2112
  %add = add nsw i32 %0, %shl, !dbg !2113
  %call3 = tail call i8* @_ZN6memory6newbufEjj(%class.memory* %7, i32 1, i32 %add), !dbg !2114
  %8 = bitcast i8* %call3 to i32*, !dbg !2115
  %nodebegin = getelementptr inbounds %class.MapFile, %class.MapFile* %this, i64 0, i32 2, !dbg !2116
  %9 = bitcast i32** %nodebegin to i8**, !dbg !2117
  store i8* %call3, i8** %9, align 8, !dbg !2117, !tbaa !2118
  %idx.ext = sext i32 %workingthread to i64, !dbg !2119
  %add.ptr = getelementptr inbounds i32, i32* %8, i64 %idx.ext, !dbg !2119
  %nodeend = getelementptr inbounds %class.MapFile, %class.MapFile* %this, i64 0, i32 3, !dbg !2120
  store i32* %add.ptr, i32** %nodeend, align 8, !dbg !2121, !tbaa !2122
  %add.ptr7 = getelementptr inbounds i32, i32* %add.ptr, i64 %idx.ext, !dbg !2123
  %posbegin = getelementptr inbounds %class.MapFile, %class.MapFile* %this, i64 0, i32 4, !dbg !2124
  store i32* %add.ptr7, i32** %posbegin, align 8, !dbg !2125, !tbaa !2126
  %add.ptr10 = getelementptr inbounds i32, i32* %add.ptr7, i64 %idx.ext, !dbg !2127
  %posend = getelementptr inbounds %class.MapFile, %class.MapFile* %this, i64 0, i32 5, !dbg !2128
  store i32* %add.ptr10, i32** %posend, align 8, !dbg !2129, !tbaa !2130
  %add.ptr13 = getelementptr inbounds i32, i32* %add.ptr10, i64 %idx.ext, !dbg !2131
  %shareinfomap = getelementptr inbounds %class.MapFile, %class.MapFile* %this, i64 0, i32 6, !dbg !2132
  %10 = bitcast i8** %shareinfomap to i32**, !dbg !2133
  store i32* %add.ptr13, i32** %10, align 8, !dbg !2133, !tbaa !2134
  tail call void @llvm.dbg.value(metadata i32 0, i64 0, metadata !2098, metadata !1520), !dbg !2135
  tail call void @llvm.dbg.value(metadata i32 0, i64 0, metadata !2100, metadata !1520), !dbg !2136
  tail call void @llvm.dbg.value(metadata i32 0, i64 0, metadata !2098, metadata !1520), !dbg !2135
  tail call void @llvm.dbg.value(metadata i32 0, i64 0, metadata !2100, metadata !1520), !dbg !2136
  %11 = load i32, i32* %tablesize, align 8, !dbg !2137, !tbaa !1862
  %cmp224 = icmp sgt i32 %11, 0, !dbg !2141
  br i1 %cmp224, label %for.body.lr.ph, label %entry.for.end_crit_edge, !dbg !2142

entry.for.end_crit_edge:                          ; preds = %entry
  %12 = bitcast i8* %call3 to i32*, !dbg !2142
  %.pre235 = getelementptr inbounds %class.MapFile, %class.MapFile* %this, i64 0, i32 1, !dbg !2144
  br label %for.end, !dbg !2142

for.body.lr.ph:                                   ; preds = %entry
  %13 = bitcast i32* %add.ptr13 to i8*, !dbg !2142
  %table = getelementptr inbounds %class.MapFile, %class.MapFile* %this, i64 0, i32 1
  %14 = load %class.MapFileNode**, %class.MapFileNode*** %table, align 8, !dbg !2145, !tbaa !2077
  %15 = load %class.MapFileNode*, %class.MapFileNode** %14, align 8, !dbg !2145, !tbaa !1536
  %top236 = getelementptr inbounds %class.MapFileNode, %class.MapFileNode* %15, i64 0, i32 2, !dbg !2147
  %16 = load i32, i32* %top236, align 4, !dbg !2147, !tbaa !1852
  tail call void @llvm.dbg.value(metadata i32 %16, i64 0, metadata !2098, metadata !1520), !dbg !2135
  store i32 %16, i32* %6, align 4, !dbg !2148, !tbaa !1525
  store i8 0, i8* %13, align 1, !dbg !2149, !tbaa !2150
  tail call void @llvm.dbg.value(metadata i32 %16, i64 0, metadata !2098, metadata !1520), !dbg !2135
  %17 = load i32, i32* %tablesize, align 8, !dbg !2137, !tbaa !1862
  %cmp237 = icmp sgt i32 %17, 1, !dbg !2141
  br i1 %cmp237, label %for.body.for.body_crit_edge.preheader, label %for.end.loopexit, !dbg !2142, !llvm.loop !2151

for.body.for.body_crit_edge.preheader:            ; preds = %for.body.lr.ph
  br label %for.body.for.body_crit_edge

for.body.for.body_crit_edge:                      ; preds = %for.body.for.body_crit_edge.preheader, %for.body.for.body_crit_edge
  %indvars.iv.next232239 = phi i64 [ %indvars.iv.next232, %for.body.for.body_crit_edge ], [ 1, %for.body.for.body_crit_edge.preheader ]
  %add15238 = phi i32 [ %add15, %for.body.for.body_crit_edge ], [ %16, %for.body.for.body_crit_edge.preheader ]
  %.pre = load i8*, i8** %shareinfomap, align 8, !tbaa !2134
  %18 = load %class.MapFileNode**, %class.MapFileNode*** %table, align 8, !dbg !2145, !tbaa !2077
  %arrayidx = getelementptr inbounds %class.MapFileNode*, %class.MapFileNode** %18, i64 %indvars.iv.next232239, !dbg !2145
  %19 = load %class.MapFileNode*, %class.MapFileNode** %arrayidx, align 8, !dbg !2145, !tbaa !1536
  %top = getelementptr inbounds %class.MapFileNode, %class.MapFileNode* %19, i64 0, i32 2, !dbg !2147
  %20 = load i32, i32* %top, align 4, !dbg !2147, !tbaa !1852
  %add15 = add nsw i32 %20, %add15238, !dbg !2154
  tail call void @llvm.dbg.value(metadata i32 %add15, i64 0, metadata !2098, metadata !1520), !dbg !2135
  %arrayidx21 = getelementptr inbounds i32, i32* %6, i64 %indvars.iv.next232239, !dbg !2155
  store i32 %20, i32* %arrayidx21, align 4, !dbg !2148, !tbaa !1525
  %arrayidx24 = getelementptr inbounds i8, i8* %.pre, i64 %indvars.iv.next232239, !dbg !2156
  store i8 0, i8* %arrayidx24, align 1, !dbg !2149, !tbaa !2150
  %indvars.iv.next232 = add nuw nsw i64 %indvars.iv.next232239, 1, !dbg !2157
  tail call void @llvm.dbg.value(metadata i32 %add15, i64 0, metadata !2098, metadata !1520), !dbg !2135
  %21 = load i32, i32* %tablesize, align 8, !dbg !2137, !tbaa !1862
  %22 = sext i32 %21 to i64, !dbg !2141
  %cmp = icmp slt i64 %indvars.iv.next232, %22, !dbg !2141
  br i1 %cmp, label %for.body.for.body_crit_edge, label %for.end.loopexit.loopexit, !dbg !2142, !llvm.loop !2151

for.end.loopexit.loopexit:                        ; preds = %for.body.for.body_crit_edge
  br label %for.end.loopexit

for.end.loopexit:                                 ; preds = %for.end.loopexit.loopexit, %for.body.lr.ph
  %add15.lcssa = phi i32 [ %16, %for.body.lr.ph ], [ %add15, %for.end.loopexit.loopexit ]
  %.pre233 = load i32*, i32** %posbegin, align 8, !tbaa !2126
  %.pre234 = load i32*, i32** %nodebegin, align 8, !tbaa !2118
  br label %for.end, !dbg !2159

for.end:                                          ; preds = %entry.for.end_crit_edge, %for.end.loopexit
  %table25.pre-phi = phi %class.MapFileNode*** [ %.pre235, %entry.for.end_crit_edge ], [ %table, %for.end.loopexit ], !dbg !2144
  %23 = phi i32* [ %12, %entry.for.end_crit_edge ], [ %.pre234, %for.end.loopexit ], !dbg !2160
  %24 = phi i32* [ %add.ptr7, %entry.for.end_crit_edge ], [ %.pre233, %for.end.loopexit ], !dbg !2161
  %sumwork.0.lcssa = phi i32 [ 0, %entry.for.end_crit_edge ], [ %add15.lcssa, %for.end.loopexit ]
  %div = sdiv i32 %sumwork.0.lcssa, %workingthread, !dbg !2159
  tail call void @llvm.dbg.value(metadata i32 %div, i64 0, metadata !2099, metadata !1520), !dbg !2162
  tail call void @llvm.dbg.value(metadata i32 0, i64 0, metadata !2098, metadata !1520), !dbg !2135
  tail call void @llvm.dbg.value(metadata i32 0, i64 0, metadata !2101, metadata !1520), !dbg !2163
  %25 = load %class.MapFileNode**, %class.MapFileNode*** %table25.pre-phi, align 8, !dbg !2144, !tbaa !2077
  %26 = load %class.MapFileNode*, %class.MapFileNode** %25, align 8, !dbg !2144, !tbaa !1536
  %top27 = getelementptr inbounds %class.MapFileNode, %class.MapFileNode* %26, i64 0, i32 2, !dbg !2164
  %27 = load i32, i32* %top27, align 4, !dbg !2164, !tbaa !1852
  %sub = add nsw i32 %27, -1, !dbg !2165
  store i32 %sub, i32* %24, align 4, !dbg !2166, !tbaa !1525
  store i32 0, i32* %23, align 4, !dbg !2167, !tbaa !1525
  tail call void @llvm.dbg.value(metadata i32 0, i64 0, metadata !2100, metadata !1520), !dbg !2136
  tail call void @llvm.dbg.value(metadata i32 0, i64 0, metadata !2098, metadata !1520), !dbg !2135
  tail call void @llvm.dbg.value(metadata i32 0, i64 0, metadata !2101, metadata !1520), !dbg !2163
  tail call void @llvm.dbg.value(metadata i32 0, i64 0, metadata !2100, metadata !1520), !dbg !2136
  %28 = load i32, i32* %tablesize, align 8, !dbg !2168, !tbaa !1862
  %cmp34220 = icmp sgt i32 %28, 0, !dbg !2172
  br i1 %cmp34220, label %for.body35.lr.ph, label %delete.notnull, !dbg !2173

for.body35.lr.ph:                                 ; preds = %for.end
  %sub120 = add nsw i32 %workingthread, -1
  br label %for.body35, !dbg !2173

for.cond32:                                       ; preds = %if.end119
  tail call void @llvm.dbg.value(metadata i32 %sumwork.2, i64 0, metadata !2098, metadata !1520), !dbg !2135
  tail call void @llvm.dbg.value(metadata i32 %j.1, i64 0, metadata !2101, metadata !1520), !dbg !2163
  tail call void @llvm.dbg.value(metadata i32 %inc133, i64 0, metadata !2100, metadata !1520), !dbg !2136
  %29 = load i32, i32* %tablesize, align 8, !dbg !2168, !tbaa !1862
  %cmp34 = icmp slt i32 %inc133, %29, !dbg !2172
  br i1 %cmp34, label %for.body35, label %delete.notnull.loopexit, !dbg !2173, !llvm.loop !2175

for.body35:                                       ; preds = %for.body35.lr.ph, %for.cond32
  %sumwork.1223 = phi i32 [ 0, %for.body35.lr.ph ], [ %sumwork.2, %for.cond32 ]
  %j.0222 = phi i32 [ 0, %for.body35.lr.ph ], [ %j.1, %for.cond32 ]
  %i.1221 = phi i32 [ 0, %for.body35.lr.ph ], [ %inc133, %for.cond32 ]
  %idxprom36 = sext i32 %i.1221 to i64, !dbg !2178
  %arrayidx37 = getelementptr inbounds i32, i32* %6, i64 %idxprom36, !dbg !2178
  %30 = load i32, i32* %arrayidx37, align 4, !dbg !2178, !tbaa !1525
  %add38 = add nsw i32 %30, %sumwork.1223, !dbg !2181
  %cmp39 = icmp sgt i32 %add38, %div, !dbg !2182
  br i1 %cmp39, label %if.then, label %if.else113, !dbg !2183

if.then:                                          ; preds = %for.body35
  %sub42211 = sub i32 %sumwork.1223, %div, !dbg !2184
  %sub43 = add i32 %30, %sub42211, !dbg !2184
  tail call void @llvm.dbg.value(metadata i32 %sub43, i64 0, metadata !2102, metadata !1520), !dbg !2186
  %31 = load %class.MapFileNode**, %class.MapFileNode*** %table25.pre-phi, align 8, !dbg !2187, !tbaa !2077
  %arrayidx46 = getelementptr inbounds %class.MapFileNode*, %class.MapFileNode** %31, i64 %idxprom36, !dbg !2187
  %32 = load %class.MapFileNode*, %class.MapFileNode** %arrayidx46, align 8, !dbg !2187, !tbaa !1536
  %TransactionContent = getelementptr inbounds %class.MapFileNode, %class.MapFileNode* %32, i64 0, i32 0, !dbg !2188
  %33 = load i32*, i32** %TransactionContent, align 8, !dbg !2188, !tbaa !1848
  tail call void @llvm.dbg.value(metadata i32* %33, i64 0, metadata !2097, metadata !1520), !dbg !2189
  tail call void @llvm.dbg.value(metadata i32 %sub43, i64 0, metadata !2103, metadata !1520), !dbg !2190
  tail call void @llvm.dbg.value(metadata i32 %sub43, i64 0, metadata !2103, metadata !1520), !dbg !2190
  %cmp49213 = icmp sgt i32 %sub43, %30, !dbg !2191
  br i1 %cmp49213, label %while.cond54.preheader, label %land.rhs.preheader, !dbg !2193

land.rhs.preheader:                               ; preds = %if.then
  %34 = sext i32 %sub43 to i64, !dbg !2194
  %35 = sext i32 %30 to i64
  br label %land.rhs, !dbg !2194

while.cond54.preheader.loopexit:                  ; preds = %land.rhs, %while.body
  %pos2.0.lcssa.ph = phi i32 [ %38, %land.rhs ], [ %inc53, %while.body ]
  br label %while.cond54.preheader, !dbg !2196

while.cond54.preheader:                           ; preds = %while.cond54.preheader.loopexit, %if.then
  %pos2.0.lcssa = phi i32 [ %sub43, %if.then ], [ %pos2.0.lcssa.ph, %while.cond54.preheader.loopexit ]
  tail call void @llvm.dbg.value(metadata i32 %sub43, i64 0, metadata !2104, metadata !1520), !dbg !2196
  %cmp55216 = icmp sgt i32 %sub43, -1, !dbg !2197
  br i1 %cmp55216, label %land.rhs56.preheader, label %while.end62, !dbg !2198

land.rhs56.preheader:                             ; preds = %while.cond54.preheader
  %36 = sext i32 %sub43 to i64, !dbg !2199
  br label %land.rhs56, !dbg !2199

land.rhs:                                         ; preds = %land.rhs.preheader, %while.body
  %indvars.iv = phi i64 [ %34, %land.rhs.preheader ], [ %indvars.iv.next, %while.body ]
  %pos2.0214 = phi i32 [ %sub43, %land.rhs.preheader ], [ %inc53, %while.body ]
  %arrayidx51 = getelementptr inbounds i32, i32* %33, i64 %indvars.iv, !dbg !2194
  %37 = load i32, i32* %arrayidx51, align 4, !dbg !2194, !tbaa !1525
  %cmp52 = icmp eq i32 %37, -1, !dbg !2200
  %38 = trunc i64 %indvars.iv to i32, !dbg !2201
  br i1 %cmp52, label %while.cond54.preheader.loopexit, label %while.body, !dbg !2201

while.body:                                       ; preds = %land.rhs
  %indvars.iv.next = add i64 %indvars.iv, 1, !dbg !2203
  %inc53 = add nsw i32 %pos2.0214, 1, !dbg !2203
  tail call void @llvm.dbg.value(metadata i32 %inc53, i64 0, metadata !2103, metadata !1520), !dbg !2190
  tail call void @llvm.dbg.value(metadata i32 %inc53, i64 0, metadata !2103, metadata !1520), !dbg !2190
  %cmp49 = icmp slt i64 %indvars.iv, %35, !dbg !2191
  br i1 %cmp49, label %land.rhs, label %while.cond54.preheader.loopexit, !dbg !2193, !llvm.loop !2204

land.rhs56:                                       ; preds = %land.rhs56.preheader, %while.body61
  %indvars.iv229 = phi i64 [ %36, %land.rhs56.preheader ], [ %indvars.iv.next230, %while.body61 ]
  %pos3.0217 = phi i32 [ %sub43, %land.rhs56.preheader ], [ %dec, %while.body61 ]
  %arrayidx58 = getelementptr inbounds i32, i32* %33, i64 %indvars.iv229, !dbg !2199
  %39 = load i32, i32* %arrayidx58, align 4, !dbg !2199, !tbaa !1525
  %cmp59 = icmp eq i32 %39, -1, !dbg !2206
  %40 = trunc i64 %indvars.iv229 to i32, !dbg !2207
  br i1 %cmp59, label %while.end62.loopexit, label %while.body61, !dbg !2207

while.body61:                                     ; preds = %land.rhs56
  %indvars.iv.next230 = add nsw i64 %indvars.iv229, -1, !dbg !2208
  %dec = add nsw i32 %pos3.0217, -1, !dbg !2208
  tail call void @llvm.dbg.value(metadata i32 %dec, i64 0, metadata !2104, metadata !1520), !dbg !2196
  tail call void @llvm.dbg.value(metadata i32 %dec, i64 0, metadata !2104, metadata !1520), !dbg !2196
  %cmp55 = icmp sgt i64 %indvars.iv229, 0, !dbg !2197
  br i1 %cmp55, label %land.rhs56, label %while.end62.loopexit, !dbg !2198, !llvm.loop !2209

while.end62.loopexit:                             ; preds = %land.rhs56, %while.body61
  %pos3.0.lcssa.ph = phi i32 [ %40, %land.rhs56 ], [ %dec, %while.body61 ]
  br label %while.end62, !dbg !2211

while.end62:                                      ; preds = %while.end62.loopexit, %while.cond54.preheader
  %pos3.0.lcssa = phi i32 [ %sub43, %while.cond54.preheader ], [ %pos3.0.lcssa.ph, %while.end62.loopexit ]
  %sub63 = sub nsw i32 %pos2.0.lcssa, %sub43, !dbg !2211
  %sub64 = sub nsw i32 %sub43, %pos3.0.lcssa, !dbg !2213
  %cmp65 = icmp sgt i32 %sub63, %sub64, !dbg !2214
  %pos3.0.pos2.0 = select i1 %cmp65, i32 %pos3.0.lcssa, i32 %pos2.0.lcssa, !dbg !2215
  tail call void @llvm.dbg.value(metadata i32 %pos3.0.pos2.0, i64 0, metadata !2102, metadata !1520), !dbg !2186
  %sub67 = add nsw i32 %pos3.0.pos2.0, -1, !dbg !2216
  tail call void @llvm.dbg.value(metadata i32 %sub67, i64 0, metadata !2103, metadata !1520), !dbg !2190
  %idxprom68 = sext i32 %pos3.0.pos2.0 to i64, !dbg !2217
  %arrayidx69 = getelementptr inbounds i32, i32* %33, i64 %idxprom68, !dbg !2217
  %41 = load i32, i32* %arrayidx69, align 4, !dbg !2217, !tbaa !1525
  %cmp70 = icmp eq i32 %41, -1, !dbg !2219
  %inc72 = zext i1 %cmp70 to i32, !dbg !2220
  %pos1.1 = add nsw i32 %inc72, %pos3.0.pos2.0, !dbg !2220
  tail call void @llvm.dbg.value(metadata i32 %pos1.1, i64 0, metadata !2102, metadata !1520), !dbg !2186
  %top77 = getelementptr inbounds %class.MapFileNode, %class.MapFileNode* %32, i64 0, i32 2, !dbg !2221
  %42 = load i32, i32* %top77, align 4, !dbg !2221, !tbaa !1852
  %cmp78 = icmp slt i32 %pos1.1, %42, !dbg !2223
  %sub80 = add nsw i32 %i.1221, -1, !dbg !2224
  %i.1.sink = select i1 %cmp78, i32 %i.1221, i32 %sub80, !dbg !2226
  %.sink = select i1 %cmp78, i32 %pos1.1, i32 0, !dbg !2226
  %43 = load i32*, i32** %nodeend, align 8, !tbaa !2122
  %idxprom89 = sext i32 %j.0222 to i64
  %arrayidx90 = getelementptr inbounds i32, i32* %43, i64 %idxprom89
  store i32 %i.1.sink, i32* %arrayidx90, align 4, !tbaa !1525
  %.sink135 = load i32*, i32** %posend, align 8, !tbaa !2130
  %arrayidx93 = getelementptr inbounds i32, i32* %.sink135, i64 %idxprom89
  store i32 %.sink, i32* %arrayidx93, align 4, !tbaa !1525
  %inc95 = add nsw i32 %j.0222, 1, !dbg !2227
  tail call void @llvm.dbg.value(metadata i32 %inc95, i64 0, metadata !2101, metadata !1520), !dbg !2163
  %44 = load i32*, i32** %nodebegin, align 8, !dbg !2228, !tbaa !2118
  %idxprom97 = sext i32 %inc95 to i64, !dbg !2228
  %arrayidx98 = getelementptr inbounds i32, i32* %44, i64 %idxprom97, !dbg !2228
  store i32 %i.1221, i32* %arrayidx98, align 4, !dbg !2229, !tbaa !1525
  %45 = load i32*, i32** %posbegin, align 8, !dbg !2230, !tbaa !2126
  %arrayidx101 = getelementptr inbounds i32, i32* %45, i64 %idxprom97, !dbg !2230
  store i32 %sub67, i32* %arrayidx101, align 4, !dbg !2231, !tbaa !1525
  %46 = load i8*, i8** %shareinfomap, align 8, !dbg !2232, !tbaa !2134
  %arrayidx104 = getelementptr inbounds i8, i8* %46, i64 %idxprom36, !dbg !2232
  store i8 1, i8* %arrayidx104, align 1, !dbg !2233, !tbaa !2150
  %cmp105 = icmp sgt i32 %sub67, %div, !dbg !2234
  br i1 %cmp105, label %if.then106, label %if.end119, !dbg !2236

if.then106:                                       ; preds = %while.end62
  store i32 %sub67, i32* %arrayidx37, align 4, !dbg !2237, !tbaa !1525
  tail call void @llvm.dbg.value(metadata i32 0, i64 0, metadata !2098, metadata !1520), !dbg !2135
  tail call void @llvm.dbg.value(metadata i32 %sub80, i64 0, metadata !2100, metadata !1520), !dbg !2136
  br label %if.end119, !dbg !2239

if.else113:                                       ; preds = %for.body35
  %47 = load %class.MapFileNode**, %class.MapFileNode*** %table25.pre-phi, align 8, !dbg !2240, !tbaa !2077
  %arrayidx116 = getelementptr inbounds %class.MapFileNode*, %class.MapFileNode** %47, i64 %idxprom36, !dbg !2240
  %48 = load %class.MapFileNode*, %class.MapFileNode** %arrayidx116, align 8, !dbg !2240, !tbaa !1536
  %top117 = getelementptr inbounds %class.MapFileNode, %class.MapFileNode* %48, i64 0, i32 2, !dbg !2241
  %49 = load i32, i32* %top117, align 4, !dbg !2241, !tbaa !1852
  %add118 = add nsw i32 %49, %sumwork.1223, !dbg !2242
  tail call void @llvm.dbg.value(metadata i32 %add118, i64 0, metadata !2098, metadata !1520), !dbg !2135
  br label %if.end119

if.end119:                                        ; preds = %while.end62, %if.then106, %if.else113
  %i.2 = phi i32 [ %sub80, %if.then106 ], [ %i.1221, %if.else113 ], [ %i.1221, %while.end62 ]
  %j.1 = phi i32 [ %inc95, %if.then106 ], [ %j.0222, %if.else113 ], [ %inc95, %while.end62 ]
  %sumwork.2 = phi i32 [ 0, %if.then106 ], [ %add118, %if.else113 ], [ %pos3.0.pos2.0, %while.end62 ]
  tail call void @llvm.dbg.value(metadata i32 %sumwork.2, i64 0, metadata !2098, metadata !1520), !dbg !2135
  tail call void @llvm.dbg.value(metadata i32 %j.1, i64 0, metadata !2101, metadata !1520), !dbg !2163
  tail call void @llvm.dbg.value(metadata i32 %i.2, i64 0, metadata !2100, metadata !1520), !dbg !2136
  %cmp121 = icmp eq i32 %j.1, %sub120, !dbg !2243
  %inc133 = add nsw i32 %i.2, 1, !dbg !2245
  tail call void @llvm.dbg.value(metadata i32 %inc133, i64 0, metadata !2100, metadata !1520), !dbg !2136
  br i1 %cmp121, label %if.then122, label %for.cond32, !dbg !2247

if.then122:                                       ; preds = %if.end119
  %50 = load i32*, i32** %posend, align 8, !dbg !2248, !tbaa !2130
  %idxprom124 = sext i32 %sub120 to i64, !dbg !2248
  %arrayidx125 = getelementptr inbounds i32, i32* %50, i64 %idxprom124, !dbg !2248
  store i32 0, i32* %arrayidx125, align 4, !dbg !2250, !tbaa !1525
  %51 = load i32, i32* %tablesize, align 8, !dbg !2251, !tbaa !1862
  %sub127 = add nsw i32 %51, -1, !dbg !2252
  %52 = load i32*, i32** %nodeend, align 8, !dbg !2253, !tbaa !2122
  %arrayidx130 = getelementptr inbounds i32, i32* %52, i64 %idxprom124, !dbg !2253
  store i32 %sub127, i32* %arrayidx130, align 4, !dbg !2254, !tbaa !1525
  br label %delete.notnull, !dbg !2255

delete.notnull.loopexit:                          ; preds = %for.cond32
  br label %delete.notnull, !dbg !2256

delete.notnull:                                   ; preds = %delete.notnull.loopexit, %for.end, %if.then122
  tail call void @_ZdaPv(i8* nonnull %call) #15, !dbg !2256
  ret void, !dbg !2258
}

; Function Attrs: nounwind readonly uwtable
define i32 @_Z9findpivotRKiS0_(i32* nocapture readonly dereferenceable(4) %i, i32* nocapture readonly dereferenceable(4) %j) local_unnamed_addr #12 !dbg !2259 {
entry:
  tail call void @llvm.dbg.value(metadata i32* %i, i64 0, metadata !2264, metadata !1520), !dbg !2266
  tail call void @llvm.dbg.value(metadata i32* %j, i64 0, metadata !2265, metadata !1520), !dbg !2267
  %0 = load i32, i32* %i, align 4, !dbg !2268, !tbaa !1525
  %1 = load i32, i32* %j, align 4, !dbg !2269, !tbaa !1525
  %add = add nsw i32 %1, %0, !dbg !2270
  %div = sdiv i32 %add, 2, !dbg !2271
  ret i32 %div, !dbg !2272
}

; Function Attrs: nounwind uwtable
define i32 @_Z9partitionPiS_iii(i32* nocapture %array, i32* nocapture %temp, i32 %l, i32 %r, i32 %pivot) local_unnamed_addr #3 !dbg !2273 {
entry:
  tail call void @llvm.dbg.value(metadata i32* %array, i64 0, metadata !2277, metadata !1520), !dbg !2282
  tail call void @llvm.dbg.value(metadata i32* %temp, i64 0, metadata !2278, metadata !1520), !dbg !2283
  tail call void @llvm.dbg.value(metadata i32 %l, i64 0, metadata !2279, metadata !1520), !dbg !2284
  tail call void @llvm.dbg.value(metadata i32 %r, i64 0, metadata !2280, metadata !1520), !dbg !2285
  tail call void @llvm.dbg.value(metadata i32 %pivot, i64 0, metadata !2281, metadata !1520), !dbg !2286
  br label %do.body, !dbg !2287, !llvm.loop !2288

do.body:                                          ; preds = %while.end6, %entry
  %r.addr.0 = phi i32 [ %r, %entry ], [ %r.addr.2, %while.end6 ]
  %l.addr.0 = phi i32 [ %l, %entry ], [ %2, %while.end6 ]
  tail call void @llvm.dbg.value(metadata i32 %l.addr.0, i64 0, metadata !2279, metadata !1520), !dbg !2284
  tail call void @llvm.dbg.value(metadata i32 %r.addr.0, i64 0, metadata !2280, metadata !1520), !dbg !2285
  %0 = sext i32 %l.addr.0 to i64, !dbg !2290
  br label %while.cond, !dbg !2290

while.cond:                                       ; preds = %while.cond, %do.body
  %indvars.iv = phi i64 [ %indvars.iv.next, %while.cond ], [ %0, %do.body ]
  tail call void @llvm.dbg.value(metadata i32 undef, i64 0, metadata !2279, metadata !1520), !dbg !2284
  %indvars.iv.next = add nsw i64 %indvars.iv, 1, !dbg !2292
  %arrayidx = getelementptr inbounds i32, i32* %array, i64 %indvars.iv.next, !dbg !2294
  %1 = load i32, i32* %arrayidx, align 4, !dbg !2294, !tbaa !1525
  %cmp = icmp sgt i32 %1, %pivot, !dbg !2295
  br i1 %cmp, label %while.cond, label %while.cond1, !dbg !2296, !llvm.loop !2297

while.cond1:                                      ; preds = %while.cond
  %2 = trunc i64 %indvars.iv.next to i32, !dbg !2299
  %tobool.old = icmp eq i32 %r.addr.0, 0, !dbg !2299
  br i1 %tobool.old, label %while.end6, label %land.rhs.preheader, !dbg !2300

land.rhs.preheader:                               ; preds = %while.cond1
  %3 = sext i32 %r.addr.0 to i64, !dbg !2285
  br label %land.rhs, !dbg !2285

land.rhs:                                         ; preds = %land.rhs.preheader, %land.rhs
  %indvars.iv44 = phi i64 [ %3, %land.rhs.preheader ], [ %indvars.iv.next45, %land.rhs ]
  tail call void @llvm.dbg.value(metadata i32 undef, i64 0, metadata !2280, metadata !1520), !dbg !2285
  %indvars.iv.next45 = add nsw i64 %indvars.iv44, -1, !dbg !2301
  %arrayidx3 = getelementptr inbounds i32, i32* %array, i64 %indvars.iv.next45, !dbg !2303
  %4 = load i32, i32* %arrayidx3, align 4, !dbg !2303, !tbaa !1525
  %cmp4 = icmp slt i32 %4, %pivot, !dbg !2304
  %5 = trunc i64 %indvars.iv.next45 to i32, !dbg !2299
  %tobool = icmp ne i32 %5, 0, !dbg !2299
  %or.cond = and i1 %cmp4, %tobool, !dbg !2305
  br i1 %or.cond, label %land.rhs, label %while.end6.loopexit, !dbg !2305, !llvm.loop !2307

while.end6.loopexit:                              ; preds = %land.rhs
  br label %while.end6, !dbg !2285

while.end6:                                       ; preds = %while.end6.loopexit, %while.cond1
  %r.addr.2 = phi i32 [ 0, %while.cond1 ], [ %5, %while.end6.loopexit ]
  tail call void @llvm.dbg.value(metadata i32 %r.addr.2, i64 0, metadata !2280, metadata !1520), !dbg !2285
  %idx.ext7 = sext i32 %r.addr.2 to i64, !dbg !2310
  %add.ptr8 = getelementptr inbounds i32, i32* %array, i64 %idx.ext7, !dbg !2310
  tail call void @llvm.dbg.value(metadata i32* %arrayidx, i64 0, metadata !2311, metadata !1520), !dbg !2320
  tail call void @llvm.dbg.value(metadata i32* %add.ptr8, i64 0, metadata !2318, metadata !1520), !dbg !2322
  %6 = load i32, i32* %add.ptr8, align 4, !dbg !2323, !tbaa !1525
  tail call void @llvm.dbg.value(metadata i32 %6, i64 0, metadata !2319, metadata !1520), !dbg !2324
  store i32 %1, i32* %add.ptr8, align 4, !dbg !2325, !tbaa !1525
  store i32 %6, i32* %arrayidx, align 4, !dbg !2326, !tbaa !1525
  %add.ptr10 = getelementptr inbounds i32, i32* %temp, i64 %indvars.iv.next, !dbg !2327
  %add.ptr12 = getelementptr inbounds i32, i32* %temp, i64 %idx.ext7, !dbg !2328
  tail call void @llvm.dbg.value(metadata i32* %add.ptr10, i64 0, metadata !2311, metadata !1520), !dbg !2329
  tail call void @llvm.dbg.value(metadata i32* %add.ptr12, i64 0, metadata !2318, metadata !1520), !dbg !2331
  %7 = load i32, i32* %add.ptr12, align 4, !dbg !2332, !tbaa !1525
  tail call void @llvm.dbg.value(metadata i32 %7, i64 0, metadata !2319, metadata !1520), !dbg !2333
  %8 = load i32, i32* %add.ptr10, align 4, !dbg !2334, !tbaa !1525
  store i32 %8, i32* %add.ptr12, align 4, !dbg !2335, !tbaa !1525
  store i32 %7, i32* %add.ptr10, align 4, !dbg !2336, !tbaa !1525
  %cmp13 = icmp slt i32 %2, %r.addr.2, !dbg !2337
  br i1 %cmp13, label %do.body, label %do.end, !dbg !2339, !llvm.loop !2288

do.end:                                           ; preds = %while.end6
  tail call void @llvm.dbg.value(metadata i32* %arrayidx, i64 0, metadata !2311, metadata !1520), !dbg !2340
  tail call void @llvm.dbg.value(metadata i32* %add.ptr8, i64 0, metadata !2318, metadata !1520), !dbg !2342
  %9 = load i32, i32* %add.ptr8, align 4, !dbg !2343, !tbaa !1525
  tail call void @llvm.dbg.value(metadata i32 %9, i64 0, metadata !2319, metadata !1520), !dbg !2344
  %10 = load i32, i32* %arrayidx, align 4, !dbg !2345, !tbaa !1525
  store i32 %10, i32* %add.ptr8, align 4, !dbg !2346, !tbaa !1525
  store i32 %9, i32* %arrayidx, align 4, !dbg !2347, !tbaa !1525
  tail call void @llvm.dbg.value(metadata i32* %add.ptr10, i64 0, metadata !2311, metadata !1520), !dbg !2348
  tail call void @llvm.dbg.value(metadata i32* %add.ptr12, i64 0, metadata !2318, metadata !1520), !dbg !2350
  %11 = load i32, i32* %add.ptr12, align 4, !dbg !2351, !tbaa !1525
  tail call void @llvm.dbg.value(metadata i32 %11, i64 0, metadata !2319, metadata !1520), !dbg !2352
  %12 = load i32, i32* %add.ptr10, align 4, !dbg !2353, !tbaa !1525
  store i32 %12, i32* %add.ptr12, align 4, !dbg !2354, !tbaa !1525
  store i32 %11, i32* %add.ptr10, align 4, !dbg !2355, !tbaa !1525
  ret i32 %2, !dbg !2356
}

; Function Attrs: nounwind uwtable
define void @_Z7inssortPiS_ii(i32* nocapture %array, i32* nocapture %temp, i32 %i, i32 %j) local_unnamed_addr #3 !dbg !2357 {
entry:
  tail call void @llvm.dbg.value(metadata i32* %array, i64 0, metadata !2361, metadata !1520), !dbg !2370
  tail call void @llvm.dbg.value(metadata i32* %temp, i64 0, metadata !2362, metadata !1520), !dbg !2371
  tail call void @llvm.dbg.value(metadata i32 %i, i64 0, metadata !2363, metadata !1520), !dbg !2372
  tail call void @llvm.dbg.value(metadata i32 %j, i64 0, metadata !2364, metadata !1520), !dbg !2373
  %cmp37 = icmp slt i32 %i, %j, !dbg !2374
  br i1 %cmp37, label %for.cond1.preheader.preheader, label %for.cond.cleanup, !dbg !2376

for.cond1.preheader.preheader:                    ; preds = %entry
  %0 = sext i32 %i to i64
  br label %for.cond1.preheader

for.cond.loopexit.loopexit:                       ; preds = %for.body7, %land.rhs
  br label %for.cond.loopexit, !dbg !2374

for.cond.loopexit:                                ; preds = %for.cond.loopexit.loopexit, %for.cond1.preheader
  %exitcond = icmp eq i32 %k.038, %j, !dbg !2374
  br i1 %exitcond, label %for.cond.cleanup.loopexit, label %for.cond1.preheader, !dbg !2376

for.cond1.preheader:                              ; preds = %for.cond.loopexit, %for.cond1.preheader.preheader
  %indvars.iv.in = phi i64 [ %0, %for.cond1.preheader.preheader ], [ %indvars.iv, %for.cond.loopexit ]
  %k.038.in = phi i32 [ %i, %for.cond1.preheader.preheader ], [ %k.038, %for.cond.loopexit ]
  %indvars.iv = add i64 %indvars.iv.in, 1
  %k.038 = add nsw i32 %k.038.in, 1
  tail call void @llvm.dbg.value(metadata i32 %k.038, i64 0, metadata !2367, metadata !1520), !dbg !2378
  %cmp234 = icmp slt i32 %k.038.in, %i, !dbg !2379
  br i1 %cmp234, label %for.cond.loopexit, label %land.rhs.preheader, !dbg !2382, !llvm.loop !2383

land.rhs.preheader:                               ; preds = %for.cond1.preheader
  br label %land.rhs, !dbg !2386

for.cond.cleanup.loopexit:                        ; preds = %for.cond.loopexit
  br label %for.cond.cleanup, !dbg !2388

for.cond.cleanup:                                 ; preds = %for.cond.cleanup.loopexit, %entry
  ret void, !dbg !2388

land.rhs:                                         ; preds = %land.rhs.preheader, %for.body7
  %indvars.iv39 = phi i64 [ %indvars.iv.next40, %for.body7 ], [ %indvars.iv, %land.rhs.preheader ]
  %arrayidx = getelementptr inbounds i32, i32* %array, i64 %indvars.iv39, !dbg !2386
  %1 = load i32, i32* %arrayidx, align 4, !dbg !2386, !tbaa !1525
  %indvars.iv.next40 = add nsw i64 %indvars.iv39, -1, !dbg !2389
  %arrayidx4 = getelementptr inbounds i32, i32* %array, i64 %indvars.iv.next40, !dbg !2390
  %2 = load i32, i32* %arrayidx4, align 4, !dbg !2390, !tbaa !1525
  %cmp5 = icmp sgt i32 %1, %2, !dbg !2391
  br i1 %cmp5, label %for.body7, label %for.cond.loopexit.loopexit, !dbg !2392, !llvm.loop !2383

for.body7:                                        ; preds = %land.rhs
  %add.ptr10 = getelementptr inbounds i32, i32* %arrayidx, i64 -1, !dbg !2394
  tail call void @llvm.dbg.value(metadata i32* %arrayidx, i64 0, metadata !2311, metadata !1520), !dbg !2396
  tail call void @llvm.dbg.value(metadata i32* %add.ptr10, i64 0, metadata !2318, metadata !1520), !dbg !2398
  tail call void @llvm.dbg.value(metadata i32 %2, i64 0, metadata !2319, metadata !1520), !dbg !2399
  store i32 %1, i32* %add.ptr10, align 4, !dbg !2400, !tbaa !1525
  store i32 %2, i32* %arrayidx, align 4, !dbg !2401, !tbaa !1525
  %add.ptr12 = getelementptr inbounds i32, i32* %temp, i64 %indvars.iv39, !dbg !2402
  %add.ptr15 = getelementptr inbounds i32, i32* %add.ptr12, i64 -1, !dbg !2403
  tail call void @llvm.dbg.value(metadata i32* %add.ptr12, i64 0, metadata !2311, metadata !1520), !dbg !2404
  tail call void @llvm.dbg.value(metadata i32* %add.ptr15, i64 0, metadata !2318, metadata !1520), !dbg !2406
  %3 = load i32, i32* %add.ptr15, align 4, !dbg !2407, !tbaa !1525
  tail call void @llvm.dbg.value(metadata i32 %3, i64 0, metadata !2319, metadata !1520), !dbg !2408
  %4 = load i32, i32* %add.ptr12, align 4, !dbg !2409, !tbaa !1525
  store i32 %4, i32* %add.ptr15, align 4, !dbg !2410, !tbaa !1525
  store i32 %3, i32* %add.ptr12, align 4, !dbg !2411, !tbaa !1525
  %cmp2 = icmp sgt i64 %indvars.iv.next40, %0, !dbg !2379
  br i1 %cmp2, label %land.rhs, label %for.cond.loopexit.loopexit, !dbg !2382, !llvm.loop !2412
}

; Function Attrs: nounwind uwtable
define void @_Z4sortPiS_ii(i32* %array, i32* %temp, i32 %i, i32 %j) local_unnamed_addr #3 !dbg !2415 {
entry:
  tail call void @llvm.dbg.value(metadata i32* %array, i64 0, metadata !2417, metadata !1520), !dbg !2425
  tail call void @llvm.dbg.value(metadata i32* %temp, i64 0, metadata !2418, metadata !1520), !dbg !2426
  tail call void @llvm.dbg.value(metadata i32 %i, i64 0, metadata !2419, metadata !1520), !dbg !2427
  tail call void @llvm.dbg.value(metadata i32 %j, i64 0, metadata !2420, metadata !1520), !dbg !2428
  tail call void @llvm.dbg.value(metadata i32 %i, i64 0, metadata !2419, metadata !1520), !dbg !2427
  %sub66 = sub nsw i32 %j, %i, !dbg !2429
  %cmp67 = icmp slt i32 %sub66, 9, !dbg !2430
  br i1 %cmp67, label %if.then, label %if.else.lr.ph, !dbg !2431

if.else.lr.ph:                                    ; preds = %entry
  %idx.ext1 = sext i32 %j to i64
  %add.ptr2 = getelementptr inbounds i32, i32* %array, i64 %idx.ext1
  %add.ptr6 = getelementptr inbounds i32, i32* %temp, i64 %idx.ext1
  br label %if.else, !dbg !2431

tailrecurse:                                      ; preds = %if.end
  tail call void @llvm.dbg.value(metadata i32* %array, i64 0, metadata !2417, metadata !1520), !dbg !2425
  tail call void @llvm.dbg.value(metadata i32* %temp, i64 0, metadata !2418, metadata !1520), !dbg !2426
  tail call void @llvm.dbg.value(metadata i32 %add, i64 0, metadata !2419, metadata !1520), !dbg !2427
  tail call void @llvm.dbg.value(metadata i32 %j, i64 0, metadata !2420, metadata !1520), !dbg !2428
  tail call void @llvm.dbg.value(metadata i32 %add, i64 0, metadata !2419, metadata !1520), !dbg !2427
  %sub = sub nsw i32 %j, %add, !dbg !2429
  %cmp = icmp slt i32 %sub, 9, !dbg !2430
  br i1 %cmp, label %if.then.loopexit, label %if.else, !dbg !2431

if.then.loopexit:                                 ; preds = %tailrecurse
  br label %if.then, !dbg !2432

if.then:                                          ; preds = %if.then.loopexit, %entry
  %i.tr.lcssa = phi i32 [ %i, %entry ], [ %add, %if.then.loopexit ]
  tail call void @llvm.dbg.value(metadata i32* %array, i64 0, metadata !2361, metadata !1520), !dbg !2432
  tail call void @llvm.dbg.value(metadata i32* %temp, i64 0, metadata !2362, metadata !1520), !dbg !2435
  tail call void @llvm.dbg.value(metadata i32 undef, i64 0, metadata !2363, metadata !1520), !dbg !2436
  tail call void @llvm.dbg.value(metadata i32 %j, i64 0, metadata !2364, metadata !1520), !dbg !2437
  %cmp37.i = icmp slt i32 %i.tr.lcssa, %j, !dbg !2438
  br i1 %cmp37.i, label %for.cond1.preheader.preheader.i, label %if.end25, !dbg !2439

for.cond1.preheader.preheader.i:                  ; preds = %if.then
  %0 = sext i32 %i.tr.lcssa to i64
  br label %for.cond1.preheader.i

for.cond.loopexit.i.loopexit:                     ; preds = %land.rhs.i, %for.body7.i
  br label %for.cond.loopexit.i, !dbg !2438

for.cond.loopexit.i:                              ; preds = %for.cond.loopexit.i.loopexit, %for.cond1.preheader.i
  %exitcond.i = icmp eq i32 %k.038.i, %j, !dbg !2438
  br i1 %exitcond.i, label %if.end25.loopexit, label %for.cond1.preheader.i, !dbg !2439

for.cond1.preheader.i:                            ; preds = %for.cond.loopexit.i, %for.cond1.preheader.preheader.i
  %indvars.iv.in.i = phi i64 [ %0, %for.cond1.preheader.preheader.i ], [ %indvars.iv.i, %for.cond.loopexit.i ]
  %k.038.in.i = phi i32 [ %i.tr.lcssa, %for.cond1.preheader.preheader.i ], [ %k.038.i, %for.cond.loopexit.i ]
  %indvars.iv.i = add nsw i64 %indvars.iv.in.i, 1
  %k.038.i = add nsw i32 %k.038.in.i, 1
  tail call void @llvm.dbg.value(metadata i32 %k.038.i, i64 0, metadata !2367, metadata !1520), !dbg !2440
  %cmp234.i = icmp slt i32 %k.038.in.i, %i.tr.lcssa, !dbg !2441
  br i1 %cmp234.i, label %for.cond.loopexit.i, label %land.rhs.i.preheader, !dbg !2442, !llvm.loop !2383

land.rhs.i.preheader:                             ; preds = %for.cond1.preheader.i
  br label %land.rhs.i, !dbg !2443

land.rhs.i:                                       ; preds = %land.rhs.i.preheader, %for.body7.i
  %indvars.iv39.i = phi i64 [ %indvars.iv.next40.i, %for.body7.i ], [ %indvars.iv.i, %land.rhs.i.preheader ]
  %arrayidx.i = getelementptr inbounds i32, i32* %array, i64 %indvars.iv39.i, !dbg !2443
  %1 = load i32, i32* %arrayidx.i, align 4, !dbg !2443, !tbaa !1525
  %indvars.iv.next40.i = add nsw i64 %indvars.iv39.i, -1, !dbg !2444
  %arrayidx4.i = getelementptr inbounds i32, i32* %array, i64 %indvars.iv.next40.i, !dbg !2445
  %2 = load i32, i32* %arrayidx4.i, align 4, !dbg !2445, !tbaa !1525
  %cmp5.i = icmp sgt i32 %1, %2, !dbg !2446
  br i1 %cmp5.i, label %for.body7.i, label %for.cond.loopexit.i.loopexit, !dbg !2447, !llvm.loop !2383

for.body7.i:                                      ; preds = %land.rhs.i
  %add.ptr10.i = getelementptr inbounds i32, i32* %arrayidx.i, i64 -1, !dbg !2448
  tail call void @llvm.dbg.value(metadata i32* %arrayidx.i, i64 0, metadata !2311, metadata !1520), !dbg !2449
  tail call void @llvm.dbg.value(metadata i32* %add.ptr10.i, i64 0, metadata !2318, metadata !1520), !dbg !2451
  tail call void @llvm.dbg.value(metadata i32 %2, i64 0, metadata !2319, metadata !1520), !dbg !2452
  store i32 %1, i32* %add.ptr10.i, align 4, !dbg !2453, !tbaa !1525
  store i32 %2, i32* %arrayidx.i, align 4, !dbg !2454, !tbaa !1525
  %add.ptr12.i = getelementptr inbounds i32, i32* %temp, i64 %indvars.iv39.i, !dbg !2455
  %add.ptr15.i = getelementptr inbounds i32, i32* %add.ptr12.i, i64 -1, !dbg !2456
  tail call void @llvm.dbg.value(metadata i32* %add.ptr12.i, i64 0, metadata !2311, metadata !1520), !dbg !2457
  tail call void @llvm.dbg.value(metadata i32* %add.ptr15.i, i64 0, metadata !2318, metadata !1520), !dbg !2459
  %3 = load i32, i32* %add.ptr15.i, align 4, !dbg !2460, !tbaa !1525
  tail call void @llvm.dbg.value(metadata i32 %3, i64 0, metadata !2319, metadata !1520), !dbg !2461
  %4 = load i32, i32* %add.ptr12.i, align 4, !dbg !2462, !tbaa !1525
  store i32 %4, i32* %add.ptr15.i, align 4, !dbg !2463, !tbaa !1525
  store i32 %3, i32* %add.ptr12.i, align 4, !dbg !2464, !tbaa !1525
  %cmp2.i = icmp sgt i64 %indvars.iv.next40.i, %0, !dbg !2441
  br i1 %cmp2.i, label %land.rhs.i, label %for.cond.loopexit.i.loopexit, !dbg !2442, !llvm.loop !2412

if.else:                                          ; preds = %if.else.lr.ph, %tailrecurse
  %i.tr68 = phi i32 [ %i, %if.else.lr.ph ], [ %add, %tailrecurse ]
  %add.i = add nsw i32 %i.tr68, %j, !dbg !2465
  %div.i = sdiv i32 %add.i, 2, !dbg !2467
  tail call void @llvm.dbg.value(metadata i32 %div.i, i64 0, metadata !2421, metadata !1520), !dbg !2468
  %idx.ext = sext i32 %div.i to i64, !dbg !2469
  %add.ptr = getelementptr inbounds i32, i32* %array, i64 %idx.ext, !dbg !2469
  tail call void @llvm.dbg.value(metadata i32 %j, i64 0, metadata !2420, metadata !1520), !dbg !2428
  tail call void @llvm.dbg.value(metadata i32* %add.ptr, i64 0, metadata !2311, metadata !1520), !dbg !2470
  tail call void @llvm.dbg.value(metadata i32* %add.ptr2, i64 0, metadata !2318, metadata !1520), !dbg !2472
  %5 = load i32, i32* %add.ptr2, align 4, !dbg !2473, !tbaa !1525
  tail call void @llvm.dbg.value(metadata i32 %5, i64 0, metadata !2319, metadata !1520), !dbg !2474
  %6 = load i32, i32* %add.ptr, align 4, !dbg !2475, !tbaa !1525
  store i32 %6, i32* %add.ptr2, align 4, !dbg !2476, !tbaa !1525
  store i32 %5, i32* %add.ptr, align 4, !dbg !2477, !tbaa !1525
  %add.ptr4 = getelementptr inbounds i32, i32* %temp, i64 %idx.ext, !dbg !2478
  tail call void @llvm.dbg.value(metadata i32 %j, i64 0, metadata !2420, metadata !1520), !dbg !2428
  tail call void @llvm.dbg.value(metadata i32* %add.ptr4, i64 0, metadata !2311, metadata !1520), !dbg !2479
  tail call void @llvm.dbg.value(metadata i32* %add.ptr6, i64 0, metadata !2318, metadata !1520), !dbg !2481
  %7 = load i32, i32* %add.ptr6, align 4, !dbg !2482, !tbaa !1525
  tail call void @llvm.dbg.value(metadata i32 %7, i64 0, metadata !2319, metadata !1520), !dbg !2483
  %8 = load i32, i32* %add.ptr4, align 4, !dbg !2484, !tbaa !1525
  store i32 %8, i32* %add.ptr6, align 4, !dbg !2485, !tbaa !1525
  store i32 %7, i32* %add.ptr4, align 4, !dbg !2486, !tbaa !1525
  tail call void @llvm.dbg.value(metadata i32 %i.tr68, i64 0, metadata !2419, metadata !1520), !dbg !2427
  %sub7 = add nsw i32 %i.tr68, -1, !dbg !2487
  tail call void @llvm.dbg.value(metadata i32 %j, i64 0, metadata !2420, metadata !1520), !dbg !2428
  %9 = load i32, i32* %add.ptr2, align 4, !dbg !2488, !tbaa !1525
  tail call void @llvm.dbg.value(metadata i32* %array, i64 0, metadata !2277, metadata !1520), !dbg !2489
  tail call void @llvm.dbg.value(metadata i32* %temp, i64 0, metadata !2278, metadata !1520), !dbg !2491
  tail call void @llvm.dbg.value(metadata i32 %sub7, i64 0, metadata !2279, metadata !1520), !dbg !2492
  tail call void @llvm.dbg.value(metadata i32 %j, i64 0, metadata !2280, metadata !1520), !dbg !2493
  tail call void @llvm.dbg.value(metadata i32 %9, i64 0, metadata !2281, metadata !1520), !dbg !2494
  br label %do.body.i, !dbg !2495, !llvm.loop !2288

do.body.i:                                        ; preds = %while.end6.i, %if.else
  %r.addr.0.i = phi i32 [ %j, %if.else ], [ %r.addr.2.i, %while.end6.i ]
  %l.addr.0.i = phi i32 [ %sub7, %if.else ], [ %12, %while.end6.i ]
  tail call void @llvm.dbg.value(metadata i32 %l.addr.0.i, i64 0, metadata !2279, metadata !1520), !dbg !2492
  tail call void @llvm.dbg.value(metadata i32 %r.addr.0.i, i64 0, metadata !2280, metadata !1520), !dbg !2493
  %10 = sext i32 %l.addr.0.i to i64, !dbg !2496
  br label %while.cond.i, !dbg !2496

while.cond.i:                                     ; preds = %while.cond.i, %do.body.i
  %indvars.iv.i49 = phi i64 [ %indvars.iv.next.i, %while.cond.i ], [ %10, %do.body.i ]
  tail call void @llvm.dbg.value(metadata i32 undef, i64 0, metadata !2279, metadata !1520), !dbg !2492
  %indvars.iv.next.i = add nsw i64 %indvars.iv.i49, 1, !dbg !2497
  %arrayidx.i50 = getelementptr inbounds i32, i32* %array, i64 %indvars.iv.next.i, !dbg !2498
  %11 = load i32, i32* %arrayidx.i50, align 4, !dbg !2498, !tbaa !1525
  %cmp.i = icmp sgt i32 %11, %9, !dbg !2499
  br i1 %cmp.i, label %while.cond.i, label %while.cond1.i, !dbg !2500, !llvm.loop !2297

while.cond1.i:                                    ; preds = %while.cond.i
  %12 = trunc i64 %indvars.iv.next.i to i32, !dbg !2501
  %tobool.old.i = icmp eq i32 %r.addr.0.i, 0, !dbg !2501
  br i1 %tobool.old.i, label %while.end6.i, label %land.rhs.preheader.i, !dbg !2502

land.rhs.preheader.i:                             ; preds = %while.cond1.i
  %13 = sext i32 %r.addr.0.i to i64, !dbg !2493
  br label %land.rhs.i51, !dbg !2493

land.rhs.i51:                                     ; preds = %land.rhs.i51, %land.rhs.preheader.i
  %indvars.iv44.i = phi i64 [ %13, %land.rhs.preheader.i ], [ %indvars.iv.next45.i, %land.rhs.i51 ]
  tail call void @llvm.dbg.value(metadata i32 undef, i64 0, metadata !2280, metadata !1520), !dbg !2493
  %indvars.iv.next45.i = add nsw i64 %indvars.iv44.i, -1, !dbg !2503
  %arrayidx3.i = getelementptr inbounds i32, i32* %array, i64 %indvars.iv.next45.i, !dbg !2504
  %14 = load i32, i32* %arrayidx3.i, align 4, !dbg !2504, !tbaa !1525
  %cmp4.i = icmp slt i32 %14, %9, !dbg !2505
  %15 = trunc i64 %indvars.iv.next45.i to i32, !dbg !2501
  %tobool.i = icmp ne i32 %15, 0, !dbg !2501
  %or.cond.i = and i1 %cmp4.i, %tobool.i, !dbg !2506
  br i1 %or.cond.i, label %land.rhs.i51, label %while.end6.i.loopexit, !dbg !2506, !llvm.loop !2307

while.end6.i.loopexit:                            ; preds = %land.rhs.i51
  br label %while.end6.i, !dbg !2493

while.end6.i:                                     ; preds = %while.end6.i.loopexit, %while.cond1.i
  %r.addr.2.i = phi i32 [ 0, %while.cond1.i ], [ %15, %while.end6.i.loopexit ]
  tail call void @llvm.dbg.value(metadata i32 %r.addr.2.i, i64 0, metadata !2280, metadata !1520), !dbg !2493
  %idx.ext7.i = sext i32 %r.addr.2.i to i64, !dbg !2507
  %add.ptr8.i = getelementptr inbounds i32, i32* %array, i64 %idx.ext7.i, !dbg !2507
  tail call void @llvm.dbg.value(metadata i32* %arrayidx.i50, i64 0, metadata !2311, metadata !1520), !dbg !2508
  tail call void @llvm.dbg.value(metadata i32* %add.ptr8.i, i64 0, metadata !2318, metadata !1520), !dbg !2510
  %16 = load i32, i32* %add.ptr8.i, align 4, !dbg !2511, !tbaa !1525
  tail call void @llvm.dbg.value(metadata i32 %16, i64 0, metadata !2319, metadata !1520), !dbg !2512
  store i32 %11, i32* %add.ptr8.i, align 4, !dbg !2513, !tbaa !1525
  store i32 %16, i32* %arrayidx.i50, align 4, !dbg !2514, !tbaa !1525
  %add.ptr10.i52 = getelementptr inbounds i32, i32* %temp, i64 %indvars.iv.next.i, !dbg !2515
  %add.ptr12.i53 = getelementptr inbounds i32, i32* %temp, i64 %idx.ext7.i, !dbg !2516
  tail call void @llvm.dbg.value(metadata i32* %add.ptr10.i52, i64 0, metadata !2311, metadata !1520), !dbg !2517
  tail call void @llvm.dbg.value(metadata i32* %add.ptr12.i53, i64 0, metadata !2318, metadata !1520), !dbg !2519
  %17 = load i32, i32* %add.ptr12.i53, align 4, !dbg !2520, !tbaa !1525
  tail call void @llvm.dbg.value(metadata i32 %17, i64 0, metadata !2319, metadata !1520), !dbg !2521
  %18 = load i32, i32* %add.ptr10.i52, align 4, !dbg !2522, !tbaa !1525
  store i32 %18, i32* %add.ptr12.i53, align 4, !dbg !2523, !tbaa !1525
  store i32 %17, i32* %add.ptr10.i52, align 4, !dbg !2524, !tbaa !1525
  %cmp13.i = icmp slt i32 %12, %r.addr.2.i, !dbg !2525
  br i1 %cmp13.i, label %do.body.i, label %_Z9partitionPiS_iii.exit, !dbg !2526, !llvm.loop !2288

_Z9partitionPiS_iii.exit:                         ; preds = %while.end6.i
  tail call void @llvm.dbg.value(metadata i32* %arrayidx.i50, i64 0, metadata !2311, metadata !1520), !dbg !2527
  tail call void @llvm.dbg.value(metadata i32* %add.ptr8.i, i64 0, metadata !2318, metadata !1520), !dbg !2529
  %19 = load i32, i32* %add.ptr8.i, align 4, !dbg !2530, !tbaa !1525
  tail call void @llvm.dbg.value(metadata i32 %19, i64 0, metadata !2319, metadata !1520), !dbg !2531
  %20 = load i32, i32* %arrayidx.i50, align 4, !dbg !2532, !tbaa !1525
  store i32 %20, i32* %add.ptr8.i, align 4, !dbg !2533, !tbaa !1525
  store i32 %19, i32* %arrayidx.i50, align 4, !dbg !2534, !tbaa !1525
  tail call void @llvm.dbg.value(metadata i32* %add.ptr10.i52, i64 0, metadata !2311, metadata !1520), !dbg !2535
  tail call void @llvm.dbg.value(metadata i32* %add.ptr12.i53, i64 0, metadata !2318, metadata !1520), !dbg !2537
  %21 = load i32, i32* %add.ptr12.i53, align 4, !dbg !2538, !tbaa !1525
  tail call void @llvm.dbg.value(metadata i32 %21, i64 0, metadata !2319, metadata !1520), !dbg !2539
  %22 = load i32, i32* %add.ptr10.i52, align 4, !dbg !2540, !tbaa !1525
  store i32 %22, i32* %add.ptr12.i53, align 4, !dbg !2541, !tbaa !1525
  store i32 %21, i32* %add.ptr10.i52, align 4, !dbg !2542, !tbaa !1525
  tail call void @llvm.dbg.value(metadata i32 %12, i64 0, metadata !2424, metadata !1520), !dbg !2543
  %sext = shl i64 %indvars.iv.next.i, 32, !dbg !2544
  %idx.ext9 = ashr exact i64 %sext, 32, !dbg !2544
  %add.ptr10 = getelementptr inbounds i32, i32* %array, i64 %idx.ext9, !dbg !2544
  tail call void @llvm.dbg.value(metadata i32 %j, i64 0, metadata !2420, metadata !1520), !dbg !2428
  tail call void @llvm.dbg.value(metadata i32* %add.ptr10, i64 0, metadata !2311, metadata !1520), !dbg !2545
  tail call void @llvm.dbg.value(metadata i32* %add.ptr2, i64 0, metadata !2318, metadata !1520), !dbg !2547
  %23 = load i32, i32* %add.ptr2, align 4, !dbg !2548, !tbaa !1525
  tail call void @llvm.dbg.value(metadata i32 %23, i64 0, metadata !2319, metadata !1520), !dbg !2549
  %24 = load i32, i32* %add.ptr10, align 4, !dbg !2550, !tbaa !1525
  store i32 %24, i32* %add.ptr2, align 4, !dbg !2551, !tbaa !1525
  store i32 %23, i32* %add.ptr10, align 4, !dbg !2552, !tbaa !1525
  %add.ptr14 = getelementptr inbounds i32, i32* %temp, i64 %idx.ext9, !dbg !2553
  tail call void @llvm.dbg.value(metadata i32 %j, i64 0, metadata !2420, metadata !1520), !dbg !2428
  tail call void @llvm.dbg.value(metadata i32* %add.ptr14, i64 0, metadata !2311, metadata !1520), !dbg !2554
  tail call void @llvm.dbg.value(metadata i32* %add.ptr6, i64 0, metadata !2318, metadata !1520), !dbg !2556
  %25 = load i32, i32* %add.ptr6, align 4, !dbg !2557, !tbaa !1525
  tail call void @llvm.dbg.value(metadata i32 %25, i64 0, metadata !2319, metadata !1520), !dbg !2558
  %26 = load i32, i32* %add.ptr14, align 4, !dbg !2559, !tbaa !1525
  store i32 %26, i32* %add.ptr6, align 4, !dbg !2560, !tbaa !1525
  store i32 %25, i32* %add.ptr14, align 4, !dbg !2561, !tbaa !1525
  tail call void @llvm.dbg.value(metadata i32 %i.tr68, i64 0, metadata !2419, metadata !1520), !dbg !2427
  %sub17 = sub nsw i32 %12, %i.tr68, !dbg !2562
  %cmp18 = icmp sgt i32 %sub17, 1, !dbg !2564
  br i1 %cmp18, label %if.then19, label %if.end, !dbg !2565

if.then19:                                        ; preds = %_Z9partitionPiS_iii.exit
  %sub20 = add nsw i32 %12, -1, !dbg !2566
  tail call void @_Z4sortPiS_ii(i32* nonnull %array, i32* nonnull %temp, i32 %i.tr68, i32 %sub20), !dbg !2568
  br label %if.end, !dbg !2568

if.end:                                           ; preds = %if.then19, %_Z9partitionPiS_iii.exit
  tail call void @llvm.dbg.value(metadata i32 %j, i64 0, metadata !2420, metadata !1520), !dbg !2428
  %sub21 = sub nsw i32 %j, %12, !dbg !2569
  %cmp22 = icmp sgt i32 %sub21, 1, !dbg !2571
  %add = add nsw i32 %12, 1, !dbg !2572
  br i1 %cmp22, label %tailrecurse, label %if.end25.loopexit81, !dbg !2574

if.end25.loopexit:                                ; preds = %for.cond.loopexit.i
  br label %if.end25, !dbg !2575

if.end25.loopexit81:                              ; preds = %if.end
  br label %if.end25, !dbg !2575

if.end25:                                         ; preds = %if.end25.loopexit81, %if.end25.loopexit, %if.then
  ret void, !dbg !2575
}

; Function Attrs: uwtable
define void @_ZN5stackC2Ei(%class.stack* nocapture %this, i32 %length) unnamed_addr #0 align 2 !dbg !2576 {
entry:
  tail call void @llvm.dbg.value(metadata %class.stack* %this, i64 0, metadata !2578, metadata !1520), !dbg !2580
  tail call void @llvm.dbg.value(metadata i32 %length, i64 0, metadata !2579, metadata !1520), !dbg !2581
  %top = getelementptr inbounds %class.stack, %class.stack* %this, i64 0, i32 0, !dbg !2582
  store i32 0, i32* %top, align 8, !dbg !2584, !tbaa !2585
  %0 = sext i32 %length to i64, !dbg !2587
  %1 = tail call { i64, i1 } @llvm.umul.with.overflow.i64(i64 %0, i64 4), !dbg !2587
  %2 = extractvalue { i64, i1 } %1, 1, !dbg !2587
  %3 = extractvalue { i64, i1 } %1, 0, !dbg !2587
  %4 = select i1 %2, i64 -1, i64 %3, !dbg !2587
  %call = tail call i8* @_Znam(i64 %4) #14, !dbg !2587
  %FS = getelementptr inbounds %class.stack, %class.stack* %this, i64 0, i32 1, !dbg !2588
  %5 = bitcast i32** %FS to i8**, !dbg !2589
  store i8* %call, i8** %5, align 8, !dbg !2589, !tbaa !2590
  %counts = getelementptr inbounds %class.stack, %class.stack* %this, i64 0, i32 2, !dbg !2591
  store i32* null, i32** %counts, align 8, !dbg !2592, !tbaa !2593
  ret void, !dbg !2594
}

; Function Attrs: nounwind uwtable
define void @_ZN5stackD2Ev(%class.stack* nocapture readonly %this) unnamed_addr #3 align 2 !dbg !2595 {
entry:
  tail call void @llvm.dbg.value(metadata %class.stack* %this, i64 0, metadata !2597, metadata !1520), !dbg !2598
  %FS = getelementptr inbounds %class.stack, %class.stack* %this, i64 0, i32 1, !dbg !2599
  %0 = load i32*, i32** %FS, align 8, !dbg !2599, !tbaa !2590
  %isnull = icmp eq i32* %0, null, !dbg !2601
  br i1 %isnull, label %delete.end, label %delete.notnull, !dbg !2601

delete.notnull:                                   ; preds = %entry
  %1 = bitcast i32* %0 to i8*, !dbg !2602
  tail call void @_ZdaPv(i8* %1) #15, !dbg !2602
  br label %delete.end, !dbg !2602

delete.end:                                       ; preds = %delete.notnull, %entry
  ret void, !dbg !2604
}

; Function Attrs: nounwind uwtable
define void @_ZN5stack6insertEP7FP_tree(%class.stack* nocapture %this, %class.FP_tree* nocapture readonly %fptree) local_unnamed_addr #3 align 2 !dbg !2605 {
entry:
  tail call void @llvm.dbg.value(metadata %class.stack* %this, i64 0, metadata !2607, metadata !1520), !dbg !2611
  tail call void @llvm.dbg.value(metadata %class.FP_tree* %fptree, i64 0, metadata !2608, metadata !1520), !dbg !2612
  %Root = getelementptr inbounds %class.FP_tree, %class.FP_tree* %fptree, i64 0, i32 4, !dbg !2613
  %0 = load %class.Fnode*, %class.Fnode** %Root, align 8, !dbg !2613, !tbaa !2614
  %node.0.in7 = getelementptr inbounds %class.Fnode, %class.Fnode* %0, i64 0, i32 0
  %node.08 = load %class.Fnode*, %class.Fnode** %node.0.in7, align 8, !tbaa !2615
  tail call void @llvm.dbg.value(metadata %class.Fnode* %node.08, i64 0, metadata !2609, metadata !1520), !dbg !2617
  %cmp9 = icmp eq %class.Fnode* %node.08, null, !dbg !2618
  br i1 %cmp9, label %for.cond.cleanup, label %for.body.lr.ph, !dbg !2621

for.body.lr.ph:                                   ; preds = %entry
  %FS = getelementptr inbounds %class.stack, %class.stack* %this, i64 0, i32 1
  %1 = load i32*, i32** %FS, align 8, !tbaa !2590
  %top = getelementptr inbounds %class.stack, %class.stack* %this, i64 0, i32 0
  %.pre = load i32, i32* %top, align 8, !tbaa !2585
  br label %for.body, !dbg !2621

for.cond.cleanup.loopexit:                        ; preds = %for.body
  br label %for.cond.cleanup, !dbg !2623

for.cond.cleanup:                                 ; preds = %for.cond.cleanup.loopexit, %entry
  ret void, !dbg !2623

for.body:                                         ; preds = %for.body.lr.ph, %for.body
  %2 = phi i32 [ %.pre, %for.body.lr.ph ], [ %inc, %for.body ], !dbg !2624
  %node.010 = phi %class.Fnode* [ %node.08, %for.body.lr.ph ], [ %node.0, %for.body ]
  %itemname = getelementptr inbounds %class.Fnode, %class.Fnode* %node.010, i64 0, i32 3, !dbg !2626
  %3 = load i32, i32* %itemname, align 4, !dbg !2626, !tbaa !2627
  %idxprom = sext i32 %2 to i64, !dbg !2628
  %arrayidx = getelementptr inbounds i32, i32* %1, i64 %idxprom, !dbg !2628
  store i32 %3, i32* %arrayidx, align 4, !dbg !2629, !tbaa !1525
  %4 = load i32, i32* %top, align 8, !dbg !2630, !tbaa !2585
  %inc = add nsw i32 %4, 1, !dbg !2630
  store i32 %inc, i32* %top, align 8, !dbg !2630, !tbaa !2585
  %node.0.in = getelementptr inbounds %class.Fnode, %class.Fnode* %node.010, i64 0, i32 0
  %node.0 = load %class.Fnode*, %class.Fnode** %node.0.in, align 8, !tbaa !2615
  tail call void @llvm.dbg.value(metadata %class.Fnode* %node.0, i64 0, metadata !2609, metadata !1520), !dbg !2617
  %cmp = icmp eq %class.Fnode* %node.0, null, !dbg !2618
  br i1 %cmp, label %for.cond.cleanup.loopexit, label %for.body, !dbg !2621, !llvm.loop !2631
}

; Function Attrs: uwtable
define void @_ZN7FP_tree4initEiii(%class.FP_tree* nocapture %this, i32 %old_itemno, i32 %new_itemno, i32 %thread) local_unnamed_addr #0 align 2 !dbg !2634 {
entry:
  tail call void @llvm.dbg.value(metadata %class.FP_tree* %this, i64 0, metadata !2636, metadata !1520), !dbg !2641
  tail call void @llvm.dbg.value(metadata i32 %old_itemno, i64 0, metadata !2637, metadata !1520), !dbg !2642
  tail call void @llvm.dbg.value(metadata i32 %new_itemno, i64 0, metadata !2638, metadata !1520), !dbg !2643
  tail call void @llvm.dbg.value(metadata i32 %thread, i64 0, metadata !2639, metadata !1520), !dbg !2644
  %0 = load %class.memory**, %class.memory*** @fp_buf, align 8, !dbg !2645, !tbaa !1536
  %idxprom = sext i32 %thread to i64, !dbg !2645
  %arrayidx = getelementptr inbounds %class.memory*, %class.memory** %0, i64 %idxprom, !dbg !2645
  %1 = load %class.memory*, %class.memory** %arrayidx, align 8, !dbg !2645, !tbaa !1536
  %call = tail call i8* @_ZN6memory6newbufEjj(%class.memory* %1, i32 1, i32 24), !dbg !2646
  %2 = bitcast i8* %call to %class.Fnode*, !dbg !2647
  %Root = getelementptr inbounds %class.FP_tree, %class.FP_tree* %this, i64 0, i32 4, !dbg !2648
  %3 = bitcast %class.Fnode** %Root to i8**, !dbg !2649
  store i8* %call, i8** %3, align 8, !dbg !2649, !tbaa !2614
  tail call void @_ZN5Fnode4initEii(%class.Fnode* %2, i32 -1, i32 0), !dbg !2650
  %cmp = icmp eq i32 %old_itemno, -1, !dbg !2651
  br i1 %cmp, label %if.end, label %if.then, !dbg !2653

if.then:                                          ; preds = %entry
  %4 = load %class.memory**, %class.memory*** @fp_buf, align 8, !dbg !2654, !tbaa !1536
  %arrayidx4 = getelementptr inbounds %class.memory*, %class.memory** %4, i64 %idxprom, !dbg !2654
  %5 = load %class.memory*, %class.memory** %arrayidx4, align 8, !dbg !2654, !tbaa !1536
  %mul = shl i32 %new_itemno, 3, !dbg !2656
  %call7 = tail call i8* @_ZN6memory6newbufEjj(%class.memory* %5, i32 1, i32 %mul), !dbg !2657
  %6 = bitcast i8* %call7 to i32*, !dbg !2658
  %count = getelementptr inbounds %class.FP_tree, %class.FP_tree* %this, i64 0, i32 5, !dbg !2659
  %7 = bitcast i32** %count to i8**, !dbg !2660
  store i8* %call7, i8** %7, align 8, !dbg !2660, !tbaa !2661
  %idx.ext = sext i32 %new_itemno to i64, !dbg !2662
  %add.ptr = getelementptr inbounds i32, i32* %6, i64 %idx.ext, !dbg !2662
  %table = getelementptr inbounds %class.FP_tree, %class.FP_tree* %this, i64 0, i32 3, !dbg !2663
  store i32* %add.ptr, i32** %table, align 8, !dbg !2664, !tbaa !2665
  tail call void @llvm.dbg.value(metadata i32 0, i64 0, metadata !2640, metadata !1520), !dbg !2666
  tail call void @llvm.dbg.value(metadata i32 0, i64 0, metadata !2640, metadata !1520), !dbg !2666
  %cmp929 = icmp sgt i32 %new_itemno, 0, !dbg !2667
  %8 = bitcast i8* %call7 to i32*, !dbg !2671
  br i1 %cmp929, label %for.body.preheader, label %for.end, !dbg !2671

for.body.preheader:                               ; preds = %if.then
  %wide.trip.count = zext i32 %new_itemno to i64
  %min.iters.check = icmp ult i32 %new_itemno, 8, !dbg !2673
  br i1 %min.iters.check, label %for.body.preheader38, label %min.iters.checked, !dbg !2673

min.iters.checked:                                ; preds = %for.body.preheader
  %9 = and i32 %new_itemno, 7, !dbg !2673
  %n.mod.vf = zext i32 %9 to i64, !dbg !2673
  %n.vec = sub nsw i64 %wide.trip.count, %n.mod.vf, !dbg !2673
  %cmp.zero = icmp eq i64 %n.vec, 0, !dbg !2673
  br i1 %cmp.zero, label %for.body.preheader38, label %vector.memcheck, !dbg !2673

vector.memcheck:                                  ; preds = %min.iters.checked
  %10 = shl nuw nsw i64 %wide.trip.count, 2, !dbg !2673
  %scevgep = getelementptr i8, i8* %call7, i64 %10, !dbg !2673
  %11 = shl nsw i64 %idx.ext, 2, !dbg !2673
  %scevgep31 = getelementptr i8, i8* %call7, i64 %11, !dbg !2673
  %12 = add nsw i64 %11, %10, !dbg !2673
  %scevgep32 = getelementptr i8, i8* %call7, i64 %12, !dbg !2673
  %bound0 = icmp ult i8* %call7, %scevgep32, !dbg !2673
  %bound1 = icmp ult i8* %scevgep31, %scevgep, !dbg !2673
  %memcheck.conflict = and i1 %bound0, %bound1, !dbg !2673
  br i1 %memcheck.conflict, label %for.body.preheader38, label %vector.body.preheader, !dbg !2673

vector.body.preheader:                            ; preds = %vector.memcheck
  br label %vector.body, !dbg !2673

vector.body:                                      ; preds = %vector.body.preheader, %vector.body
  %index = phi i64 [ %index.next, %vector.body ], [ 0, %vector.body.preheader ], !dbg !2675
  %vec.ind34 = phi <4 x i32> [ %vec.ind.next37, %vector.body ], [ <i32 0, i32 1, i32 2, i32 3>, %vector.body.preheader ]
  %13 = getelementptr inbounds i32, i32* %8, i64 %index, !dbg !2673
  %14 = bitcast i32* %13 to <4 x i32>*, !dbg !2677
  store <4 x i32> zeroinitializer, <4 x i32>* %14, align 4, !dbg !2677, !tbaa !1525, !alias.scope !2678, !noalias !2681
  %15 = getelementptr i32, i32* %13, i64 4, !dbg !2677
  %16 = bitcast i32* %15 to <4 x i32>*, !dbg !2677
  store <4 x i32> zeroinitializer, <4 x i32>* %16, align 4, !dbg !2677, !tbaa !1525, !alias.scope !2678, !noalias !2681
  %17 = getelementptr inbounds i32, i32* %add.ptr, i64 %index, !dbg !2683
  %step.add35 = add <4 x i32> %vec.ind34, <i32 4, i32 4, i32 4, i32 4>, !dbg !2675
  %18 = bitcast i32* %17 to <4 x i32>*, !dbg !2684
  store <4 x i32> %vec.ind34, <4 x i32>* %18, align 4, !dbg !2684, !tbaa !1525, !alias.scope !2681
  %19 = getelementptr i32, i32* %17, i64 4, !dbg !2684
  %20 = bitcast i32* %19 to <4 x i32>*, !dbg !2684
  store <4 x i32> %step.add35, <4 x i32>* %20, align 4, !dbg !2684, !tbaa !1525, !alias.scope !2681
  %index.next = add i64 %index, 8, !dbg !2675
  %vec.ind.next37 = add <4 x i32> %vec.ind34, <i32 8, i32 8, i32 8, i32 8>, !dbg !2675
  %21 = icmp eq i64 %index.next, %n.vec, !dbg !2675
  br i1 %21, label %middle.block, label %vector.body, !dbg !2675, !llvm.loop !2685

middle.block:                                     ; preds = %vector.body
  %cmp.n = icmp eq i32 %9, 0
  br i1 %cmp.n, label %for.end, label %for.body.preheader38, !dbg !2673

for.body.preheader38:                             ; preds = %middle.block, %vector.memcheck, %min.iters.checked, %for.body.preheader
  %indvars.iv.ph = phi i64 [ 0, %vector.memcheck ], [ 0, %min.iters.checked ], [ 0, %for.body.preheader ], [ %n.vec, %middle.block ]
  %22 = sub nsw i64 %wide.trip.count, %indvars.iv.ph, !dbg !2673
  %23 = add nsw i64 %wide.trip.count, -1, !dbg !2673
  %24 = sub nsw i64 %23, %indvars.iv.ph, !dbg !2673
  %xtraiter = and i64 %22, 7, !dbg !2673
  %lcmp.mod = icmp eq i64 %xtraiter, 0, !dbg !2673
  br i1 %lcmp.mod, label %for.body.prol.loopexit, label %for.body.prol.preheader, !dbg !2673

for.body.prol.preheader:                          ; preds = %for.body.preheader38
  br label %for.body.prol, !dbg !2673

for.body.prol:                                    ; preds = %for.body.prol, %for.body.prol.preheader
  %indvars.iv.prol = phi i64 [ %indvars.iv.next.prol, %for.body.prol ], [ %indvars.iv.ph, %for.body.prol.preheader ]
  %prol.iter = phi i64 [ %prol.iter.sub, %for.body.prol ], [ %xtraiter, %for.body.prol.preheader ]
  %arrayidx12.prol = getelementptr inbounds i32, i32* %8, i64 %indvars.iv.prol, !dbg !2673
  store i32 0, i32* %arrayidx12.prol, align 4, !dbg !2677, !tbaa !1525
  %arrayidx15.prol = getelementptr inbounds i32, i32* %add.ptr, i64 %indvars.iv.prol, !dbg !2683
  %25 = trunc i64 %indvars.iv.prol to i32, !dbg !2684
  store i32 %25, i32* %arrayidx15.prol, align 4, !dbg !2684, !tbaa !1525
  %indvars.iv.next.prol = add nuw nsw i64 %indvars.iv.prol, 1, !dbg !2675
  %prol.iter.sub = add i64 %prol.iter, -1, !dbg !2671
  %prol.iter.cmp = icmp eq i64 %prol.iter.sub, 0, !dbg !2671
  br i1 %prol.iter.cmp, label %for.body.prol.loopexit.unr-lcssa, label %for.body.prol, !dbg !2671, !llvm.loop !2688

for.body.prol.loopexit.unr-lcssa:                 ; preds = %for.body.prol
  br label %for.body.prol.loopexit, !dbg !2673

for.body.prol.loopexit:                           ; preds = %for.body.preheader38, %for.body.prol.loopexit.unr-lcssa
  %indvars.iv.unr = phi i64 [ %indvars.iv.ph, %for.body.preheader38 ], [ %indvars.iv.next.prol, %for.body.prol.loopexit.unr-lcssa ]
  %26 = icmp ult i64 %24, 7, !dbg !2673
  br i1 %26, label %for.end.loopexit, label %for.body.preheader38.new, !dbg !2673

for.body.preheader38.new:                         ; preds = %for.body.prol.loopexit
  br label %for.body, !dbg !2673

for.body:                                         ; preds = %for.body, %for.body.preheader38.new
  %indvars.iv = phi i64 [ %indvars.iv.unr, %for.body.preheader38.new ], [ %indvars.iv.next.7, %for.body ]
  %arrayidx12 = getelementptr inbounds i32, i32* %8, i64 %indvars.iv, !dbg !2673
  store i32 0, i32* %arrayidx12, align 4, !dbg !2677, !tbaa !1525
  %arrayidx15 = getelementptr inbounds i32, i32* %add.ptr, i64 %indvars.iv, !dbg !2683
  %27 = trunc i64 %indvars.iv to i32, !dbg !2684
  store i32 %27, i32* %arrayidx15, align 4, !dbg !2684, !tbaa !1525
  %indvars.iv.next = add nuw nsw i64 %indvars.iv, 1, !dbg !2675
  %arrayidx12.1 = getelementptr inbounds i32, i32* %8, i64 %indvars.iv.next, !dbg !2673
  store i32 0, i32* %arrayidx12.1, align 4, !dbg !2677, !tbaa !1525
  %arrayidx15.1 = getelementptr inbounds i32, i32* %add.ptr, i64 %indvars.iv.next, !dbg !2683
  %28 = trunc i64 %indvars.iv.next to i32, !dbg !2684
  store i32 %28, i32* %arrayidx15.1, align 4, !dbg !2684, !tbaa !1525
  %indvars.iv.next.1 = add nsw i64 %indvars.iv, 2, !dbg !2675
  %arrayidx12.2 = getelementptr inbounds i32, i32* %8, i64 %indvars.iv.next.1, !dbg !2673
  store i32 0, i32* %arrayidx12.2, align 4, !dbg !2677, !tbaa !1525
  %arrayidx15.2 = getelementptr inbounds i32, i32* %add.ptr, i64 %indvars.iv.next.1, !dbg !2683
  %29 = trunc i64 %indvars.iv.next.1 to i32, !dbg !2684
  store i32 %29, i32* %arrayidx15.2, align 4, !dbg !2684, !tbaa !1525
  %indvars.iv.next.2 = add nsw i64 %indvars.iv, 3, !dbg !2675
  %arrayidx12.3 = getelementptr inbounds i32, i32* %8, i64 %indvars.iv.next.2, !dbg !2673
  store i32 0, i32* %arrayidx12.3, align 4, !dbg !2677, !tbaa !1525
  %arrayidx15.3 = getelementptr inbounds i32, i32* %add.ptr, i64 %indvars.iv.next.2, !dbg !2683
  %30 = trunc i64 %indvars.iv.next.2 to i32, !dbg !2684
  store i32 %30, i32* %arrayidx15.3, align 4, !dbg !2684, !tbaa !1525
  %indvars.iv.next.3 = add nsw i64 %indvars.iv, 4, !dbg !2675
  %arrayidx12.4 = getelementptr inbounds i32, i32* %8, i64 %indvars.iv.next.3, !dbg !2673
  store i32 0, i32* %arrayidx12.4, align 4, !dbg !2677, !tbaa !1525
  %arrayidx15.4 = getelementptr inbounds i32, i32* %add.ptr, i64 %indvars.iv.next.3, !dbg !2683
  %31 = trunc i64 %indvars.iv.next.3 to i32, !dbg !2684
  store i32 %31, i32* %arrayidx15.4, align 4, !dbg !2684, !tbaa !1525
  %indvars.iv.next.4 = add nsw i64 %indvars.iv, 5, !dbg !2675
  %arrayidx12.5 = getelementptr inbounds i32, i32* %8, i64 %indvars.iv.next.4, !dbg !2673
  store i32 0, i32* %arrayidx12.5, align 4, !dbg !2677, !tbaa !1525
  %arrayidx15.5 = getelementptr inbounds i32, i32* %add.ptr, i64 %indvars.iv.next.4, !dbg !2683
  %32 = trunc i64 %indvars.iv.next.4 to i32, !dbg !2684
  store i32 %32, i32* %arrayidx15.5, align 4, !dbg !2684, !tbaa !1525
  %indvars.iv.next.5 = add nsw i64 %indvars.iv, 6, !dbg !2675
  %arrayidx12.6 = getelementptr inbounds i32, i32* %8, i64 %indvars.iv.next.5, !dbg !2673
  store i32 0, i32* %arrayidx12.6, align 4, !dbg !2677, !tbaa !1525
  %arrayidx15.6 = getelementptr inbounds i32, i32* %add.ptr, i64 %indvars.iv.next.5, !dbg !2683
  %33 = trunc i64 %indvars.iv.next.5 to i32, !dbg !2684
  store i32 %33, i32* %arrayidx15.6, align 4, !dbg !2684, !tbaa !1525
  %indvars.iv.next.6 = add nsw i64 %indvars.iv, 7, !dbg !2675
  %arrayidx12.7 = getelementptr inbounds i32, i32* %8, i64 %indvars.iv.next.6, !dbg !2673
  store i32 0, i32* %arrayidx12.7, align 4, !dbg !2677, !tbaa !1525
  %arrayidx15.7 = getelementptr inbounds i32, i32* %add.ptr, i64 %indvars.iv.next.6, !dbg !2683
  %34 = trunc i64 %indvars.iv.next.6 to i32, !dbg !2684
  store i32 %34, i32* %arrayidx15.7, align 4, !dbg !2684, !tbaa !1525
  %indvars.iv.next.7 = add nsw i64 %indvars.iv, 8, !dbg !2675
  %exitcond.7 = icmp eq i64 %indvars.iv.next.7, %wide.trip.count, !dbg !2667
  br i1 %exitcond.7, label %for.end.loopexit.unr-lcssa, label %for.body, !dbg !2671, !llvm.loop !2689

for.end.loopexit.unr-lcssa:                       ; preds = %for.body
  br label %for.end.loopexit, !dbg !2690

for.end.loopexit:                                 ; preds = %for.body.prol.loopexit, %for.end.loopexit.unr-lcssa
  br label %for.end, !dbg !2690

for.end:                                          ; preds = %for.end.loopexit, %middle.block, %if.then
  %35 = load i32**, i32*** @new_data_num, align 8, !dbg !2690, !tbaa !1536
  %arrayidx17 = getelementptr inbounds i32*, i32** %35, i64 %idxprom, !dbg !2690
  %36 = load i32*, i32** %arrayidx17, align 8, !dbg !2690, !tbaa !1536
  store i32 0, i32* %36, align 4, !dbg !2691, !tbaa !1525
  br label %if.end, !dbg !2692

if.end:                                           ; preds = %entry, %for.end
  %itemno = getelementptr inbounds %class.FP_tree, %class.FP_tree* %this, i64 0, i32 0, !dbg !2693
  store i32 %new_itemno, i32* %itemno, align 8, !dbg !2694, !tbaa !1685
  ret void, !dbg !2695
}

; Function Attrs: uwtable
define void @_ZN7FP_tree15database_tilingEi(%class.FP_tree* nocapture readonly %this, i32 %workingthread) local_unnamed_addr #0 align 2 !dbg !2696 {
entry:
  tail call void @llvm.dbg.value(metadata %class.FP_tree* %this, i64 0, metadata !2698, metadata !1520), !dbg !2760
  tail call void @llvm.dbg.value(metadata i32 %workingthread, i64 0, metadata !2699, metadata !1520), !dbg !2761
  %0 = sext i32 %workingthread to i64, !dbg !2762
  %1 = tail call { i64, i1 } @llvm.umul.with.overflow.i64(i64 %0, i64 4), !dbg !2762
  %2 = extractvalue { i64, i1 } %1, 1, !dbg !2762
  %3 = extractvalue { i64, i1 } %1, 0, !dbg !2762
  %4 = select i1 %2, i64 -1, i64 %3, !dbg !2762
  %call = tail call i8* @_Znam(i64 %4) #14, !dbg !2762
  %5 = bitcast i8* %call to i32*, !dbg !2762
  tail call void @llvm.dbg.value(metadata i32* %5, i64 0, metadata !2701, metadata !1520), !dbg !2763
  %num_hot_item = getelementptr inbounds %class.FP_tree, %class.FP_tree* %this, i64 0, i32 15, !dbg !2764
  %6 = load i32, i32* %num_hot_item, align 8, !dbg !2764, !tbaa !2765
  tail call void @llvm.dbg.value(metadata i32 %6, i64 0, metadata !2702, metadata !1520), !dbg !2766
  %itemno = getelementptr inbounds %class.FP_tree, %class.FP_tree* %this, i64 0, i32 0, !dbg !2767
  %7 = load i32, i32* %itemno, align 8, !dbg !2767, !tbaa !1685
  tail call void @llvm.dbg.value(metadata i32 %7, i64 0, metadata !2703, metadata !1520), !dbg !2768
  tail call void @llvm.dbg.value(metadata i32 0, i64 0, metadata !2700, metadata !1520), !dbg !2769
  tail call void @llvm.dbg.value(metadata i32 0, i64 0, metadata !2700, metadata !1520), !dbg !2769
  %cmp800 = icmp sgt i32 %workingthread, 0, !dbg !2770
  br i1 %cmp800, label %for.body.lr.ph, label %for.cond22.preheader, !dbg !2772

for.body.lr.ph:                                   ; preds = %entry
  %8 = load i32**, i32*** @ntypearray, align 8, !tbaa !1536
  %cmp10798 = icmp slt i32 %6, %7
  %9 = load i32**, i32*** @origin, align 8
  %10 = sext i32 %6 to i64, !dbg !2772
  %wide.trip.count880 = sext i32 %7 to i64
  %wide.trip.count884 = zext i32 %workingthread to i64
  %11 = sub nsw i64 %wide.trip.count880, %10, !dbg !2772
  %12 = add nsw i64 %11, -8, !dbg !2772
  %13 = lshr i64 %12, 3, !dbg !2772
  %14 = add nuw nsw i64 %13, 1, !dbg !2772
  %min.iters.check = icmp ult i64 %11, 8
  %n.vec = and i64 %11, -8
  %cmp.zero = icmp eq i64 %n.vec, 0
  %ind.end = add nsw i64 %10, %n.vec
  %xtraiter1033 = and i64 %14, 3
  %lcmp.mod1034 = icmp eq i64 %xtraiter1033, 0
  %15 = icmp ult i64 %12, 24
  %cmp.n = icmp eq i64 %11, %n.vec
  br label %for.body, !dbg !2772

for.cond22.preheader.loopexit:                    ; preds = %for.end18
  br label %for.cond22.preheader, !dbg !2769

for.cond22.preheader:                             ; preds = %for.cond22.preheader.loopexit, %entry
  tail call void @llvm.dbg.value(metadata i32 0, i64 0, metadata !2700, metadata !1520), !dbg !2769
  %16 = load %class.MapFile*, %class.MapFile** @mapfile, align 8, !dbg !2774, !tbaa !1536
  %tablesize794 = getelementptr inbounds %class.MapFile, %class.MapFile* %16, i64 0, i32 7, !dbg !2776
  %17 = load i32, i32* %tablesize794, align 8, !dbg !2776, !tbaa !1862
  %cmp23795 = icmp sgt i32 %17, 0, !dbg !2777
  br i1 %cmp23795, label %for.body24.preheader, label %for.cond175.preheader, !dbg !2778

for.body24.preheader:                             ; preds = %for.cond22.preheader
  %.pre = load i32, i32* %5, align 4, !tbaa !1525
  br label %for.body24, !dbg !2780

for.body:                                         ; preds = %for.end18, %for.body.lr.ph
  %indvars.iv882 = phi i64 [ 0, %for.body.lr.ph ], [ %indvars.iv.next883, %for.end18 ]
  %arrayidx = getelementptr inbounds i32, i32* %5, i64 %indvars.iv882, !dbg !2781
  store i32 0, i32* %arrayidx, align 4, !dbg !2782, !tbaa !1525
  tail call void @llvm.dbg.value(metadata i32 0, i64 0, metadata !2704, metadata !1520), !dbg !2783
  tail call void @llvm.dbg.value(metadata i32 0, i64 0, metadata !2704, metadata !1520), !dbg !2783
  %arrayidx6 = getelementptr inbounds i32*, i32** %8, i64 %indvars.iv882
  %18 = bitcast i32** %arrayidx6 to i8**
  %19 = load i8*, i8** %18, align 8, !tbaa !1536
  call void @llvm.memset.p0i8.i64(i8* %19, i8 0, i64 262144, i32 4, i1 false), !dbg !2784
  tail call void @llvm.dbg.value(metadata i32 %6, i64 0, metadata !2704, metadata !1520), !dbg !2783
  br i1 %cmp10798, label %for.body11.lr.ph, label %for.end18, !dbg !2787

for.body11.lr.ph:                                 ; preds = %for.body
  %arrayidx13 = getelementptr inbounds i32*, i32** %9, i64 %indvars.iv882
  %20 = load i32*, i32** %arrayidx13, align 8, !tbaa !1536
  br i1 %min.iters.check, label %for.body11.preheader, label %min.iters.checked, !dbg !2787

min.iters.checked:                                ; preds = %for.body11.lr.ph
  br i1 %cmp.zero, label %for.body11.preheader, label %vector.body.preheader, !dbg !2787

vector.body.preheader:                            ; preds = %min.iters.checked
  br i1 %lcmp.mod1034, label %vector.body.prol.loopexit, label %vector.body.prol.preheader

vector.body.prol.preheader:                       ; preds = %vector.body.preheader
  br label %vector.body.prol

vector.body.prol:                                 ; preds = %vector.body.prol, %vector.body.prol.preheader
  %index.prol = phi i64 [ %index.next.prol, %vector.body.prol ], [ 0, %vector.body.prol.preheader ]
  %prol.iter1035 = phi i64 [ %prol.iter1035.sub, %vector.body.prol ], [ %xtraiter1033, %vector.body.prol.preheader ]
  %21 = add i64 %10, %index.prol
  %22 = getelementptr inbounds i32, i32* %20, i64 %21, !dbg !2790
  %23 = bitcast i32* %22 to <4 x i32>*, !dbg !2792
  store <4 x i32> <i32 1, i32 1, i32 1, i32 1>, <4 x i32>* %23, align 4, !dbg !2792, !tbaa !1525
  %24 = getelementptr i32, i32* %22, i64 4, !dbg !2792
  %25 = bitcast i32* %24 to <4 x i32>*, !dbg !2792
  store <4 x i32> <i32 1, i32 1, i32 1, i32 1>, <4 x i32>* %25, align 4, !dbg !2792, !tbaa !1525
  %index.next.prol = add i64 %index.prol, 8
  %prol.iter1035.sub = add i64 %prol.iter1035, -1
  %prol.iter1035.cmp = icmp eq i64 %prol.iter1035.sub, 0
  br i1 %prol.iter1035.cmp, label %vector.body.prol.loopexit.unr-lcssa, label %vector.body.prol, !llvm.loop !2793

vector.body.prol.loopexit.unr-lcssa:              ; preds = %vector.body.prol
  br label %vector.body.prol.loopexit

vector.body.prol.loopexit:                        ; preds = %vector.body.preheader, %vector.body.prol.loopexit.unr-lcssa
  %index.unr = phi i64 [ 0, %vector.body.preheader ], [ %index.next.prol, %vector.body.prol.loopexit.unr-lcssa ]
  br i1 %15, label %middle.block, label %vector.body.preheader.new

vector.body.preheader.new:                        ; preds = %vector.body.prol.loopexit
  br label %vector.body

vector.body:                                      ; preds = %vector.body, %vector.body.preheader.new
  %index = phi i64 [ %index.unr, %vector.body.preheader.new ], [ %index.next.3, %vector.body ]
  %26 = add i64 %10, %index
  %27 = getelementptr inbounds i32, i32* %20, i64 %26, !dbg !2790
  %28 = bitcast i32* %27 to <4 x i32>*, !dbg !2792
  store <4 x i32> <i32 1, i32 1, i32 1, i32 1>, <4 x i32>* %28, align 4, !dbg !2792, !tbaa !1525
  %29 = getelementptr i32, i32* %27, i64 4, !dbg !2792
  %30 = bitcast i32* %29 to <4 x i32>*, !dbg !2792
  store <4 x i32> <i32 1, i32 1, i32 1, i32 1>, <4 x i32>* %30, align 4, !dbg !2792, !tbaa !1525
  %index.next = add i64 %index, 8
  %31 = add i64 %10, %index.next
  %32 = getelementptr inbounds i32, i32* %20, i64 %31, !dbg !2790
  %33 = bitcast i32* %32 to <4 x i32>*, !dbg !2792
  store <4 x i32> <i32 1, i32 1, i32 1, i32 1>, <4 x i32>* %33, align 4, !dbg !2792, !tbaa !1525
  %34 = getelementptr i32, i32* %32, i64 4, !dbg !2792
  %35 = bitcast i32* %34 to <4 x i32>*, !dbg !2792
  store <4 x i32> <i32 1, i32 1, i32 1, i32 1>, <4 x i32>* %35, align 4, !dbg !2792, !tbaa !1525
  %index.next.1 = add i64 %index, 16
  %36 = add i64 %10, %index.next.1
  %37 = getelementptr inbounds i32, i32* %20, i64 %36, !dbg !2790
  %38 = bitcast i32* %37 to <4 x i32>*, !dbg !2792
  store <4 x i32> <i32 1, i32 1, i32 1, i32 1>, <4 x i32>* %38, align 4, !dbg !2792, !tbaa !1525
  %39 = getelementptr i32, i32* %37, i64 4, !dbg !2792
  %40 = bitcast i32* %39 to <4 x i32>*, !dbg !2792
  store <4 x i32> <i32 1, i32 1, i32 1, i32 1>, <4 x i32>* %40, align 4, !dbg !2792, !tbaa !1525
  %index.next.2 = add i64 %index, 24
  %41 = add i64 %10, %index.next.2
  %42 = getelementptr inbounds i32, i32* %20, i64 %41, !dbg !2790
  %43 = bitcast i32* %42 to <4 x i32>*, !dbg !2792
  store <4 x i32> <i32 1, i32 1, i32 1, i32 1>, <4 x i32>* %43, align 4, !dbg !2792, !tbaa !1525
  %44 = getelementptr i32, i32* %42, i64 4, !dbg !2792
  %45 = bitcast i32* %44 to <4 x i32>*, !dbg !2792
  store <4 x i32> <i32 1, i32 1, i32 1, i32 1>, <4 x i32>* %45, align 4, !dbg !2792, !tbaa !1525
  %index.next.3 = add i64 %index, 32
  %46 = icmp eq i64 %index.next.3, %n.vec
  br i1 %46, label %middle.block.unr-lcssa, label %vector.body, !llvm.loop !2794

middle.block.unr-lcssa:                           ; preds = %vector.body
  br label %middle.block

middle.block:                                     ; preds = %vector.body.prol.loopexit, %middle.block.unr-lcssa
  br i1 %cmp.n, label %for.end18, label %for.body11.preheader, !dbg !2787

for.body11.preheader:                             ; preds = %middle.block, %min.iters.checked, %for.body11.lr.ph
  %indvars.iv878.ph = phi i64 [ %10, %min.iters.checked ], [ %10, %for.body11.lr.ph ], [ %ind.end, %middle.block ]
  br label %for.body11, !dbg !2790

for.body11:                                       ; preds = %for.body11.preheader, %for.body11
  %indvars.iv878 = phi i64 [ %indvars.iv.next879, %for.body11 ], [ %indvars.iv878.ph, %for.body11.preheader ]
  %arrayidx15 = getelementptr inbounds i32, i32* %20, i64 %indvars.iv878, !dbg !2790
  store i32 1, i32* %arrayidx15, align 4, !dbg !2792, !tbaa !1525
  %indvars.iv.next879 = add nsw i64 %indvars.iv878, 1, !dbg !2797
  %exitcond881 = icmp eq i64 %indvars.iv.next879, %wide.trip.count880, !dbg !2799
  br i1 %exitcond881, label %for.end18.loopexit, label %for.body11, !dbg !2787, !llvm.loop !2801

for.end18.loopexit:                               ; preds = %for.body11
  br label %for.end18, !dbg !2803

for.end18:                                        ; preds = %for.end18.loopexit, %middle.block, %for.body
  %indvars.iv.next883 = add nuw nsw i64 %indvars.iv882, 1, !dbg !2803
  %exitcond885 = icmp eq i64 %indvars.iv.next883, %wide.trip.count884, !dbg !2770
  br i1 %exitcond885, label %for.cond22.preheader.loopexit, label %for.body, !dbg !2772, !llvm.loop !2805

for.cond175.preheader.loopexit:                   ; preds = %if.end165
  br label %for.cond175.preheader, !dbg !2769

for.cond175.preheader:                            ; preds = %for.cond175.preheader.loopexit, %for.cond22.preheader
  tail call void @llvm.dbg.value(metadata i32 0, i64 0, metadata !2700, metadata !1520), !dbg !2769
  br i1 %cmp800, label %for.body177.lr.ph, label %for.end193, !dbg !2808

for.body177.lr.ph:                                ; preds = %for.cond175.preheader
  %cmp182727 = icmp slt i32 %6, %7
  %47 = load i32**, i32*** @origin, align 8
  %48 = sext i32 %6 to i64, !dbg !2808
  %49 = add i32 %7, -1, !dbg !2808
  %50 = sub i32 %49, %6, !dbg !2808
  %51 = zext i32 %50 to i64, !dbg !2808
  %52 = shl nuw nsw i64 %51, 2, !dbg !2808
  %53 = add nuw nsw i64 %52, 4, !dbg !2808
  %wide.trip.count865 = zext i32 %workingthread to i64
  %54 = add nsw i64 %wide.trip.count865, -1, !dbg !2808
  %xtraiter1030 = and i64 %wide.trip.count865, 3, !dbg !2808
  %lcmp.mod1031 = icmp eq i64 %xtraiter1030, 0, !dbg !2808
  br i1 %lcmp.mod1031, label %for.body177.prol.loopexit, label %for.body177.prol.preheader, !dbg !2808

for.body177.prol.preheader:                       ; preds = %for.body177.lr.ph
  br label %for.body177.prol, !dbg !2808

for.body177.prol:                                 ; preds = %for.end190.prol, %for.body177.prol.preheader
  %indvars.iv863.prol = phi i64 [ 0, %for.body177.prol.preheader ], [ %indvars.iv.next864.prol, %for.end190.prol ]
  %prol.iter1032 = phi i64 [ %xtraiter1030, %for.body177.prol.preheader ], [ %prol.iter1032.sub, %for.end190.prol ]
  %arrayidx179.prol = getelementptr inbounds i32, i32* %5, i64 %indvars.iv863.prol, !dbg !2810
  store i32 0, i32* %arrayidx179.prol, align 4, !dbg !2811, !tbaa !1525
  tail call void @llvm.dbg.value(metadata i32 %6, i64 0, metadata !2728, metadata !1520), !dbg !2812
  tail call void @llvm.dbg.value(metadata i32 %6, i64 0, metadata !2728, metadata !1520), !dbg !2812
  br i1 %cmp182727, label %for.body183.lr.ph.prol, label %for.end190.prol, !dbg !2813

for.body183.lr.ph.prol:                           ; preds = %for.body177.prol
  %arrayidx185.prol = getelementptr inbounds i32*, i32** %47, i64 %indvars.iv863.prol
  %55 = load i32*, i32** %arrayidx185.prol, align 8, !tbaa !1536
  %scevgep.prol = getelementptr i32, i32* %55, i64 %48, !dbg !2813
  %scevgep862.prol = bitcast i32* %scevgep.prol to i8*
  call void @llvm.memset.p0i8.i64(i8* %scevgep862.prol, i8 0, i64 %53, i32 4, i1 false), !dbg !2816
  br label %for.end190.prol, !dbg !2818

for.end190.prol:                                  ; preds = %for.body183.lr.ph.prol, %for.body177.prol
  %indvars.iv.next864.prol = add nuw nsw i64 %indvars.iv863.prol, 1, !dbg !2818
  %prol.iter1032.sub = add i64 %prol.iter1032, -1, !dbg !2808
  %prol.iter1032.cmp = icmp eq i64 %prol.iter1032.sub, 0, !dbg !2808
  br i1 %prol.iter1032.cmp, label %for.body177.prol.loopexit.unr-lcssa, label %for.body177.prol, !dbg !2808, !llvm.loop !2820

for.body177.prol.loopexit.unr-lcssa:              ; preds = %for.end190.prol
  br label %for.body177.prol.loopexit, !dbg !2808

for.body177.prol.loopexit:                        ; preds = %for.body177.lr.ph, %for.body177.prol.loopexit.unr-lcssa
  %indvars.iv863.unr = phi i64 [ 0, %for.body177.lr.ph ], [ %indvars.iv.next864.prol, %for.body177.prol.loopexit.unr-lcssa ]
  %56 = icmp ult i64 %54, 3, !dbg !2808
  br i1 %56, label %for.end193.loopexit, label %for.body177.lr.ph.new, !dbg !2808

for.body177.lr.ph.new:                            ; preds = %for.body177.prol.loopexit
  br label %for.body177, !dbg !2808

for.body24:                                       ; preds = %for.body24.preheader, %if.end165
  %57 = phi i32 [ %.pre, %for.body24.preheader ], [ %currentpos.9, %if.end165 ], !dbg !2821
  %indvars.iv873 = phi i64 [ 0, %for.body24.preheader ], [ %indvars.iv.next874, %if.end165 ]
  %58 = phi %class.MapFile* [ %16, %for.body24.preheader ], [ %117, %if.end165 ]
  tail call void @llvm.dbg.value(metadata i32 0, i64 0, metadata !2719, metadata !1520), !dbg !2780
  %59 = load i32**, i32*** @origin, align 8, !dbg !2822, !tbaa !1536
  %60 = load i32*, i32** %59, align 8, !dbg !2822, !tbaa !1536
  tail call void @llvm.dbg.value(metadata i32* %60, i64 0, metadata !2720, metadata !1520), !dbg !2823
  %61 = load i32**, i32*** @ntypearray, align 8, !dbg !2824, !tbaa !1536
  %62 = load i32*, i32** %61, align 8, !dbg !2824, !tbaa !1536
  tail call void @llvm.dbg.value(metadata i32* %62, i64 0, metadata !2721, metadata !1520), !dbg !2825
  %63 = load i32**, i32*** @hot_node_count, align 8, !dbg !2826, !tbaa !1536
  %64 = load i32*, i32** %63, align 8, !dbg !2826, !tbaa !1536
  tail call void @llvm.dbg.value(metadata i32* %64, i64 0, metadata !2725, metadata !1520), !dbg !2827
  %65 = load %class.MapFile**, %class.MapFile*** @thread_mapfile, align 8, !dbg !2828, !tbaa !1536
  %66 = load %class.MapFile*, %class.MapFile** %65, align 8, !dbg !2828, !tbaa !1536
  %first = getelementptr inbounds %class.MapFile, %class.MapFile* %66, i64 0, i32 0, !dbg !2829
  %67 = load %class.MapFileNode*, %class.MapFileNode** %first, align 8, !dbg !2829, !tbaa !1854
  tail call void @llvm.dbg.value(metadata %class.MapFileNode* %67, i64 0, metadata !2715, metadata !1520), !dbg !2830
  %size34 = getelementptr inbounds %class.MapFileNode, %class.MapFileNode* %67, i64 0, i32 1, !dbg !2831
  %68 = load i32, i32* %size34, align 8, !dbg !2831, !tbaa !1844
  tail call void @llvm.dbg.value(metadata i32 %68, i64 0, metadata !2716, metadata !1520), !dbg !2832
  tail call void @llvm.dbg.value(metadata i16* %74, i64 0, metadata !2717, metadata !1520), !dbg !2833
  tail call void @llvm.dbg.value(metadata i32 %57, i64 0, metadata !2718, metadata !1520), !dbg !2834
  tail call void @llvm.dbg.value(metadata i32 0, i64 0, metadata !2726, metadata !1520), !dbg !2835
  tail call void @llvm.dbg.value(metadata i32 %7, i64 0, metadata !2727, metadata !1520), !dbg !2836
  %table = getelementptr inbounds %class.MapFile, %class.MapFile* %58, i64 0, i32 1, !dbg !2837
  %69 = load %class.MapFileNode**, %class.MapFileNode*** %table, align 8, !dbg !2837, !tbaa !2077
  %arrayidx38 = getelementptr inbounds %class.MapFileNode*, %class.MapFileNode** %69, i64 %indvars.iv873, !dbg !2838
  %70 = load %class.MapFileNode*, %class.MapFileNode** %arrayidx38, align 8, !dbg !2838, !tbaa !1536
  tail call void @llvm.dbg.value(metadata %class.MapFileNode* %70, i64 0, metadata !2714, metadata !1520), !dbg !2839
  tail call void @llvm.dbg.value(metadata i32 0, i64 0, metadata !2722, metadata !1520), !dbg !2840
  %TransactionContent39 = getelementptr inbounds %class.MapFileNode, %class.MapFileNode* %70, i64 0, i32 0, !dbg !2841
  %71 = load i32*, i32** %TransactionContent39, align 8, !dbg !2841, !tbaa !1848
  tail call void @llvm.dbg.value(metadata i32* %71, i64 0, metadata !2713, metadata !1520), !dbg !2842
  tail call void @llvm.dbg.value(metadata i32 0, i64 0, metadata !2724, metadata !1520), !dbg !2843
  %top = getelementptr inbounds %class.MapFileNode, %class.MapFileNode* %70, i64 0, i32 2, !dbg !2844
  %72 = load i32, i32* %top, align 4, !dbg !2844, !tbaa !1852
  tail call void @llvm.dbg.value(metadata %class.MapFileNode* %67, i64 0, metadata !2715, metadata !1520), !dbg !2830
  tail call void @llvm.dbg.value(metadata i16* %74, i64 0, metadata !2717, metadata !1520), !dbg !2833
  tail call void @llvm.dbg.value(metadata i32 %57, i64 0, metadata !2718, metadata !1520), !dbg !2834
  tail call void @llvm.dbg.value(metadata i32 0, i64 0, metadata !2722, metadata !1520), !dbg !2840
  tail call void @llvm.dbg.value(metadata i32 0, i64 0, metadata !2724, metadata !1520), !dbg !2843
  tail call void @llvm.dbg.value(metadata i32 0, i64 0, metadata !2726, metadata !1520), !dbg !2835
  tail call void @llvm.dbg.value(metadata i32 %7, i64 0, metadata !2727, metadata !1520), !dbg !2836
  %cmp41732750775 = icmp sgt i32 %72, 0, !dbg !2846
  br i1 %cmp41732750775, label %for.body42.lr.ph.lr.ph.preheader, label %for.end115.if.end165_crit_edge, !dbg !2849

for.body42.lr.ph.lr.ph.preheader:                 ; preds = %for.body24
  %73 = bitcast %class.MapFileNode* %67 to i16**, !dbg !2851
  %74 = load i16*, i16** %73, align 8, !dbg !2851, !tbaa !1848
  br label %for.body42.lr.ph.lr.ph, !dbg !2849

for.body42.lr.ph.lr.ph:                           ; preds = %for.body42.lr.ph.lr.ph.preheader, %if.end90
  %k.0731749782.in = phi i32 [ %79, %if.end90 ], [ %72, %for.body42.lr.ph.lr.ph.preheader ]
  %newnode.0.ph.ph781 = phi %class.MapFileNode* [ %newnode.2, %if.end90 ], [ %67, %for.body42.lr.ph.lr.ph.preheader ]
  %newcontent.0.ph.ph780 = phi i16* [ %newcontent.2, %if.end90 ], [ %74, %for.body42.lr.ph.lr.ph.preheader ]
  %currentpos.0.ph.ph779 = phi i32 [ %currentpos.4, %if.end90 ], [ %57, %for.body42.lr.ph.lr.ph.preheader ]
  %has.0.ph.ph778 = phi i32 [ %has.1, %if.end90 ], [ 0, %for.body42.lr.ph.lr.ph.preheader ]
  %max_item.0.ph.ph777 = phi i32 [ %max_item.1, %if.end90 ], [ 0, %for.body42.lr.ph.lr.ph.preheader ]
  %min_item.0.ph.ph776 = phi i32 [ %min_item.1, %if.end90 ], [ %7, %for.body42.lr.ph.lr.ph.preheader ]
  br label %for.body42.lr.ph, !dbg !2849

for.body42.lr.ph:                                 ; preds = %for.body42.lr.ph.lr.ph, %if.else100
  %k.0731755.in = phi i32 [ %k.0731749782.in, %for.body42.lr.ph.lr.ph ], [ %98, %if.else100 ]
  %ntype.0.ph754 = phi i32 [ 0, %for.body42.lr.ph.lr.ph ], [ %ntype.0733, %if.else100 ]
  %has.0.ph753 = phi i32 [ %has.0.ph.ph778, %for.body42.lr.ph.lr.ph ], [ %add103, %if.else100 ]
  %max_item.0.ph752 = phi i32 [ %max_item.0.ph.ph777, %for.body42.lr.ph.lr.ph ], [ %.max_item.0, %if.else100 ]
  %min_item.0.ph751 = phi i32 [ %min_item.0.ph.ph776, %for.body42.lr.ph.lr.ph ], [ %.min_item.0, %if.else100 ]
  %75 = load i32*, i32** @item_order, align 8
  %76 = sext i32 %k.0731755.in to i64, !dbg !2849
  br label %for.body42, !dbg !2849

for.body42:                                       ; preds = %for.body42.lr.ph, %if.then99
  %indvars.iv867 = phi i64 [ %76, %for.body42.lr.ph ], [ %indvars.iv.next868, %if.then99 ]
  %ntype.0733 = phi i32 [ %ntype.0.ph754, %for.body42.lr.ph ], [ %or, %if.then99 ]
  %indvars.iv.next868 = add nsw i64 %indvars.iv867, -1
  %arrayidx44 = getelementptr inbounds i32, i32* %71, i64 %indvars.iv.next868, !dbg !2852
  %77 = load i32, i32* %arrayidx44, align 4, !dbg !2852, !tbaa !1525
  %cmp45 = icmp eq i32 %77, -1, !dbg !2855
  br i1 %cmp45, label %if.then, label %if.else, !dbg !2856

if.then:                                          ; preds = %for.body42
  %78 = trunc i64 %indvars.iv867 to i32, !dbg !2857
  %79 = trunc i64 %indvars.iv.next868 to i32, !dbg !2857
  %and = and i32 %ntype.0733, 65535, !dbg !2857
  tail call void @llvm.dbg.value(metadata i32 %and, i64 0, metadata !2722, metadata !1520), !dbg !2840
  %cmp46 = icmp sgt i32 %has.0.ph753, 0, !dbg !2859
  br i1 %cmp46, label %if.then47, label %if.then.if.end90_crit_edge, !dbg !2861

if.then.if.end90_crit_edge:                       ; preds = %if.then
  %.pre889 = zext i32 %and to i64, !dbg !2862
  br label %if.end90, !dbg !2861

if.then47:                                        ; preds = %if.then
  %sub48 = sub nsw i32 %68, %currentpos.0.ph.ph779, !dbg !2863
  %add = add nsw i32 %has.0.ph753, 1, !dbg !2866
  %cmp49 = icmp sgt i32 %sub48, %has.0.ph753, !dbg !2867
  br i1 %cmp49, label %if.end, label %if.then50, !dbg !2868

if.then50:                                        ; preds = %if.then47
  %top51 = getelementptr inbounds %class.MapFileNode, %class.MapFileNode* %newnode.0.ph.ph781, i64 0, i32 2, !dbg !2869
  store i32 %currentpos.0.ph.ph779, i32* %top51, align 4, !dbg !2871, !tbaa !1852
  %80 = load %class.memory**, %class.memory*** @fp_tree_buf, align 8, !dbg !2872, !tbaa !1536
  %81 = load %class.memory*, %class.memory** %80, align 8, !dbg !2872, !tbaa !1536
  %call54 = tail call i8* @_ZN6memory6newbufEjj(%class.memory* %81, i32 1, i32 40), !dbg !2873
  %82 = bitcast i8* %call54 to %class.MapFileNode*, !dbg !2874
  tail call void @llvm.dbg.value(metadata %class.MapFileNode* %82, i64 0, metadata !2715, metadata !1520), !dbg !2830
  tail call void @_ZN11MapFileNode4initEii(%class.MapFileNode* %82, i32 5000000, i32 2), !dbg !2875
  %83 = load i64**, i64*** bitcast (%class.MapFile*** @thread_mapfile to i64***), align 8, !dbg !2876, !tbaa !1536
  %84 = load i64*, i64** %83, align 8, !dbg !2876, !tbaa !1536
  %85 = load i64, i64* %84, align 8, !dbg !2877, !tbaa !1854
  %next = getelementptr inbounds i8, i8* %call54, i64 32, !dbg !2878
  %86 = bitcast i8* %next to i64*, !dbg !2879
  store i64 %85, i64* %86, align 8, !dbg !2879, !tbaa !1858
  %87 = bitcast i64** %83 to i8***, !dbg !2880
  %88 = load i8**, i8*** %87, align 8, !dbg !2880, !tbaa !1536
  store i8* %call54, i8** %88, align 8, !dbg !2881, !tbaa !1854
  %89 = bitcast i8* %call54 to i16**, !dbg !2882
  %90 = load i16*, i16** %89, align 8, !dbg !2882, !tbaa !1848
  tail call void @llvm.dbg.value(metadata i16* %90, i64 0, metadata !2717, metadata !1520), !dbg !2833
  tail call void @llvm.dbg.value(metadata i32 0, i64 0, metadata !2718, metadata !1520), !dbg !2834
  br label %if.end, !dbg !2883

if.end:                                           ; preds = %if.then47, %if.then50
  %currentpos.1 = phi i32 [ 0, %if.then50 ], [ %currentpos.0.ph.ph779, %if.then47 ]
  %newcontent.1 = phi i16* [ %90, %if.then50 ], [ %newcontent.0.ph.ph780, %if.then47 ]
  %newnode.1 = phi %class.MapFileNode* [ %82, %if.then50 ], [ %newnode.0.ph.ph781, %if.then47 ]
  tail call void @llvm.dbg.value(metadata %class.MapFileNode* %newnode.1, i64 0, metadata !2715, metadata !1520), !dbg !2830
  tail call void @llvm.dbg.value(metadata i16* %newcontent.1, i64 0, metadata !2717, metadata !1520), !dbg !2833
  tail call void @llvm.dbg.value(metadata i32 %currentpos.1, i64 0, metadata !2718, metadata !1520), !dbg !2834
  %conv = trunc i32 %ntype.0733 to i16, !dbg !2884
  %inc62 = add nsw i32 %currentpos.1, 1, !dbg !2885
  tail call void @llvm.dbg.value(metadata i32 %inc62, i64 0, metadata !2718, metadata !1520), !dbg !2834
  %idxprom63 = sext i32 %currentpos.1 to i64, !dbg !2886
  %arrayidx64 = getelementptr inbounds i16, i16* %newcontent.1, i64 %idxprom63, !dbg !2886
  store i16 %conv, i16* %arrayidx64, align 2, !dbg !2887, !tbaa !2888
  %conv65 = trunc i32 %has.0.ph753 to i16, !dbg !2890
  %inc66 = add nsw i32 %currentpos.1, 2, !dbg !2891
  tail call void @llvm.dbg.value(metadata i32 %inc66, i64 0, metadata !2718, metadata !1520), !dbg !2834
  %idxprom67 = sext i32 %inc62 to i64, !dbg !2892
  %arrayidx68 = getelementptr inbounds i16, i16* %newcontent.1, i64 %idxprom67, !dbg !2892
  store i16 %conv65, i16* %arrayidx68, align 2, !dbg !2893, !tbaa !2888
  %idxprom70693 = zext i32 %and to i64, !dbg !2894
  %arrayidx71 = getelementptr inbounds i32, i32* %62, i64 %idxprom70693, !dbg !2894
  %91 = load i32, i32* %arrayidx71, align 4, !dbg !2895, !tbaa !1525
  %add72 = add nsw i32 %add, %91, !dbg !2895
  store i32 %add72, i32* %arrayidx71, align 4, !dbg !2895, !tbaa !1525
  tail call void @llvm.dbg.value(metadata i32 undef, i64 0, metadata !2712, metadata !1520), !dbg !2896
  tail call void @llvm.dbg.value(metadata i32 %min_item.0.ph751, i64 0, metadata !2712, metadata !1520), !dbg !2896
  tail call void @llvm.dbg.value(metadata i32 %inc66, i64 0, metadata !2718, metadata !1520), !dbg !2834
  %cmp74770 = icmp sgt i32 %min_item.0.ph751, %max_item.0.ph752, !dbg !2897
  br i1 %cmp74770, label %if.end90, label %for.body75.preheader, !dbg !2901

for.body75.preheader:                             ; preds = %if.end
  %92 = sext i32 %min_item.0.ph751 to i64, !dbg !2903
  %93 = sext i32 %max_item.0.ph752 to i64, !dbg !2903
  br label %for.body75, !dbg !2903

for.body75:                                       ; preds = %for.body75.preheader, %for.inc87
  %indvars.iv869 = phi i64 [ %92, %for.body75.preheader ], [ %indvars.iv.next870, %for.inc87 ]
  %currentpos.2771 = phi i32 [ %inc66, %for.body75.preheader ], [ %currentpos.3, %for.inc87 ]
  %arrayidx77 = getelementptr inbounds i32, i32* %60, i64 %indvars.iv869, !dbg !2903
  %94 = load i32, i32* %arrayidx77, align 4, !dbg !2903, !tbaa !1525
  %cmp78 = icmp eq i32 %94, 1, !dbg !2905
  br i1 %cmp78, label %for.inc87, label %if.then79, !dbg !2906

if.then79:                                        ; preds = %for.body75
  %conv80 = trunc i64 %indvars.iv869 to i16, !dbg !2907
  %inc81 = add nsw i32 %currentpos.2771, 1, !dbg !2909
  tail call void @llvm.dbg.value(metadata i32 %inc81, i64 0, metadata !2718, metadata !1520), !dbg !2834
  %idxprom82 = sext i32 %currentpos.2771 to i64, !dbg !2910
  %arrayidx83 = getelementptr inbounds i16, i16* %newcontent.1, i64 %idxprom82, !dbg !2910
  store i16 %conv80, i16* %arrayidx83, align 2, !dbg !2911, !tbaa !2888
  store i32 1, i32* %arrayidx77, align 4, !dbg !2912, !tbaa !1525
  br label %for.inc87, !dbg !2913

for.inc87:                                        ; preds = %for.body75, %if.then79
  %currentpos.3 = phi i32 [ %inc81, %if.then79 ], [ %currentpos.2771, %for.body75 ]
  tail call void @llvm.dbg.value(metadata i32 %currentpos.3, i64 0, metadata !2718, metadata !1520), !dbg !2834
  %indvars.iv.next870 = add nsw i64 %indvars.iv869, 1, !dbg !2914
  tail call void @llvm.dbg.value(metadata i32 %currentpos.3, i64 0, metadata !2718, metadata !1520), !dbg !2834
  %cmp74 = icmp slt i64 %indvars.iv869, %93, !dbg !2897
  br i1 %cmp74, label %for.body75, label %if.end90.loopexit, !dbg !2901, !llvm.loop !2916

if.end90.loopexit:                                ; preds = %for.inc87
  br label %if.end90, !dbg !2830

if.end90:                                         ; preds = %if.end90.loopexit, %if.then.if.end90_crit_edge, %if.end
  %idxprom91692.pre-phi = phi i64 [ %.pre889, %if.then.if.end90_crit_edge ], [ %idxprom70693, %if.end ], [ %idxprom70693, %if.end90.loopexit ], !dbg !2862
  %min_item.1 = phi i32 [ %min_item.0.ph751, %if.then.if.end90_crit_edge ], [ %7, %if.end ], [ %7, %if.end90.loopexit ]
  %max_item.1 = phi i32 [ %max_item.0.ph752, %if.then.if.end90_crit_edge ], [ 0, %if.end ], [ 0, %if.end90.loopexit ]
  %has.1 = phi i32 [ %has.0.ph753, %if.then.if.end90_crit_edge ], [ 0, %if.end ], [ 0, %if.end90.loopexit ]
  %currentpos.4 = phi i32 [ %currentpos.0.ph.ph779, %if.then.if.end90_crit_edge ], [ %inc66, %if.end ], [ %currentpos.3, %if.end90.loopexit ]
  %newcontent.2 = phi i16* [ %newcontent.0.ph.ph780, %if.then.if.end90_crit_edge ], [ %newcontent.1, %if.end ], [ %newcontent.1, %if.end90.loopexit ]
  %newnode.2 = phi %class.MapFileNode* [ %newnode.0.ph.ph781, %if.then.if.end90_crit_edge ], [ %newnode.1, %if.end ], [ %newnode.1, %if.end90.loopexit ]
  tail call void @llvm.dbg.value(metadata %class.MapFileNode* %newnode.2, i64 0, metadata !2715, metadata !1520), !dbg !2830
  tail call void @llvm.dbg.value(metadata i16* %newcontent.2, i64 0, metadata !2717, metadata !1520), !dbg !2833
  tail call void @llvm.dbg.value(metadata i32 %currentpos.4, i64 0, metadata !2718, metadata !1520), !dbg !2834
  tail call void @llvm.dbg.value(metadata i32 %has.1, i64 0, metadata !2724, metadata !1520), !dbg !2843
  tail call void @llvm.dbg.value(metadata i32 %max_item.1, i64 0, metadata !2726, metadata !1520), !dbg !2835
  tail call void @llvm.dbg.value(metadata i32 %min_item.1, i64 0, metadata !2727, metadata !1520), !dbg !2836
  %arrayidx92 = getelementptr inbounds i32, i32* %64, i64 %idxprom91692.pre-phi, !dbg !2862
  %95 = load i32, i32* %arrayidx92, align 4, !dbg !2919, !tbaa !1525
  %inc93 = add nsw i32 %95, 1, !dbg !2919
  store i32 %inc93, i32* %arrayidx92, align 4, !dbg !2919, !tbaa !1525
  tail call void @llvm.dbg.value(metadata i32 0, i64 0, metadata !2722, metadata !1520), !dbg !2840
  tail call void @llvm.dbg.value(metadata %class.MapFileNode* %newnode.2, i64 0, metadata !2715, metadata !1520), !dbg !2830
  tail call void @llvm.dbg.value(metadata i16* %newcontent.2, i64 0, metadata !2717, metadata !1520), !dbg !2833
  tail call void @llvm.dbg.value(metadata i32 %currentpos.4, i64 0, metadata !2718, metadata !1520), !dbg !2834
  tail call void @llvm.dbg.value(metadata i32 0, i64 0, metadata !2722, metadata !1520), !dbg !2840
  tail call void @llvm.dbg.value(metadata i32 %has.1, i64 0, metadata !2724, metadata !1520), !dbg !2843
  tail call void @llvm.dbg.value(metadata i32 %max_item.1, i64 0, metadata !2726, metadata !1520), !dbg !2835
  tail call void @llvm.dbg.value(metadata i32 %min_item.1, i64 0, metadata !2727, metadata !1520), !dbg !2836
  %cmp41732750 = icmp sgt i32 %78, 1, !dbg !2846
  br i1 %cmp41732750, label %for.body42.lr.ph.lr.ph, label %for.end115.if.end165_crit_edge.loopexit, !dbg !2849, !llvm.loop !2920

if.else:                                          ; preds = %for.body42
  %idxprom96 = sext i32 %77 to i64, !dbg !2923
  %arrayidx97 = getelementptr inbounds i32, i32* %75, i64 %idxprom96, !dbg !2923
  %96 = load i32, i32* %arrayidx97, align 4, !dbg !2923, !tbaa !1525
  tail call void @llvm.dbg.value(metadata i32 %96, i64 0, metadata !2723, metadata !1520), !dbg !2925
  %cmp98 = icmp slt i32 %96, %6, !dbg !2926
  br i1 %cmp98, label %if.then99, label %if.else100, !dbg !2928

if.then99:                                        ; preds = %if.else
  %shl = shl i32 1, %96, !dbg !2929
  %or = or i32 %shl, %ntype.0733, !dbg !2931
  tail call void @llvm.dbg.value(metadata i32 %or, i64 0, metadata !2722, metadata !1520), !dbg !2840
  tail call void @llvm.dbg.value(metadata %class.MapFileNode* %newnode.0.ph.ph781, i64 0, metadata !2715, metadata !1520), !dbg !2830
  tail call void @llvm.dbg.value(metadata i16* %newcontent.0.ph.ph780, i64 0, metadata !2717, metadata !1520), !dbg !2833
  tail call void @llvm.dbg.value(metadata i32 %currentpos.0.ph.ph779, i64 0, metadata !2718, metadata !1520), !dbg !2834
  tail call void @llvm.dbg.value(metadata i32 %or, i64 0, metadata !2722, metadata !1520), !dbg !2840
  tail call void @llvm.dbg.value(metadata i32 %has.0.ph753, i64 0, metadata !2724, metadata !1520), !dbg !2843
  tail call void @llvm.dbg.value(metadata i32 %max_item.0.ph752, i64 0, metadata !2726, metadata !1520), !dbg !2835
  tail call void @llvm.dbg.value(metadata i32 %min_item.0.ph751, i64 0, metadata !2727, metadata !1520), !dbg !2836
  %cmp41 = icmp sgt i64 %indvars.iv867, 1, !dbg !2846
  br i1 %cmp41, label %for.body42, label %for.end115.loopexit, !dbg !2849, !llvm.loop !2920

if.else100:                                       ; preds = %if.else
  %97 = trunc i64 %indvars.iv867 to i32, !dbg !2932
  %98 = trunc i64 %indvars.iv.next868 to i32, !dbg !2932
  %idxprom101 = sext i32 %96 to i64, !dbg !2932
  %arrayidx102 = getelementptr inbounds i32, i32* %60, i64 %idxprom101, !dbg !2932
  %99 = load i32, i32* %arrayidx102, align 4, !dbg !2932, !tbaa !1525
  %add103 = add nsw i32 %99, %has.0.ph753, !dbg !2934
  tail call void @llvm.dbg.value(metadata i32 %add103, i64 0, metadata !2724, metadata !1520), !dbg !2843
  store i32 0, i32* %arrayidx102, align 4, !dbg !2935, !tbaa !1525
  %cmp106 = icmp sgt i32 %96, %max_item.0.ph752, !dbg !2936
  tail call void @llvm.dbg.value(metadata i32 %96, i64 0, metadata !2726, metadata !1520), !dbg !2835
  %.max_item.0 = select i1 %cmp106, i32 %96, i32 %max_item.0.ph752, !dbg !2938
  tail call void @llvm.dbg.value(metadata i32 %.max_item.0, i64 0, metadata !2726, metadata !1520), !dbg !2835
  %cmp109 = icmp slt i32 %96, %min_item.0.ph751, !dbg !2939
  tail call void @llvm.dbg.value(metadata i32 %96, i64 0, metadata !2727, metadata !1520), !dbg !2836
  %.min_item.0 = select i1 %cmp109, i32 %96, i32 %min_item.0.ph751, !dbg !2941
  tail call void @llvm.dbg.value(metadata %class.MapFileNode* %newnode.0.ph.ph781, i64 0, metadata !2715, metadata !1520), !dbg !2830
  tail call void @llvm.dbg.value(metadata i16* %newcontent.0.ph.ph780, i64 0, metadata !2717, metadata !1520), !dbg !2833
  tail call void @llvm.dbg.value(metadata i32 %currentpos.0.ph.ph779, i64 0, metadata !2718, metadata !1520), !dbg !2834
  tail call void @llvm.dbg.value(metadata i32 %ntype.0733, i64 0, metadata !2722, metadata !1520), !dbg !2840
  tail call void @llvm.dbg.value(metadata i32 %add103, i64 0, metadata !2724, metadata !1520), !dbg !2843
  tail call void @llvm.dbg.value(metadata i32 %.max_item.0, i64 0, metadata !2726, metadata !1520), !dbg !2835
  tail call void @llvm.dbg.value(metadata i32 %.min_item.0, i64 0, metadata !2727, metadata !1520), !dbg !2836
  %cmp41732 = icmp sgt i32 %97, 1, !dbg !2846
  br i1 %cmp41732, label %for.body42.lr.ph, label %for.end115.loopexit996, !dbg !2849

for.end115.loopexit:                              ; preds = %if.then99
  br label %for.end115, !dbg !2942

for.end115.loopexit996:                           ; preds = %if.else100
  br label %for.end115, !dbg !2942

for.end115:                                       ; preds = %for.end115.loopexit996, %for.end115.loopexit
  %min_item.0.ph.lcssa700 = phi i32 [ %min_item.0.ph751, %for.end115.loopexit ], [ %.min_item.0, %for.end115.loopexit996 ]
  %max_item.0.ph.lcssa699 = phi i32 [ %max_item.0.ph752, %for.end115.loopexit ], [ %.max_item.0, %for.end115.loopexit996 ]
  %has.0.ph.lcssa698 = phi i32 [ %has.0.ph753, %for.end115.loopexit ], [ %add103, %for.end115.loopexit996 ]
  %ntype.0.lcssa = phi i32 [ %or, %for.end115.loopexit ], [ %ntype.0733, %for.end115.loopexit996 ]
  %and116 = and i32 %ntype.0.lcssa, 65535, !dbg !2942
  tail call void @llvm.dbg.value(metadata i32 %and116, i64 0, metadata !2722, metadata !1520), !dbg !2840
  %cmp117 = icmp sgt i32 %has.0.ph.lcssa698, 0, !dbg !2943
  br i1 %cmp117, label %if.then118, label %for.end115.if.end165_crit_edge, !dbg !2945

for.end115.if.end165_crit_edge.loopexit:          ; preds = %if.end90
  br label %for.end115.if.end165_crit_edge, !dbg !2946

for.end115.if.end165_crit_edge:                   ; preds = %for.end115.if.end165_crit_edge.loopexit, %for.body24, %for.end115
  %and116897 = phi i32 [ %and116, %for.end115 ], [ 0, %for.body24 ], [ 0, %for.end115.if.end165_crit_edge.loopexit ]
  %newnode.0.ph.ph.lcssa896 = phi %class.MapFileNode* [ %newnode.0.ph.ph781, %for.end115 ], [ %67, %for.body24 ], [ %newnode.2, %for.end115.if.end165_crit_edge.loopexit ]
  %currentpos.0.ph.ph.lcssa895 = phi i32 [ %currentpos.0.ph.ph779, %for.end115 ], [ %57, %for.body24 ], [ %currentpos.4, %for.end115.if.end165_crit_edge.loopexit ]
  %.pre890 = zext i32 %and116897 to i64, !dbg !2946
  br label %if.end165, !dbg !2945

if.then118:                                       ; preds = %for.end115
  %sub119 = sub nsw i32 %68, %currentpos.0.ph.ph779, !dbg !2947
  %add120 = add nsw i32 %has.0.ph.lcssa698, 1, !dbg !2950
  %cmp121 = icmp sgt i32 %sub119, %has.0.ph.lcssa698, !dbg !2951
  br i1 %cmp121, label %if.end135, label %if.then122, !dbg !2952

if.then122:                                       ; preds = %if.then118
  %top123 = getelementptr inbounds %class.MapFileNode, %class.MapFileNode* %newnode.0.ph.ph781, i64 0, i32 2, !dbg !2953
  store i32 %currentpos.0.ph.ph779, i32* %top123, align 4, !dbg !2955, !tbaa !1852
  %100 = load %class.memory**, %class.memory*** @fp_tree_buf, align 8, !dbg !2956, !tbaa !1536
  %arrayidx125 = getelementptr inbounds %class.memory*, %class.memory** %100, i64 %indvars.iv873, !dbg !2956
  %101 = load %class.memory*, %class.memory** %arrayidx125, align 8, !dbg !2956, !tbaa !1536
  %call126 = tail call i8* @_ZN6memory6newbufEjj(%class.memory* %101, i32 1, i32 40), !dbg !2957
  %102 = bitcast i8* %call126 to %class.MapFileNode*, !dbg !2958
  tail call void @llvm.dbg.value(metadata %class.MapFileNode* %102, i64 0, metadata !2715, metadata !1520), !dbg !2830
  tail call void @_ZN11MapFileNode4initEii(%class.MapFileNode* %102, i32 5000000, i32 2), !dbg !2959
  %103 = load %class.MapFile**, %class.MapFile*** @thread_mapfile, align 8, !dbg !2960, !tbaa !1536
  %arrayidx128 = getelementptr inbounds %class.MapFile*, %class.MapFile** %103, i64 %indvars.iv873, !dbg !2960
  %104 = bitcast %class.MapFile** %arrayidx128 to i64**, !dbg !2960
  %105 = load i64*, i64** %104, align 8, !dbg !2960, !tbaa !1536
  %106 = load i64, i64* %105, align 8, !dbg !2961, !tbaa !1854
  %next130 = getelementptr inbounds i8, i8* %call126, i64 32, !dbg !2962
  %107 = bitcast i8* %next130 to i64*, !dbg !2963
  store i64 %106, i64* %107, align 8, !dbg !2963, !tbaa !1858
  %108 = bitcast %class.MapFile** %arrayidx128 to i8***, !dbg !2964
  %109 = load i8**, i8*** %108, align 8, !dbg !2964, !tbaa !1536
  store i8* %call126, i8** %109, align 8, !dbg !2965, !tbaa !1854
  %110 = bitcast i8* %call126 to i16**, !dbg !2966
  %111 = load i16*, i16** %110, align 8, !dbg !2966, !tbaa !1848
  tail call void @llvm.dbg.value(metadata i16* %111, i64 0, metadata !2717, metadata !1520), !dbg !2833
  tail call void @llvm.dbg.value(metadata i32 0, i64 0, metadata !2718, metadata !1520), !dbg !2834
  br label %if.end135, !dbg !2967

if.end135:                                        ; preds = %if.then118, %if.then122
  %currentpos.6 = phi i32 [ 0, %if.then122 ], [ %currentpos.0.ph.ph779, %if.then118 ]
  %newcontent.4 = phi i16* [ %111, %if.then122 ], [ %newcontent.0.ph.ph780, %if.then118 ]
  %newnode.4 = phi %class.MapFileNode* [ %102, %if.then122 ], [ %newnode.0.ph.ph781, %if.then118 ]
  tail call void @llvm.dbg.value(metadata %class.MapFileNode* %newnode.4, i64 0, metadata !2715, metadata !1520), !dbg !2830
  tail call void @llvm.dbg.value(metadata i16* %newcontent.4, i64 0, metadata !2717, metadata !1520), !dbg !2833
  tail call void @llvm.dbg.value(metadata i32 %currentpos.6, i64 0, metadata !2718, metadata !1520), !dbg !2834
  %conv136 = trunc i32 %ntype.0.lcssa to i16, !dbg !2968
  %inc137 = add nsw i32 %currentpos.6, 1, !dbg !2969
  tail call void @llvm.dbg.value(metadata i32 %inc137, i64 0, metadata !2718, metadata !1520), !dbg !2834
  %idxprom138 = sext i32 %currentpos.6 to i64, !dbg !2970
  %arrayidx139 = getelementptr inbounds i16, i16* %newcontent.4, i64 %idxprom138, !dbg !2970
  store i16 %conv136, i16* %arrayidx139, align 2, !dbg !2971, !tbaa !2888
  %conv140 = trunc i32 %has.0.ph.lcssa698 to i16, !dbg !2972
  %inc141 = add nsw i32 %currentpos.6, 2, !dbg !2973
  tail call void @llvm.dbg.value(metadata i32 %inc141, i64 0, metadata !2718, metadata !1520), !dbg !2834
  %idxprom142 = sext i32 %inc137 to i64, !dbg !2974
  %arrayidx143 = getelementptr inbounds i16, i16* %newcontent.4, i64 %idxprom142, !dbg !2974
  store i16 %conv140, i16* %arrayidx143, align 2, !dbg !2975, !tbaa !2888
  %idxprom145691 = zext i32 %and116 to i64, !dbg !2976
  %arrayidx146 = getelementptr inbounds i32, i32* %62, i64 %idxprom145691, !dbg !2976
  %112 = load i32, i32* %arrayidx146, align 4, !dbg !2977, !tbaa !1525
  %add147 = add nsw i32 %add120, %112, !dbg !2977
  store i32 %add147, i32* %arrayidx146, align 4, !dbg !2977, !tbaa !1525
  tail call void @llvm.dbg.value(metadata i32 undef, i64 0, metadata !2712, metadata !1520), !dbg !2896
  tail call void @llvm.dbg.value(metadata i32 %min_item.0.ph.lcssa700, i64 0, metadata !2712, metadata !1520), !dbg !2896
  tail call void @llvm.dbg.value(metadata i32 %inc141, i64 0, metadata !2718, metadata !1520), !dbg !2834
  %cmp149790 = icmp sgt i32 %min_item.0.ph.lcssa700, %max_item.0.ph.lcssa699, !dbg !2978
  br i1 %cmp149790, label %if.end165, label %for.body150.preheader, !dbg !2982

for.body150.preheader:                            ; preds = %if.end135
  %113 = sext i32 %min_item.0.ph.lcssa700 to i64, !dbg !2984
  %114 = sext i32 %max_item.0.ph.lcssa699 to i64, !dbg !2984
  br label %for.body150, !dbg !2984

for.body150:                                      ; preds = %for.body150.preheader, %for.inc162
  %indvars.iv871 = phi i64 [ %113, %for.body150.preheader ], [ %indvars.iv.next872, %for.inc162 ]
  %currentpos.7791 = phi i32 [ %inc141, %for.body150.preheader ], [ %currentpos.8, %for.inc162 ]
  %arrayidx152 = getelementptr inbounds i32, i32* %60, i64 %indvars.iv871, !dbg !2984
  %115 = load i32, i32* %arrayidx152, align 4, !dbg !2984, !tbaa !1525
  %cmp153 = icmp eq i32 %115, 1, !dbg !2986
  br i1 %cmp153, label %for.inc162, label %if.then154, !dbg !2987

if.then154:                                       ; preds = %for.body150
  %conv155 = trunc i64 %indvars.iv871 to i16, !dbg !2988
  %inc156 = add nsw i32 %currentpos.7791, 1, !dbg !2990
  tail call void @llvm.dbg.value(metadata i32 %inc156, i64 0, metadata !2718, metadata !1520), !dbg !2834
  %idxprom157 = sext i32 %currentpos.7791 to i64, !dbg !2991
  %arrayidx158 = getelementptr inbounds i16, i16* %newcontent.4, i64 %idxprom157, !dbg !2991
  store i16 %conv155, i16* %arrayidx158, align 2, !dbg !2992, !tbaa !2888
  store i32 1, i32* %arrayidx152, align 4, !dbg !2993, !tbaa !1525
  br label %for.inc162, !dbg !2994

for.inc162:                                       ; preds = %for.body150, %if.then154
  %currentpos.8 = phi i32 [ %inc156, %if.then154 ], [ %currentpos.7791, %for.body150 ]
  tail call void @llvm.dbg.value(metadata i32 %currentpos.8, i64 0, metadata !2718, metadata !1520), !dbg !2834
  %indvars.iv.next872 = add nsw i64 %indvars.iv871, 1, !dbg !2995
  tail call void @llvm.dbg.value(metadata i32 %currentpos.8, i64 0, metadata !2718, metadata !1520), !dbg !2834
  %cmp149 = icmp slt i64 %indvars.iv871, %114, !dbg !2978
  br i1 %cmp149, label %for.body150, label %if.end165.loopexit, !dbg !2982, !llvm.loop !2997

if.end165.loopexit:                               ; preds = %for.inc162
  br label %if.end165, !dbg !2830

if.end165:                                        ; preds = %if.end165.loopexit, %for.end115.if.end165_crit_edge, %if.end135
  %idxprom166690.pre-phi = phi i64 [ %.pre890, %for.end115.if.end165_crit_edge ], [ %idxprom145691, %if.end135 ], [ %idxprom145691, %if.end165.loopexit ], !dbg !2946
  %currentpos.9 = phi i32 [ %currentpos.0.ph.ph.lcssa895, %for.end115.if.end165_crit_edge ], [ %inc141, %if.end135 ], [ %currentpos.8, %if.end165.loopexit ]
  %newnode.5 = phi %class.MapFileNode* [ %newnode.0.ph.ph.lcssa896, %for.end115.if.end165_crit_edge ], [ %newnode.4, %if.end135 ], [ %newnode.4, %if.end165.loopexit ]
  tail call void @llvm.dbg.value(metadata %class.MapFileNode* %newnode.5, i64 0, metadata !2715, metadata !1520), !dbg !2830
  tail call void @llvm.dbg.value(metadata i32 %currentpos.9, i64 0, metadata !2718, metadata !1520), !dbg !2834
  %arrayidx167 = getelementptr inbounds i32, i32* %64, i64 %idxprom166690.pre-phi, !dbg !2946
  %116 = load i32, i32* %arrayidx167, align 4, !dbg !3000, !tbaa !1525
  %inc168 = add nsw i32 %116, 1, !dbg !3000
  store i32 %inc168, i32* %arrayidx167, align 4, !dbg !3000, !tbaa !1525
  %top169 = getelementptr inbounds %class.MapFileNode, %class.MapFileNode* %newnode.5, i64 0, i32 2, !dbg !3001
  store i32 %currentpos.9, i32* %top169, align 4, !dbg !3002, !tbaa !1852
  tail call void @_ZN11MapFileNode8finalizeEv(%class.MapFileNode* %70), !dbg !3003
  store i32 %currentpos.9, i32* %5, align 4, !dbg !3004, !tbaa !1525
  %indvars.iv.next874 = add nuw i64 %indvars.iv873, 1, !dbg !3005
  %117 = load %class.MapFile*, %class.MapFile** @mapfile, align 8, !dbg !2774, !tbaa !1536
  %tablesize = getelementptr inbounds %class.MapFile, %class.MapFile* %117, i64 0, i32 7, !dbg !2776
  %118 = load i32, i32* %tablesize, align 8, !dbg !2776, !tbaa !1862
  %119 = sext i32 %118 to i64, !dbg !2777
  %cmp23 = icmp slt i64 %indvars.iv.next874, %119, !dbg !2777
  br i1 %cmp23, label %for.body24, label %for.cond175.preheader.loopexit, !dbg !2778, !llvm.loop !3007

for.body177:                                      ; preds = %for.end190.3, %for.body177.lr.ph.new
  %indvars.iv863 = phi i64 [ %indvars.iv863.unr, %for.body177.lr.ph.new ], [ %indvars.iv.next864.3, %for.end190.3 ]
  %arrayidx179 = getelementptr inbounds i32, i32* %5, i64 %indvars.iv863, !dbg !2810
  store i32 0, i32* %arrayidx179, align 4, !dbg !2811, !tbaa !1525
  tail call void @llvm.dbg.value(metadata i32 %6, i64 0, metadata !2728, metadata !1520), !dbg !2812
  tail call void @llvm.dbg.value(metadata i32 %6, i64 0, metadata !2728, metadata !1520), !dbg !2812
  br i1 %cmp182727, label %for.body183.lr.ph, label %for.end190, !dbg !2813

for.body183.lr.ph:                                ; preds = %for.body177
  %arrayidx185 = getelementptr inbounds i32*, i32** %47, i64 %indvars.iv863
  %120 = load i32*, i32** %arrayidx185, align 8, !tbaa !1536
  %scevgep = getelementptr i32, i32* %120, i64 %48, !dbg !2813
  %scevgep862 = bitcast i32* %scevgep to i8*
  call void @llvm.memset.p0i8.i64(i8* %scevgep862, i8 0, i64 %53, i32 4, i1 false), !dbg !2816
  br label %for.end190, !dbg !2818

for.end190:                                       ; preds = %for.body183.lr.ph, %for.body177
  %indvars.iv.next864 = add nuw nsw i64 %indvars.iv863, 1, !dbg !2818
  %arrayidx179.1 = getelementptr inbounds i32, i32* %5, i64 %indvars.iv.next864, !dbg !2810
  store i32 0, i32* %arrayidx179.1, align 4, !dbg !2811, !tbaa !1525
  tail call void @llvm.dbg.value(metadata i32 %6, i64 0, metadata !2728, metadata !1520), !dbg !2812
  tail call void @llvm.dbg.value(metadata i32 %6, i64 0, metadata !2728, metadata !1520), !dbg !2812
  br i1 %cmp182727, label %for.body183.lr.ph.1, label %for.end190.1, !dbg !2813

for.end193.loopexit.unr-lcssa:                    ; preds = %for.end190.3
  br label %for.end193.loopexit, !dbg !3010

for.end193.loopexit:                              ; preds = %for.body177.prol.loopexit, %for.end193.loopexit.unr-lcssa
  br label %for.end193, !dbg !3010

for.end193:                                       ; preds = %for.end193.loopexit, %for.cond175.preheader
  tail call void @llvm.dbg.value(metadata i32 0, i64 0, metadata !2732, metadata !1520), !dbg !3010
  store i32 0, i32* @numusefulntype, align 4, !dbg !3011, !tbaa !1525
  tail call void @llvm.dbg.value(metadata i32 0, i64 0, metadata !2733, metadata !1520), !dbg !3012
  %call194 = tail call i8* @_Znam(i64 262144) #14, !dbg !3013
  store i8* %call194, i8** bitcast (i32** @ntypeoffsetbase to i8**), align 8, !dbg !3014, !tbaa !1536
  %call195 = tail call i8* @_Znam(i64 262144) #14, !dbg !3015
  store i8* %call195, i8** bitcast (i32** @ntypeoffsetend to i8**), align 8, !dbg !3016, !tbaa !1536
  %call196 = tail call i8* @_Znam(i64 262144) #14, !dbg !3017
  %121 = bitcast i8* %call196 to i32*, !dbg !3017
  tail call void @llvm.dbg.value(metadata i32* %121, i64 0, metadata !2734, metadata !1520), !dbg !3018
  tail call void @llvm.dbg.value(metadata i32 0, i64 0, metadata !2700, metadata !1520), !dbg !2769
  tail call void @llvm.dbg.value(metadata i32 0, i64 0, metadata !2700, metadata !1520), !dbg !2769
  tail call void @llvm.dbg.value(metadata i32 0, i64 0, metadata !2732, metadata !1520), !dbg !3010
  %.cast = bitcast i8* %call194 to i32*
  %.cast802 = bitcast i8* %call195 to i32*
  %122 = load i32**, i32*** @ntypearray, align 8
  %wide.trip.count853 = zext i32 %workingthread to i64
  %123 = add nsw i64 %wide.trip.count853, -1, !dbg !3019
  %xtraiter1026 = and i64 %wide.trip.count853, 3
  %lcmp.mod1027 = icmp eq i64 %xtraiter1026, 0
  %124 = icmp ult i64 %123, 3
  br label %for.body199, !dbg !3019

for.body199:                                      ; preds = %if.end221, %for.end193
  %125 = phi i32 [ 0, %for.end193 ], [ %139, %if.end221 ], !dbg !3021
  %indvars.iv855 = phi i64 [ 0, %for.end193 ], [ %indvars.iv.next856, %if.end221 ]
  %sumworkload.0725 = phi i32 [ 0, %for.end193 ], [ %add228, %if.end221 ]
  %arrayidx201 = getelementptr inbounds [65536 x i32], [65536 x i32]* @sumntype, i64 0, i64 %indvars.iv855, !dbg !3023
  store i32 0, i32* %arrayidx201, align 4, !dbg !3024, !tbaa !1525
  tail call void @llvm.dbg.value(metadata i32 0, i64 0, metadata !2736, metadata !1520), !dbg !3025
  tail call void @llvm.dbg.value(metadata i32 0, i64 0, metadata !2736, metadata !1520), !dbg !3025
  br i1 %cmp800, label %for.body205.preheader, label %if.end221, !dbg !3026

for.body205.preheader:                            ; preds = %for.body199
  br i1 %lcmp.mod1027, label %for.body205.prol.loopexit, label %for.body205.prol.preheader, !dbg !3028

for.body205.prol.preheader:                       ; preds = %for.body205.preheader
  br label %for.body205.prol, !dbg !3028

for.body205.prol:                                 ; preds = %for.body205.prol, %for.body205.prol.preheader
  %126 = phi i32 [ %add212.prol, %for.body205.prol ], [ 0, %for.body205.prol.preheader ], !dbg !3030
  %indvars.iv851.prol = phi i64 [ %indvars.iv.next852.prol, %for.body205.prol ], [ 0, %for.body205.prol.preheader ]
  %prol.iter1028 = phi i64 [ %prol.iter1028.sub, %for.body205.prol ], [ %xtraiter1026, %for.body205.prol.preheader ]
  %arrayidx207.prol = getelementptr inbounds i32*, i32** %122, i64 %indvars.iv851.prol, !dbg !3028
  %127 = load i32*, i32** %arrayidx207.prol, align 8, !dbg !3028, !tbaa !1536
  %arrayidx209.prol = getelementptr inbounds i32, i32* %127, i64 %indvars.iv855, !dbg !3028
  %128 = load i32, i32* %arrayidx209.prol, align 4, !dbg !3028, !tbaa !1525
  %add212.prol = add nsw i32 %126, %128, !dbg !3030
  store i32 %add212.prol, i32* %arrayidx201, align 4, !dbg !3030, !tbaa !1525
  %indvars.iv.next852.prol = add nuw nsw i64 %indvars.iv851.prol, 1, !dbg !3031
  %prol.iter1028.sub = add i64 %prol.iter1028, -1, !dbg !3026
  %prol.iter1028.cmp = icmp eq i64 %prol.iter1028.sub, 0, !dbg !3026
  br i1 %prol.iter1028.cmp, label %for.body205.prol.loopexit.unr-lcssa, label %for.body205.prol, !dbg !3026, !llvm.loop !3033

for.body205.prol.loopexit.unr-lcssa:              ; preds = %for.body205.prol
  br label %for.body205.prol.loopexit, !dbg !3028

for.body205.prol.loopexit:                        ; preds = %for.body205.preheader, %for.body205.prol.loopexit.unr-lcssa
  %add212.lcssa.unr = phi i32 [ undef, %for.body205.preheader ], [ %add212.prol, %for.body205.prol.loopexit.unr-lcssa ]
  %.unr1029 = phi i32 [ 0, %for.body205.preheader ], [ %add212.prol, %for.body205.prol.loopexit.unr-lcssa ]
  %indvars.iv851.unr = phi i64 [ 0, %for.body205.preheader ], [ %indvars.iv.next852.prol, %for.body205.prol.loopexit.unr-lcssa ]
  br i1 %124, label %for.cond.cleanup, label %for.body205.preheader.new, !dbg !3028

for.body205.preheader.new:                        ; preds = %for.body205.prol.loopexit
  br label %for.body205, !dbg !3028

for.cond.cleanup.unr-lcssa:                       ; preds = %for.body205
  br label %for.cond.cleanup, !dbg !3034

for.cond.cleanup:                                 ; preds = %for.body205.prol.loopexit, %for.cond.cleanup.unr-lcssa
  %add212.lcssa = phi i32 [ %add212.lcssa.unr, %for.body205.prol.loopexit ], [ %add212.3, %for.cond.cleanup.unr-lcssa ]
  %cmp218 = icmp sgt i32 %add212.lcssa, 0, !dbg !3034
  br i1 %cmp218, label %if.then219, label %if.end221, !dbg !3035

for.body205:                                      ; preds = %for.body205, %for.body205.preheader.new
  %129 = phi i32 [ %.unr1029, %for.body205.preheader.new ], [ %add212.3, %for.body205 ], !dbg !3030
  %indvars.iv851 = phi i64 [ %indvars.iv851.unr, %for.body205.preheader.new ], [ %indvars.iv.next852.3, %for.body205 ]
  %arrayidx207 = getelementptr inbounds i32*, i32** %122, i64 %indvars.iv851, !dbg !3028
  %130 = load i32*, i32** %arrayidx207, align 8, !dbg !3028, !tbaa !1536
  %arrayidx209 = getelementptr inbounds i32, i32* %130, i64 %indvars.iv855, !dbg !3028
  %131 = load i32, i32* %arrayidx209, align 4, !dbg !3028, !tbaa !1525
  %add212 = add nsw i32 %129, %131, !dbg !3030
  store i32 %add212, i32* %arrayidx201, align 4, !dbg !3030, !tbaa !1525
  %indvars.iv.next852 = add nuw nsw i64 %indvars.iv851, 1, !dbg !3031
  %arrayidx207.1 = getelementptr inbounds i32*, i32** %122, i64 %indvars.iv.next852, !dbg !3028
  %132 = load i32*, i32** %arrayidx207.1, align 8, !dbg !3028, !tbaa !1536
  %arrayidx209.1 = getelementptr inbounds i32, i32* %132, i64 %indvars.iv855, !dbg !3028
  %133 = load i32, i32* %arrayidx209.1, align 4, !dbg !3028, !tbaa !1525
  %add212.1 = add nsw i32 %add212, %133, !dbg !3030
  store i32 %add212.1, i32* %arrayidx201, align 4, !dbg !3030, !tbaa !1525
  %indvars.iv.next852.1 = add nsw i64 %indvars.iv851, 2, !dbg !3031
  %arrayidx207.2 = getelementptr inbounds i32*, i32** %122, i64 %indvars.iv.next852.1, !dbg !3028
  %134 = load i32*, i32** %arrayidx207.2, align 8, !dbg !3028, !tbaa !1536
  %arrayidx209.2 = getelementptr inbounds i32, i32* %134, i64 %indvars.iv855, !dbg !3028
  %135 = load i32, i32* %arrayidx209.2, align 4, !dbg !3028, !tbaa !1525
  %add212.2 = add nsw i32 %add212.1, %135, !dbg !3030
  store i32 %add212.2, i32* %arrayidx201, align 4, !dbg !3030, !tbaa !1525
  %indvars.iv.next852.2 = add nsw i64 %indvars.iv851, 3, !dbg !3031
  %arrayidx207.3 = getelementptr inbounds i32*, i32** %122, i64 %indvars.iv.next852.2, !dbg !3028
  %136 = load i32*, i32** %arrayidx207.3, align 8, !dbg !3028, !tbaa !1536
  %arrayidx209.3 = getelementptr inbounds i32, i32* %136, i64 %indvars.iv855, !dbg !3028
  %137 = load i32, i32* %arrayidx209.3, align 4, !dbg !3028, !tbaa !1525
  %add212.3 = add nsw i32 %add212.2, %137, !dbg !3030
  store i32 %add212.3, i32* %arrayidx201, align 4, !dbg !3030, !tbaa !1525
  %indvars.iv.next852.3 = add nsw i64 %indvars.iv851, 4, !dbg !3031
  %exitcond854.3 = icmp eq i64 %indvars.iv.next852.3, %wide.trip.count853, !dbg !3036
  br i1 %exitcond854.3, label %for.cond.cleanup.unr-lcssa, label %for.body205, !dbg !3026, !llvm.loop !3038

if.then219:                                       ; preds = %for.cond.cleanup
  %inc220 = add nsw i32 %125, 1, !dbg !3021
  store i32 %inc220, i32* @numusefulntype, align 4, !dbg !3021, !tbaa !1525
  br label %if.end221, !dbg !3041

if.end221:                                        ; preds = %for.body199, %if.then219, %for.cond.cleanup
  %138 = phi i32 [ %add212.lcssa, %if.then219 ], [ %add212.lcssa, %for.cond.cleanup ], [ 0, %for.body199 ]
  %139 = phi i32 [ %inc220, %if.then219 ], [ %125, %for.cond.cleanup ], [ %125, %for.body199 ]
  %arrayidx223 = getelementptr inbounds i32, i32* %.cast, i64 %indvars.iv855, !dbg !3042
  store i32 %sumworkload.0725, i32* %arrayidx223, align 4, !dbg !3043, !tbaa !1525
  %arrayidx225 = getelementptr inbounds i32, i32* %121, i64 %indvars.iv855, !dbg !3044
  store i32 %sumworkload.0725, i32* %arrayidx225, align 4, !dbg !3045, !tbaa !1525
  %add228 = add nsw i32 %138, %sumworkload.0725, !dbg !3046
  tail call void @llvm.dbg.value(metadata i32 %add228, i64 0, metadata !2732, metadata !1520), !dbg !3010
  %arrayidx230 = getelementptr inbounds i32, i32* %.cast802, i64 %indvars.iv855, !dbg !3047
  store i32 %add228, i32* %arrayidx230, align 4, !dbg !3048, !tbaa !1525
  %indvars.iv.next856 = add nuw nsw i64 %indvars.iv855, 1, !dbg !3049
  tail call void @llvm.dbg.value(metadata i32 %add228, i64 0, metadata !2732, metadata !1520), !dbg !3010
  %exitcond857 = icmp eq i64 %indvars.iv.next856, 65536, !dbg !3051
  br i1 %exitcond857, label %for.end233, label %for.body199, !dbg !3019, !llvm.loop !3053

for.end233:                                       ; preds = %if.end221
  %shl234 = shl i32 1, %6, !dbg !3056
  tail call void @llvm.dbg.value(metadata i32 %shl234, i64 0, metadata !2741, metadata !1520), !dbg !3057
  %140 = load %class.Fnode***, %class.Fnode**** @hashtable, align 8, !dbg !3058, !tbaa !1536
  %141 = load %class.Fnode**, %class.Fnode*** %140, align 8, !dbg !3058, !tbaa !1536
  tail call void @llvm.dbg.value(metadata %class.Fnode** %141, i64 0, metadata !2745, metadata !1520), !dbg !3059
  %142 = load i32**, i32*** @hot_node_count, align 8, !dbg !3060, !tbaa !1536
  %143 = load i32*, i32** %142, align 8, !dbg !3060, !tbaa !1536
  tail call void @llvm.dbg.value(metadata i32* %143, i64 0, metadata !2746, metadata !1520), !dbg !3061
  %144 = tail call { i64, i1 } @llvm.umul.with.overflow.i64(i64 %0, i64 8), !dbg !3062
  %145 = extractvalue { i64, i1 } %144, 1, !dbg !3062
  %146 = extractvalue { i64, i1 } %144, 0, !dbg !3062
  %147 = select i1 %145, i64 -1, i64 %146, !dbg !3062
  %call239 = tail call i8* @_Znam(i64 %147) #14, !dbg !3062
  store i8* %call239, i8** bitcast (i32*** @threadworkload to i8**), align 8, !dbg !3063, !tbaa !1536
  %call240 = tail call i8* @_Znam(i64 %4) #14, !dbg !3064
  store i8* %call240, i8** bitcast (i32** @threadworkloadnum to i8**), align 8, !dbg !3065, !tbaa !1536
  tail call void @llvm.dbg.value(metadata i32 0, i64 0, metadata !2742, metadata !1520), !dbg !3066
  tail call void @llvm.dbg.value(metadata i32 0, i64 0, metadata !2742, metadata !1520), !dbg !3066
  br i1 %cmp800, label %for.body243.preheader, label %for.cond253.preheader, !dbg !3067

for.body243.preheader:                            ; preds = %for.end233
  %148 = bitcast i8* %call240 to i32*, !dbg !3067
  %wide.trip.count849 = zext i32 %workingthread to i64
  store i32 0, i32* %148, align 4, !dbg !3070, !tbaa !1525
  %call246952 = tail call i8* @_Znam(i64 262144) #14, !dbg !3073
  %149 = bitcast i8* %call239 to i8**, !dbg !3074
  store i8* %call246952, i8** %149, align 8, !dbg !3074, !tbaa !1536
  %exitcond850953 = icmp eq i32 %workingthread, 1, !dbg !3075
  br i1 %exitcond850953, label %for.cond253.preheader, label %for.body243.for.body243_crit_edge.preheader, !dbg !3067, !llvm.loop !3077

for.body243.for.body243_crit_edge.preheader:      ; preds = %for.body243.preheader
  br label %for.body243.for.body243_crit_edge

for.cond253.preheader.loopexit:                   ; preds = %for.body243.for.body243_crit_edge
  br label %for.cond253.preheader, !dbg !3080

for.cond253.preheader:                            ; preds = %for.cond253.preheader.loopexit, %for.body243.preheader, %for.end233
  %cmp254719 = icmp sgt i32 %shl234, 1, !dbg !3080
  br i1 %cmp254719, label %for.cond256.preheader.lr.ph, label %for.end319, !dbg !3084

for.cond256.preheader.lr.ph:                      ; preds = %for.cond253.preheader
  %cmp257716 = icmp sgt i32 %workingthread, 1
  %150 = sext i32 %shl234 to i64, !dbg !3084
  %wide.trip.count843 = zext i32 %workingthread to i64
  %151 = and i64 %wide.trip.count843, 1
  %lcmp.mod1025 = icmp eq i64 %151, 0
  %152 = icmp eq i32 %workingthread, 2
  br label %for.cond256.preheader, !dbg !3084

for.body243.for.body243_crit_edge:                ; preds = %for.body243.for.body243_crit_edge.preheader, %for.body243.for.body243_crit_edge
  %indvars.iv.next848954 = phi i64 [ %indvars.iv.next848, %for.body243.for.body243_crit_edge ], [ 1, %for.body243.for.body243_crit_edge.preheader ]
  %.pre886 = load i32*, i32** @threadworkloadnum, align 8, !tbaa !1536
  %.pre887 = load i32**, i32*** @threadworkload, align 8, !tbaa !1536
  %arrayidx245 = getelementptr inbounds i32, i32* %.pre886, i64 %indvars.iv.next848954, !dbg !3086
  store i32 0, i32* %arrayidx245, align 4, !dbg !3070, !tbaa !1525
  %call246 = tail call i8* @_Znam(i64 262144) #14, !dbg !3073
  %arrayidx248 = getelementptr inbounds i32*, i32** %.pre887, i64 %indvars.iv.next848954, !dbg !3087
  %153 = bitcast i32** %arrayidx248 to i8**, !dbg !3074
  store i8* %call246, i8** %153, align 8, !dbg !3074, !tbaa !1536
  %indvars.iv.next848 = add nuw nsw i64 %indvars.iv.next848954, 1, !dbg !3088
  %exitcond850 = icmp eq i64 %indvars.iv.next848, %wide.trip.count849, !dbg !3075
  br i1 %exitcond850, label %for.cond253.preheader.loopexit, label %for.body243.for.body243_crit_edge, !dbg !3067, !llvm.loop !3077

for.cond256.preheader:                            ; preds = %for.cond256.preheader.lr.ph, %for.cond253.backedge
  %indvars.iv845 = phi i64 [ %150, %for.cond256.preheader.lr.ph ], [ %indvars.iv.next846, %for.cond253.backedge ]
  %indvars.iv.next846 = add nsw i64 %indvars.iv845, -1
  tail call void @llvm.dbg.value(metadata i32 1, i64 0, metadata !2742, metadata !1520), !dbg !3066
  br i1 %cmp257716, label %for.body258.lr.ph, label %for.cond256.preheader.for.end272_crit_edge, !dbg !3090

for.cond256.preheader.for.end272_crit_edge:       ; preds = %for.cond256.preheader
  %.pre891 = getelementptr inbounds i32, i32* %143, i64 %indvars.iv.next846, !dbg !3094
  br label %for.end272, !dbg !3090

for.body258.lr.ph:                                ; preds = %for.cond256.preheader
  %154 = load i32**, i32*** @hot_node_count, align 8, !tbaa !1536
  %arrayidx264 = getelementptr inbounds i32, i32* %143, i64 %indvars.iv.next846
  br i1 %lcmp.mod1025, label %for.body258.prol.preheader, label %for.body258.prol.loopexit.unr-lcssa, !dbg !3090

for.body258.prol.preheader:                       ; preds = %for.body258.lr.ph
  br label %for.body258.prol, !dbg !3090

for.body258.prol:                                 ; preds = %for.body258.prol.preheader
  %arrayidx260.prol = getelementptr inbounds i32*, i32** %154, i64 1, !dbg !3096
  %155 = load i32*, i32** %arrayidx260.prol, align 8, !dbg !3096, !tbaa !1536
  %arrayidx262.prol = getelementptr inbounds i32, i32* %155, i64 %indvars.iv.next846, !dbg !3096
  %156 = load i32, i32* %arrayidx262.prol, align 4, !dbg !3096, !tbaa !1525
  %157 = load i32, i32* %arrayidx264, align 4, !dbg !3099, !tbaa !1525
  %add265.prol = add nsw i32 %157, %156, !dbg !3099
  store i32 %add265.prol, i32* %arrayidx264, align 4, !dbg !3099, !tbaa !1525
  store i32 0, i32* %arrayidx262.prol, align 4, !dbg !3100, !tbaa !1525
  br label %for.body258.prol.loopexit.unr-lcssa, !dbg !3090

for.body258.prol.loopexit.unr-lcssa:              ; preds = %for.body258.lr.ph, %for.body258.prol
  %indvars.iv841.unr.ph = phi i64 [ 2, %for.body258.prol ], [ 1, %for.body258.lr.ph ]
  br label %for.body258.prol.loopexit, !dbg !3090

for.body258.prol.loopexit:                        ; preds = %for.body258.prol.loopexit.unr-lcssa
  br i1 %152, label %for.end272.loopexit, label %for.body258.lr.ph.new, !dbg !3090

for.body258.lr.ph.new:                            ; preds = %for.body258.prol.loopexit
  br label %for.body258, !dbg !3090

for.body258:                                      ; preds = %for.body258, %for.body258.lr.ph.new
  %indvars.iv841 = phi i64 [ %indvars.iv841.unr.ph, %for.body258.lr.ph.new ], [ %indvars.iv.next842.1, %for.body258 ]
  %arrayidx260 = getelementptr inbounds i32*, i32** %154, i64 %indvars.iv841, !dbg !3096
  %158 = load i32*, i32** %arrayidx260, align 8, !dbg !3096, !tbaa !1536
  %arrayidx262 = getelementptr inbounds i32, i32* %158, i64 %indvars.iv.next846, !dbg !3096
  %159 = load i32, i32* %arrayidx262, align 4, !dbg !3096, !tbaa !1525
  %160 = load i32, i32* %arrayidx264, align 4, !dbg !3099, !tbaa !1525
  %add265 = add nsw i32 %160, %159, !dbg !3099
  store i32 %add265, i32* %arrayidx264, align 4, !dbg !3099, !tbaa !1525
  store i32 0, i32* %arrayidx262, align 4, !dbg !3100, !tbaa !1525
  %indvars.iv.next842 = add nuw nsw i64 %indvars.iv841, 1, !dbg !3101
  %arrayidx260.1 = getelementptr inbounds i32*, i32** %154, i64 %indvars.iv.next842, !dbg !3096
  %161 = load i32*, i32** %arrayidx260.1, align 8, !dbg !3096, !tbaa !1536
  %arrayidx262.1 = getelementptr inbounds i32, i32* %161, i64 %indvars.iv.next846, !dbg !3096
  %162 = load i32, i32* %arrayidx262.1, align 4, !dbg !3096, !tbaa !1525
  %163 = load i32, i32* %arrayidx264, align 4, !dbg !3099, !tbaa !1525
  %add265.1 = add nsw i32 %163, %162, !dbg !3099
  store i32 %add265.1, i32* %arrayidx264, align 4, !dbg !3099, !tbaa !1525
  store i32 0, i32* %arrayidx262.1, align 4, !dbg !3100, !tbaa !1525
  %indvars.iv.next842.1 = add nsw i64 %indvars.iv841, 2, !dbg !3101
  %exitcond844.1 = icmp eq i64 %indvars.iv.next842.1, %wide.trip.count843, !dbg !3103
  br i1 %exitcond844.1, label %for.end272.loopexit.unr-lcssa, label %for.body258, !dbg !3090, !llvm.loop !3105

for.end272.loopexit.unr-lcssa:                    ; preds = %for.body258
  br label %for.end272.loopexit, !dbg !3094

for.end272.loopexit:                              ; preds = %for.body258.prol.loopexit, %for.end272.loopexit.unr-lcssa
  br label %for.end272, !dbg !3094

for.end272:                                       ; preds = %for.end272.loopexit, %for.cond256.preheader.for.end272_crit_edge
  %arrayidx274.pre-phi = phi i32* [ %.pre891, %for.cond256.preheader.for.end272_crit_edge ], [ %arrayidx264, %for.end272.loopexit ], !dbg !3094
  %164 = load i32, i32* %arrayidx274.pre-phi, align 4, !dbg !3094, !tbaa !1525
  %cmp275 = icmp eq i32 %164, 0, !dbg !3108
  br i1 %cmp275, label %for.cond253.backedge, label %if.end277, !dbg !3109

if.end277:                                        ; preds = %for.end272
  %165 = load %class.memory**, %class.memory*** @fp_tree_buf, align 8, !dbg !3110, !tbaa !1536
  %166 = load %class.memory*, %class.memory** %165, align 8, !dbg !3110, !tbaa !1536
  %call279 = tail call i8* @_ZN6memory6newbufEjj(%class.memory* %166, i32 1, i32 24), !dbg !3111
  %167 = load i32*, i32** @hot_node_index, align 8, !dbg !3112, !tbaa !1536
  %arrayidx281 = getelementptr inbounds i32, i32* %167, i64 %indvars.iv.next846, !dbg !3112
  %168 = load i32, i32* %arrayidx281, align 4, !dbg !3112, !tbaa !1525
  %itemname = getelementptr inbounds i8, i8* %call279, i64 20, !dbg !3113
  %169 = bitcast i8* %itemname to i32*, !dbg !3113
  store i32 %168, i32* %169, align 4, !dbg !3114, !tbaa !2627
  call void @llvm.memset.p0i8.i64(i8* %call279, i8 0, i64 16, i32 8, i1 false), !dbg !3115
  %170 = load i32, i32* %arrayidx274.pre-phi, align 4, !dbg !3116, !tbaa !1525
  %count = getelementptr inbounds i8, i8* %call279, i64 16, !dbg !3117
  %171 = bitcast i8* %count to i32*, !dbg !3117
  store i32 %170, i32* %171, align 8, !dbg !3118, !tbaa !3119
  %arrayidx285 = getelementptr inbounds %class.Fnode*, %class.Fnode** %141, i64 %indvars.iv.next846, !dbg !3120
  %172 = bitcast %class.Fnode** %arrayidx285 to i8**, !dbg !3121
  store i8* %call279, i8** %172, align 8, !dbg !3121, !tbaa !1536
  %173 = load i32*, i32** @hot_node_index, align 8, !dbg !3122, !tbaa !1536
  %arrayidx287 = getelementptr inbounds i32, i32* %173, i64 %indvars.iv.next846, !dbg !3122
  %174 = load i32, i32* %arrayidx287, align 4, !dbg !3122, !tbaa !1525
  tail call void @llvm.dbg.value(metadata i32 %174, i64 0, metadata !2743, metadata !1520), !dbg !3123
  %shl288 = shl i32 1, %174, !dbg !3124
  %175 = trunc i64 %indvars.iv.next846 to i32, !dbg !3125
  %xor = xor i32 %shl288, %175, !dbg !3125
  tail call void @llvm.dbg.value(metadata i32 %xor, i64 0, metadata !2744, metadata !1520), !dbg !3126
  %176 = load i32, i32* %arrayidx274.pre-phi, align 4, !dbg !3127, !tbaa !1525
  %idxprom291 = sext i32 %xor to i64, !dbg !3128
  %arrayidx292 = getelementptr inbounds i32, i32* %143, i64 %idxprom291, !dbg !3128
  %177 = load i32, i32* %arrayidx292, align 4, !dbg !3129, !tbaa !1525
  %add293 = add nsw i32 %177, %176, !dbg !3129
  store i32 %add293, i32* %arrayidx292, align 4, !dbg !3129, !tbaa !1525
  store i32 0, i32* %arrayidx274.pre-phi, align 4, !dbg !3130, !tbaa !1525
  %arrayidx297 = getelementptr inbounds [65536 x i32], [65536 x i32]* @sumntype, i64 0, i64 %indvars.iv.next846, !dbg !3131
  %178 = load i32, i32* %arrayidx297, align 4, !dbg !3131, !tbaa !1525
  %cmp298 = icmp eq i32 %178, 0, !dbg !3133
  br i1 %cmp298, label %if.then299, label %for.cond253.backedge, !dbg !3134

for.cond253.backedge:                             ; preds = %if.end277, %if.then299, %for.end272
  %cmp254 = icmp sgt i64 %indvars.iv.next846, 1, !dbg !3080
  br i1 %cmp254, label %for.cond256.preheader, label %for.end319.loopexit, !dbg !3084, !llvm.loop !3135

if.then299:                                       ; preds = %if.end277
  %179 = load i32**, i32*** @threadworkload, align 8, !dbg !3138, !tbaa !1536
  %180 = load i32*, i32** %179, align 8, !dbg !3138, !tbaa !1536
  %181 = load i32*, i32** @threadworkloadnum, align 8, !dbg !3140, !tbaa !1536
  %182 = load i32, i32* %181, align 4, !dbg !3140, !tbaa !1525
  %idxprom302 = sext i32 %182 to i64, !dbg !3138
  %arrayidx303 = getelementptr inbounds i32, i32* %180, i64 %idxprom302, !dbg !3138
  store i32 %175, i32* %arrayidx303, align 4, !dbg !3141, !tbaa !1525
  %183 = load i32, i32* %181, align 4, !dbg !3142, !tbaa !1525
  %inc305 = add nsw i32 %183, 1, !dbg !3142
  store i32 %inc305, i32* %181, align 4, !dbg !3142, !tbaa !1525
  %184 = load i32**, i32*** @global_nodenum, align 8, !dbg !3143, !tbaa !1536
  %185 = load i32*, i32** %184, align 8, !dbg !3143, !tbaa !1536
  %idxprom307 = sext i32 %174 to i64, !dbg !3143
  %arrayidx308 = getelementptr inbounds i32, i32* %185, i64 %idxprom307, !dbg !3143
  %186 = load i32, i32* %arrayidx308, align 4, !dbg !3144, !tbaa !1525
  %inc309 = add nsw i32 %186, 1, !dbg !3144
  store i32 %inc309, i32* %arrayidx308, align 4, !dbg !3144, !tbaa !1525
  %187 = load i32*, i32** @hot_node_depth, align 8, !dbg !3145, !tbaa !1536
  %arrayidx311 = getelementptr inbounds i32, i32* %187, i64 %indvars.iv.next846, !dbg !3145
  %188 = load i32, i32* %arrayidx311, align 4, !dbg !3145, !tbaa !1525
  %add312 = add nsw i32 %188, 1, !dbg !3146
  %189 = load i32**, i32*** @new_data_num, align 8, !dbg !3147, !tbaa !1536
  %190 = load i32*, i32** %189, align 8, !dbg !3147, !tbaa !1536
  %191 = load i32, i32* %190, align 4, !dbg !3148, !tbaa !1525
  %add315 = add nsw i32 %add312, %191, !dbg !3148
  store i32 %add315, i32* %190, align 4, !dbg !3148, !tbaa !1525
  br label %for.cond253.backedge, !dbg !3149

for.end319.loopexit:                              ; preds = %for.cond253.backedge
  br label %for.end319, !dbg !3150

for.end319:                                       ; preds = %for.end319.loopexit, %for.cond253.preheader
  %192 = load %class.memory*, %class.memory** @database_buf, align 8, !dbg !3150, !tbaa !1536
  %mul = shl i32 %add228, 1, !dbg !3151
  %call322 = tail call i8* @_ZN6memory6newbufEjj(%class.memory* %192, i32 1, i32 %mul), !dbg !3152
  store i8* %call322, i8** bitcast (i16** @threadtranscontent to i8**), align 8, !dbg !3153, !tbaa !1536
  tail call void @_Z4sortPiS_ii(i32* getelementptr inbounds ([65536 x i32], [65536 x i32]* @sumntype, i64 0, i64 0), i32* getelementptr inbounds ([65536 x i32], [65536 x i32]* @ntypeidarray, i64 0, i64 0), i32 0, i32 65535), !dbg !3154
  %div = sdiv i32 %add228, 512, !dbg !3155
  tail call void @llvm.dbg.value(metadata i32 %div, i64 0, metadata !2733, metadata !1520), !dbg !3012
  tail call void @llvm.dbg.value(metadata i32 0, i64 0, metadata !2735, metadata !1520), !dbg !3156
  store i32 0, i32* getelementptr inbounds ([65536 x i32], [65536 x i32]* @mergedworkbase, i64 0, i64 0), align 16, !dbg !3157, !tbaa !1525
  store i32 0, i32* @mergedworknum, align 4, !dbg !3158, !tbaa !1525
  tail call void @llvm.dbg.value(metadata i32 0, i64 0, metadata !2700, metadata !1520), !dbg !2769
  tail call void @llvm.dbg.value(metadata i32 0, i64 0, metadata !2700, metadata !1520), !dbg !2769
  tail call void @llvm.dbg.value(metadata i32 0, i64 0, metadata !2735, metadata !1520), !dbg !3156
  %193 = load i32, i32* @numusefulntype, align 4, !dbg !3159, !tbaa !1525
  %cmp324713 = icmp sgt i32 %193, 0, !dbg !3163
  br i1 %cmp324713, label %for.body325.lr.ph, label %for.end341, !dbg !3164

for.body325.lr.ph:                                ; preds = %for.end319
  %194 = sext i32 %193 to i64, !dbg !3164
  %xtraiter1022 = and i64 %194, 1, !dbg !3164
  %lcmp.mod1023 = icmp eq i64 %xtraiter1022, 0, !dbg !3164
  br i1 %lcmp.mod1023, label %for.body325.prol.loopexit, label %for.body325.prol.preheader, !dbg !3164

for.body325.prol.preheader:                       ; preds = %for.body325.lr.ph
  br label %for.body325.prol, !dbg !3164

for.body325.prol:                                 ; preds = %for.body325.prol.preheader
  %195 = load i32, i32* getelementptr inbounds ([65536 x i32], [65536 x i32]* @sumntype, i64 0, i64 0), align 16, !dbg !3166, !tbaa !1525
  tail call void @llvm.dbg.value(metadata i32 %195, i64 0, metadata !2735, metadata !1520), !dbg !3156
  %cmp329.prol = icmp slt i32 %195, %div, !dbg !3168
  br i1 %cmp329.prol, label %for.inc339.prol, label %if.then330.prol, !dbg !3170

if.then330.prol:                                  ; preds = %for.body325.prol
  store i32 1, i32* getelementptr inbounds ([65536 x i32], [65536 x i32]* @mergedworkend, i64 0, i64 0), align 16, !dbg !3171, !tbaa !1525
  store i32 1, i32* @mergedworknum, align 4, !dbg !3173, !tbaa !1525
  store i32 1, i32* getelementptr inbounds ([65536 x i32], [65536 x i32]* @mergedworkbase, i64 0, i64 1), align 4, !dbg !3174, !tbaa !1525
  tail call void @llvm.dbg.value(metadata i32 0, i64 0, metadata !2735, metadata !1520), !dbg !3156
  br label %for.inc339.prol, !dbg !3175

for.inc339.prol:                                  ; preds = %if.then330.prol, %for.body325.prol
  %196 = phi i32 [ 1, %if.then330.prol ], [ 0, %for.body325.prol ]
  %tempworkload.1.prol = phi i32 [ 0, %if.then330.prol ], [ %195, %for.body325.prol ]
  tail call void @llvm.dbg.value(metadata i32 %tempworkload.1.prol, i64 0, metadata !2735, metadata !1520), !dbg !3156
  tail call void @llvm.dbg.value(metadata i32 %tempworkload.1.prol, i64 0, metadata !2735, metadata !1520), !dbg !3156
  br label %for.body325.prol.loopexit, !dbg !3164

for.body325.prol.loopexit:                        ; preds = %for.body325.lr.ph, %for.inc339.prol
  %.unr = phi i32 [ 0, %for.body325.lr.ph ], [ %196, %for.inc339.prol ]
  %indvars.iv838.unr = phi i64 [ 0, %for.body325.lr.ph ], [ 1, %for.inc339.prol ]
  %tempworkload.0714.unr = phi i32 [ 0, %for.body325.lr.ph ], [ %tempworkload.1.prol, %for.inc339.prol ]
  %.lcssa.unr = phi i32 [ undef, %for.body325.lr.ph ], [ %196, %for.inc339.prol ]
  %197 = icmp eq i32 %193, 1, !dbg !3164
  br i1 %197, label %for.end341.loopexit, label %for.body325.lr.ph.new, !dbg !3164

for.body325.lr.ph.new:                            ; preds = %for.body325.prol.loopexit
  br label %for.body325, !dbg !3164

for.body325:                                      ; preds = %for.inc339.1, %for.body325.lr.ph.new
  %198 = phi i32 [ %.unr, %for.body325.lr.ph.new ], [ %260, %for.inc339.1 ], !dbg !3176
  %indvars.iv838 = phi i64 [ %indvars.iv838.unr, %for.body325.lr.ph.new ], [ %.pre892.1, %for.inc339.1 ]
  %tempworkload.0714 = phi i32 [ %tempworkload.0714.unr, %for.body325.lr.ph.new ], [ %tempworkload.1.1, %for.inc339.1 ]
  %arrayidx327 = getelementptr inbounds [65536 x i32], [65536 x i32]* @sumntype, i64 0, i64 %indvars.iv838, !dbg !3166
  %199 = load i32, i32* %arrayidx327, align 4, !dbg !3166, !tbaa !1525
  %add328 = add nsw i32 %199, %tempworkload.0714, !dbg !3177
  tail call void @llvm.dbg.value(metadata i32 %add328, i64 0, metadata !2735, metadata !1520), !dbg !3156
  %cmp329 = icmp slt i32 %add328, %div, !dbg !3168
  %.pre892 = add nuw nsw i64 %indvars.iv838, 1
  br i1 %cmp329, label %for.inc339, label %if.then330, !dbg !3170

if.then330:                                       ; preds = %for.body325
  %idxprom332 = sext i32 %198 to i64, !dbg !3178
  %arrayidx333 = getelementptr inbounds [65536 x i32], [65536 x i32]* @mergedworkend, i64 0, i64 %idxprom332, !dbg !3178
  %200 = trunc i64 %.pre892 to i32, !dbg !3171
  store i32 %200, i32* %arrayidx333, align 4, !dbg !3171, !tbaa !1525
  %inc334 = add nsw i32 %198, 1, !dbg !3173
  store i32 %inc334, i32* @mergedworknum, align 4, !dbg !3173, !tbaa !1525
  %idxprom336 = sext i32 %inc334 to i64, !dbg !3179
  %arrayidx337 = getelementptr inbounds [65536 x i32], [65536 x i32]* @mergedworkbase, i64 0, i64 %idxprom336, !dbg !3179
  store i32 %200, i32* %arrayidx337, align 4, !dbg !3174, !tbaa !1525
  tail call void @llvm.dbg.value(metadata i32 0, i64 0, metadata !2735, metadata !1520), !dbg !3156
  br label %for.inc339, !dbg !3175

for.inc339:                                       ; preds = %for.body325, %if.then330
  %201 = phi i32 [ %inc334, %if.then330 ], [ %198, %for.body325 ]
  %tempworkload.1 = phi i32 [ 0, %if.then330 ], [ %add328, %for.body325 ]
  tail call void @llvm.dbg.value(metadata i32 %tempworkload.1, i64 0, metadata !2735, metadata !1520), !dbg !3156
  tail call void @llvm.dbg.value(metadata i32 %tempworkload.1, i64 0, metadata !2735, metadata !1520), !dbg !3156
  %arrayidx327.1 = getelementptr inbounds [65536 x i32], [65536 x i32]* @sumntype, i64 0, i64 %.pre892, !dbg !3166
  %202 = load i32, i32* %arrayidx327.1, align 4, !dbg !3166, !tbaa !1525
  %add328.1 = add nsw i32 %202, %tempworkload.1, !dbg !3177
  tail call void @llvm.dbg.value(metadata i32 %add328, i64 0, metadata !2735, metadata !1520), !dbg !3156
  %cmp329.1 = icmp slt i32 %add328.1, %div, !dbg !3168
  %.pre892.1 = add nsw i64 %indvars.iv838, 2
  br i1 %cmp329.1, label %for.inc339.1, label %if.then330.1, !dbg !3170

for.end341.loopexit.unr-lcssa:                    ; preds = %for.inc339.1
  %phitmp = trunc i64 %.pre892.1 to i32, !dbg !3180
  br label %for.end341.loopexit, !dbg !3180

for.end341.loopexit:                              ; preds = %for.body325.prol.loopexit, %for.end341.loopexit.unr-lcssa
  %.pre892.lcssa = phi i32 [ 1, %for.body325.prol.loopexit ], [ %phitmp, %for.end341.loopexit.unr-lcssa ]
  %.lcssa = phi i32 [ %.lcssa.unr, %for.body325.prol.loopexit ], [ %260, %for.end341.loopexit.unr-lcssa ]
  br label %for.end341, !dbg !3180

for.end341:                                       ; preds = %for.end341.loopexit, %for.end319
  %203 = phi i32 [ 0, %for.end319 ], [ %.lcssa, %for.end341.loopexit ], !dbg !3180
  %i.5.lcssa = phi i32 [ 0, %for.end319 ], [ %.pre892.lcssa, %for.end341.loopexit ]
  %idxprom342 = sext i32 %203 to i64, !dbg !3181
  %arrayidx343 = getelementptr inbounds [65536 x i32], [65536 x i32]* @mergedworkend, i64 0, i64 %idxprom342, !dbg !3181
  store i32 %i.5.lcssa, i32* %arrayidx343, align 4, !dbg !3182, !tbaa !1525
  %inc344 = add nsw i32 %203, 1, !dbg !3183
  store i32 %inc344, i32* @mergedworknum, align 4, !dbg !3183, !tbaa !1525
  tail call void @llvm.dbg.value(metadata i32 0, i64 0, metadata !2733, metadata !1520), !dbg !3012
  tail call void @llvm.dbg.value(metadata i32 0, i64 0, metadata !2742, metadata !1520), !dbg !3066
  tail call void @llvm.dbg.value(metadata i32 0, i64 0, metadata !2700, metadata !1520), !dbg !2769
  tail call void @llvm.dbg.value(metadata i32 0, i64 0, metadata !2700, metadata !1520), !dbg !2769
  %204 = load i32**, i32*** @ntypearray, align 8
  %205 = load i32**, i32*** @threadntypeoffsetiter, align 8
  %wide.trip.count833 = zext i32 %workingthread to i64
  %xtraiter1020 = and i64 %wide.trip.count833, 1
  %lcmp.mod1021 = icmp eq i64 %xtraiter1020, 0
  %206 = icmp eq i32 %workingthread, 1
  br label %for.cond349.preheader, !dbg !3184

for.cond349.preheader:                            ; preds = %for.inc375, %for.end341
  %indvars.iv835 = phi i64 [ 0, %for.end341 ], [ %indvars.iv.next836, %for.inc375 ]
  tail call void @llvm.dbg.value(metadata i32 0, i64 0, metadata !2742, metadata !1520), !dbg !3066
  br i1 %cmp800, label %for.body351.lr.ph, label %for.inc375, !dbg !3187

for.body351.lr.ph:                                ; preds = %for.cond349.preheader
  %arrayidx359 = getelementptr inbounds i32, i32* %121, i64 %indvars.iv835
  br i1 %lcmp.mod1021, label %for.body351.prol.loopexit.unr-lcssa, label %for.body351.prol.preheader, !dbg !3187

for.body351.prol.preheader:                       ; preds = %for.body351.lr.ph
  br label %for.body351.prol, !dbg !3187

for.body351.prol:                                 ; preds = %for.body351.prol.preheader
  %207 = load i32*, i32** %204, align 8, !dbg !3191, !tbaa !1536
  %arrayidx355.prol = getelementptr inbounds i32, i32* %207, i64 %indvars.iv835, !dbg !3191
  %208 = load i32, i32* %arrayidx355.prol, align 4, !dbg !3191, !tbaa !1525
  %cmp356.prol = icmp sgt i32 %208, 0, !dbg !3195
  br i1 %cmp356.prol, label %if.then357.prol, label %for.inc372.prol, !dbg !3196

if.then357.prol:                                  ; preds = %for.body351.prol
  %209 = load i32, i32* %arrayidx359, align 4, !dbg !3197, !tbaa !1525
  %210 = load i32*, i32** %205, align 8, !dbg !3199, !tbaa !1536
  %arrayidx363.prol = getelementptr inbounds i32, i32* %210, i64 %indvars.iv835, !dbg !3199
  store i32 %209, i32* %arrayidx363.prol, align 4, !dbg !3200, !tbaa !1525
  %211 = load i32, i32* %arrayidx355.prol, align 4, !dbg !3201, !tbaa !1525
  %212 = load i32, i32* %arrayidx359, align 4, !dbg !3202, !tbaa !1525
  %add370.prol = add nsw i32 %212, %211, !dbg !3202
  store i32 %add370.prol, i32* %arrayidx359, align 4, !dbg !3202, !tbaa !1525
  br label %for.inc372.prol, !dbg !3203

for.inc372.prol:                                  ; preds = %if.then357.prol, %for.body351.prol
  br label %for.body351.prol.loopexit.unr-lcssa, !dbg !3187

for.body351.prol.loopexit.unr-lcssa:              ; preds = %for.body351.lr.ph, %for.inc372.prol
  %indvars.iv831.unr.ph = phi i64 [ 1, %for.inc372.prol ], [ 0, %for.body351.lr.ph ]
  br label %for.body351.prol.loopexit, !dbg !3187

for.body351.prol.loopexit:                        ; preds = %for.body351.prol.loopexit.unr-lcssa
  br i1 %206, label %for.inc375.loopexit, label %for.body351.lr.ph.new, !dbg !3187

for.body351.lr.ph.new:                            ; preds = %for.body351.prol.loopexit
  br label %for.body351, !dbg !3187

for.cond378.preheader:                            ; preds = %for.inc375
  tail call void @llvm.dbg.value(metadata i32 0, i64 0, metadata !2700, metadata !1520), !dbg !2769
  br i1 %cmp800, label %for.body380.preheader, label %delete.notnull, !dbg !3204

for.body380.preheader:                            ; preds = %for.cond378.preheader
  %wide.trip.count829 = zext i32 %workingthread to i64
  br label %for.body380, !dbg !3206

for.body351:                                      ; preds = %for.inc372.1, %for.body351.lr.ph.new
  %indvars.iv831 = phi i64 [ %indvars.iv831.unr.ph, %for.body351.lr.ph.new ], [ %indvars.iv.next832.1, %for.inc372.1 ]
  %arrayidx353 = getelementptr inbounds i32*, i32** %204, i64 %indvars.iv831, !dbg !3191
  %213 = load i32*, i32** %arrayidx353, align 8, !dbg !3191, !tbaa !1536
  %arrayidx355 = getelementptr inbounds i32, i32* %213, i64 %indvars.iv835, !dbg !3191
  %214 = load i32, i32* %arrayidx355, align 4, !dbg !3191, !tbaa !1525
  %cmp356 = icmp sgt i32 %214, 0, !dbg !3195
  br i1 %cmp356, label %if.then357, label %for.inc372, !dbg !3196

if.then357:                                       ; preds = %for.body351
  %215 = load i32, i32* %arrayidx359, align 4, !dbg !3197, !tbaa !1525
  %arrayidx361 = getelementptr inbounds i32*, i32** %205, i64 %indvars.iv831, !dbg !3199
  %216 = load i32*, i32** %arrayidx361, align 8, !dbg !3199, !tbaa !1536
  %arrayidx363 = getelementptr inbounds i32, i32* %216, i64 %indvars.iv835, !dbg !3199
  store i32 %215, i32* %arrayidx363, align 4, !dbg !3200, !tbaa !1525
  %217 = load i32, i32* %arrayidx355, align 4, !dbg !3201, !tbaa !1525
  %218 = load i32, i32* %arrayidx359, align 4, !dbg !3202, !tbaa !1525
  %add370 = add nsw i32 %218, %217, !dbg !3202
  store i32 %add370, i32* %arrayidx359, align 4, !dbg !3202, !tbaa !1525
  br label %for.inc372, !dbg !3203

for.inc372:                                       ; preds = %for.body351, %if.then357
  %indvars.iv.next832 = add nuw nsw i64 %indvars.iv831, 1, !dbg !3207
  %arrayidx353.1 = getelementptr inbounds i32*, i32** %204, i64 %indvars.iv.next832, !dbg !3191
  %219 = load i32*, i32** %arrayidx353.1, align 8, !dbg !3191, !tbaa !1536
  %arrayidx355.1 = getelementptr inbounds i32, i32* %219, i64 %indvars.iv835, !dbg !3191
  %220 = load i32, i32* %arrayidx355.1, align 4, !dbg !3191, !tbaa !1525
  %cmp356.1 = icmp sgt i32 %220, 0, !dbg !3195
  br i1 %cmp356.1, label %if.then357.1, label %for.inc372.1, !dbg !3196

for.inc375.loopexit.unr-lcssa:                    ; preds = %for.inc372.1
  br label %for.inc375.loopexit, !dbg !3209

for.inc375.loopexit:                              ; preds = %for.body351.prol.loopexit, %for.inc375.loopexit.unr-lcssa
  br label %for.inc375, !dbg !3209

for.inc375:                                       ; preds = %for.inc375.loopexit, %for.cond349.preheader
  %indvars.iv.next836 = add nuw nsw i64 %indvars.iv835, 1, !dbg !3209
  %exitcond837 = icmp eq i64 %indvars.iv.next836, 65536, !dbg !3211
  br i1 %exitcond837, label %for.cond378.preheader, label %for.cond349.preheader, !dbg !3184, !llvm.loop !3213

for.body380:                                      ; preds = %for.body380.preheader, %while.end422
  %indvars.iv827 = phi i64 [ %indvars.iv.next828, %while.end422 ], [ 0, %for.body380.preheader ]
  %221 = load i32**, i32*** @threadntypeoffsetiter, align 8, !dbg !3206, !tbaa !1536
  %arrayidx387 = getelementptr inbounds i32*, i32** %221, i64 %indvars.iv827, !dbg !3206
  %222 = load i32*, i32** %arrayidx387, align 8, !dbg !3206, !tbaa !1536
  tail call void @llvm.dbg.value(metadata i32* %222, i64 0, metadata !2759, metadata !1520), !dbg !3216
  %223 = load %class.MapFile**, %class.MapFile*** @thread_mapfile, align 8, !dbg !3217, !tbaa !1536
  %arrayidx389 = getelementptr inbounds %class.MapFile*, %class.MapFile** %223, i64 %indvars.iv827, !dbg !3217
  %224 = load %class.MapFile*, %class.MapFile** %arrayidx389, align 8, !dbg !3217, !tbaa !1536
  %first390 = getelementptr inbounds %class.MapFile, %class.MapFile* %224, i64 0, i32 0, !dbg !3218
  %current_mapfilenode.0705 = load %class.MapFileNode*, %class.MapFileNode** %first390, align 8, !tbaa !1536
  tail call void @llvm.dbg.value(metadata %class.MapFileNode* %current_mapfilenode.0705, i64 0, metadata !2748, metadata !1520), !dbg !3219
  %tobool706 = icmp eq %class.MapFileNode* %current_mapfilenode.0705, null, !dbg !3220
  br i1 %tobool706, label %while.end422, label %while.body.preheader, !dbg !3222

while.body.preheader:                             ; preds = %for.body380
  br label %while.body, !dbg !3223

while.body:                                       ; preds = %while.body.preheader, %while.end
  %current_mapfilenode.0707 = phi %class.MapFileNode* [ %current_mapfilenode.0, %while.end ], [ %current_mapfilenode.0705, %while.body.preheader ]
  %top391 = getelementptr inbounds %class.MapFileNode, %class.MapFileNode* %current_mapfilenode.0707, i64 0, i32 2, !dbg !3223
  %225 = load i32, i32* %top391, align 4, !dbg !3223, !tbaa !1852
  tail call void @llvm.dbg.value(metadata i32 %225, i64 0, metadata !2754, metadata !1520), !dbg !3225
  tail call void @llvm.dbg.value(metadata i32 0, i64 0, metadata !2755, metadata !1520), !dbg !3226
  %226 = bitcast %class.MapFileNode* %current_mapfilenode.0707 to i16**, !dbg !3227
  %227 = load i16*, i16** %226, align 8, !dbg !3227, !tbaa !1848
  tail call void @llvm.dbg.value(metadata i16* %227, i64 0, metadata !2752, metadata !1520), !dbg !3228
  tail call void @llvm.dbg.value(metadata i32 0, i64 0, metadata !2755, metadata !1520), !dbg !3226
  %cmp394703 = icmp sgt i32 %225, 0, !dbg !3229
  br i1 %cmp394703, label %while.body395.lr.ph, label %while.end, !dbg !3231

while.body395.lr.ph:                              ; preds = %while.body
  %228 = load i16*, i16** @threadtranscontent, align 8, !tbaa !1536
  %scevgep965 = getelementptr i16, i16* %228, i64 1, !dbg !3231
  %scevgep968 = getelementptr i16, i16* %228, i64 1, !dbg !3231
  %scevgep971 = getelementptr i16, i16* %227, i64 1, !dbg !3231
  %scevgep974 = getelementptr i16, i16* %227, i64 1, !dbg !3231
  br label %while.body395, !dbg !3231

while.cond393.loopexit.loopexit.unr-lcssa:        ; preds = %for.body412.for.body412_crit_edge
  br label %while.cond393.loopexit.loopexit, !dbg !3232

while.cond393.loopexit.loopexit:                  ; preds = %for.body412.for.body412_crit_edge.prol.loopexit, %while.cond393.loopexit.loopexit.unr-lcssa
  br label %while.cond393.loopexit, !dbg !3232

while.cond393.loopexit:                           ; preds = %while.cond393.loopexit.loopexit, %middle.block957, %while.body395
  %229 = zext i16 %232 to i32, !dbg !3232
  %230 = add i32 %234, %229, !dbg !3232
  %cmp394 = icmp slt i32 %230, %225, !dbg !3229
  br i1 %cmp394, label %while.body395, label %while.end.loopexit, !dbg !3231

while.body395:                                    ; preds = %while.body395.lr.ph, %while.cond393.loopexit
  %current_pos.0704 = phi i32 [ 0, %while.body395.lr.ph ], [ %230, %while.cond393.loopexit ]
  %idxprom396 = sext i32 %current_pos.0704 to i64, !dbg !3236
  %arrayidx397 = getelementptr inbounds i16, i16* %227, i64 %idxprom396, !dbg !3236
  %231 = load i16, i16* %arrayidx397, align 2, !dbg !3236, !tbaa !2888
  %inc399 = add nsw i32 %current_pos.0704, 1, !dbg !3237
  tail call void @llvm.dbg.value(metadata i32 %inc399, i64 0, metadata !2755, metadata !1520), !dbg !3226
  %idxprom400 = sext i32 %inc399 to i64, !dbg !3238
  %arrayidx401 = getelementptr inbounds i16, i16* %227, i64 %idxprom400, !dbg !3238
  %232 = load i16, i16* %arrayidx401, align 2, !dbg !3238, !tbaa !2888
  %conv402 = zext i16 %232 to i32, !dbg !3238
  tail call void @llvm.dbg.value(metadata i32 %conv402, i64 0, metadata !2757, metadata !1520), !dbg !3239
  %idxprom403 = zext i16 %231 to i64, !dbg !3240
  %arrayidx404 = getelementptr inbounds i32, i32* %222, i64 %idxprom403, !dbg !3240
  %233 = load i32, i32* %arrayidx404, align 4, !dbg !3240, !tbaa !1525
  %idx.ext = sext i32 %233 to i64, !dbg !3241
  %add.ptr = getelementptr inbounds i16, i16* %228, i64 %idx.ext, !dbg !3241
  tail call void @llvm.dbg.value(metadata i16* %add.ptr, i64 0, metadata !2758, metadata !1520), !dbg !3242
  %add405 = add nuw nsw i32 %conv402, 1, !dbg !3243
  %add408 = add nsw i32 %add405, %233, !dbg !3244
  store i32 %add408, i32* %arrayidx404, align 4, !dbg !3244, !tbaa !1525
  tail call void @llvm.dbg.value(metadata i32 0, i64 0, metadata !2753, metadata !1520), !dbg !3245
  tail call void @llvm.dbg.value(metadata i32 %inc399, i64 0, metadata !2755, metadata !1520), !dbg !3226
  tail call void @llvm.dbg.value(metadata i32 0, i64 0, metadata !2753, metadata !1520), !dbg !3245
  %234 = add i32 %current_pos.0704, 2, !dbg !3232
  %wide.trip.count = zext i32 %add405 to i64
  %indvars.iv.next947 = add nsw i64 %idxprom400, 1, !dbg !3246
  store i16 %232, i16* %add.ptr, align 2, !dbg !3248, !tbaa !2888
  %exitcond949 = icmp eq i16 %232, 0, !dbg !3249
  br i1 %exitcond949, label %while.cond393.loopexit, label %for.body412.for.body412_crit_edge.lr.ph, !dbg !3232, !llvm.loop !3251

for.body412.for.body412_crit_edge.lr.ph:          ; preds = %while.body395
  %min.iters.check959 = icmp ult i16 %232, 16, !dbg !3232
  br i1 %min.iters.check959, label %for.body412.for.body412_crit_edge.preheader, label %min.iters.checked960, !dbg !3232

min.iters.checked960:                             ; preds = %for.body412.for.body412_crit_edge.lr.ph
  %235 = zext i16 %232 to i64, !dbg !3232
  %236 = and i16 %232, 15, !dbg !3232
  %n.mod.vf961 = zext i16 %236 to i64, !dbg !3232
  %n.vec962 = sub nsw i64 %235, %n.mod.vf961, !dbg !3232
  %cmp.zero963 = icmp eq i64 %n.vec962, 0, !dbg !3232
  br i1 %cmp.zero963, label %for.body412.for.body412_crit_edge.preheader, label %vector.memcheck, !dbg !3232

vector.memcheck:                                  ; preds = %min.iters.checked960
  %scevgep966 = getelementptr i16, i16* %scevgep965, i64 %idx.ext, !dbg !3232
  %237 = zext i16 %232 to i64, !dbg !3232
  %238 = add nsw i64 %idx.ext, %237, !dbg !3232
  %scevgep969 = getelementptr i16, i16* %scevgep968, i64 %238, !dbg !3232
  %scevgep972 = getelementptr i16, i16* %scevgep971, i64 %idxprom400, !dbg !3232
  %239 = add nsw i64 %idxprom400, %237, !dbg !3232
  %scevgep975 = getelementptr i16, i16* %scevgep974, i64 %239, !dbg !3232
  %bound0 = icmp ult i16* %scevgep966, %scevgep975, !dbg !3232
  %bound1 = icmp ult i16* %scevgep972, %scevgep969, !dbg !3232
  %memcheck.conflict = and i1 %bound0, %bound1, !dbg !3232
  %ind.end981 = add nsw i64 %n.vec962, 1, !dbg !3232
  %ind.end983 = add nsw i64 %indvars.iv.next947, %n.vec962, !dbg !3232
  br i1 %memcheck.conflict, label %for.body412.for.body412_crit_edge.preheader, label %vector.body956.preheader, !dbg !3232

vector.body956.preheader:                         ; preds = %vector.memcheck
  br label %vector.body956

vector.body956:                                   ; preds = %vector.body956.preheader, %vector.body956
  %index978 = phi i64 [ %index.next979, %vector.body956 ], [ 0, %vector.body956.preheader ]
  %offset.idx985 = or i64 %index978, 1
  %240 = add i64 %indvars.iv.next947, %index978
  %241 = getelementptr inbounds i16, i16* %227, i64 %240
  %242 = bitcast i16* %241 to <8 x i16>*
  %wide.load = load <8 x i16>, <8 x i16>* %242, align 2, !tbaa !2888, !alias.scope !3254
  %243 = getelementptr i16, i16* %241, i64 8
  %244 = bitcast i16* %243 to <8 x i16>*
  %wide.load995 = load <8 x i16>, <8 x i16>* %244, align 2, !tbaa !2888, !alias.scope !3254
  %245 = getelementptr inbounds i16, i16* %add.ptr, i64 %offset.idx985, !dbg !3257
  %246 = bitcast i16* %245 to <8 x i16>*, !dbg !3248
  store <8 x i16> %wide.load, <8 x i16>* %246, align 2, !dbg !3248, !tbaa !2888, !alias.scope !3258, !noalias !3254
  %247 = getelementptr i16, i16* %245, i64 8, !dbg !3248
  %248 = bitcast i16* %247 to <8 x i16>*, !dbg !3248
  store <8 x i16> %wide.load995, <8 x i16>* %248, align 2, !dbg !3248, !tbaa !2888, !alias.scope !3258, !noalias !3254
  %index.next979 = add i64 %index978, 16
  %249 = icmp eq i64 %index.next979, %n.vec962
  br i1 %249, label %middle.block957, label %vector.body956, !llvm.loop !3260

middle.block957:                                  ; preds = %vector.body956
  %cmp.n984 = icmp eq i16 %236, 0
  br i1 %cmp.n984, label %while.cond393.loopexit, label %for.body412.for.body412_crit_edge.preheader, !dbg !3232

for.body412.for.body412_crit_edge.preheader:      ; preds = %middle.block957, %vector.memcheck, %min.iters.checked960, %for.body412.for.body412_crit_edge.lr.ph
  %indvars.iv.next825951.ph = phi i64 [ 1, %vector.memcheck ], [ 1, %min.iters.checked960 ], [ 1, %for.body412.for.body412_crit_edge.lr.ph ], [ %ind.end981, %middle.block957 ]
  %indvars.iv.next950.ph = phi i64 [ %indvars.iv.next947, %vector.memcheck ], [ %indvars.iv.next947, %min.iters.checked960 ], [ %indvars.iv.next947, %for.body412.for.body412_crit_edge.lr.ph ], [ %ind.end983, %middle.block957 ]
  %250 = zext i16 %232 to i64
  %251 = add nuw nsw i64 %250, 1
  %252 = sub nsw i64 %251, %indvars.iv.next825951.ph
  %253 = sub nsw i64 %250, %indvars.iv.next825951.ph
  %xtraiter = and i64 %252, 3
  %lcmp.mod = icmp eq i64 %xtraiter, 0
  br i1 %lcmp.mod, label %for.body412.for.body412_crit_edge.prol.loopexit, label %for.body412.for.body412_crit_edge.prol.preheader

for.body412.for.body412_crit_edge.prol.preheader: ; preds = %for.body412.for.body412_crit_edge.preheader
  br label %for.body412.for.body412_crit_edge.prol

for.body412.for.body412_crit_edge.prol:           ; preds = %for.body412.for.body412_crit_edge.prol, %for.body412.for.body412_crit_edge.prol.preheader
  %indvars.iv.next825951.prol = phi i64 [ %indvars.iv.next825.prol, %for.body412.for.body412_crit_edge.prol ], [ %indvars.iv.next825951.ph, %for.body412.for.body412_crit_edge.prol.preheader ]
